Archive member included to satisfy reference by file (symbol)

.build/obj_karlk90_yaemk_moonlanderlike/i2c_master.a(i2c_master.o)
                              .build/obj_karlk90_yaemk_moonlanderlike/eeprom_i2c.o (symbol from plugin) (i2c_init)
.build/obj_karlk90_yaemk_moonlanderlike/serial_usart.a(serial_usart.o)
                              .build/obj_karlk90_yaemk_moonlanderlike/quantum/split_common/transport.o (symbol from plugin) (soft_serial_target_init)
/usr/lib/gcc/arm-none-eabi/10.3.1/thumb/v7e-m+fp/hard/libgcc.a(_aeabi_ldivmod.o)
                              .build/obj_karlk90_yaemk_moonlanderlike/i2c_master.a(i2c_master.o) (__aeabi_ldivmod)
/usr/lib/gcc/arm-none-eabi/10.3.1/thumb/v7e-m+fp/hard/libgcc.a(_aeabi_uldivmod.o)
                              .build/obj_karlk90_yaemk_moonlanderlike/i2c_master.a(i2c_master.o) (__aeabi_uldivmod)
/usr/lib/gcc/arm-none-eabi/10.3.1/thumb/v7e-m+fp/hard/libgcc.a(_udivmoddi4.o)
                              /usr/lib/gcc/arm-none-eabi/10.3.1/thumb/v7e-m+fp/hard/libgcc.a(_aeabi_ldivmod.o) (__udivmoddi4)
/usr/lib/gcc/arm-none-eabi/10.3.1/thumb/v7e-m+fp/hard/libgcc.a(_dvmd_tls.o)
                              /usr/lib/gcc/arm-none-eabi/10.3.1/thumb/v7e-m+fp/hard/libgcc.a(_aeabi_ldivmod.o) (__aeabi_ldiv0)
/usr/lib/gcc/arm-none-eabi/10.3.1/../../../arm-none-eabi/lib/thumb/v7e-m+fp/hard/libg_nano.a(lib_a-ctype_.o)
                              .build/obj_karlk90_yaemk_moonlanderlike/quantum/send_string.o (symbol from plugin) (_ctype_)
/usr/lib/gcc/arm-none-eabi/10.3.1/../../../arm-none-eabi/lib/thumb/v7e-m+fp/hard/libg_nano.a(lib_a-errno.o)
                              .build/obj_karlk90_yaemk/common/chibios/syscall-fallbacks.o (symbol from plugin) (__errno)
/usr/lib/gcc/arm-none-eabi/10.3.1/../../../arm-none-eabi/lib/thumb/v7e-m+fp/hard/libg_nano.a(lib_a-impure.o)
                              /usr/lib/gcc/arm-none-eabi/10.3.1/../../../arm-none-eabi/lib/thumb/v7e-m+fp/hard/libg_nano.a(lib_a-errno.o) (_impure_ptr)
/usr/lib/gcc/arm-none-eabi/10.3.1/../../../arm-none-eabi/lib/thumb/v7e-m+fp/hard/libg_nano.a(lib_a-memcpy.o)
                              .build/obj_karlk90_yaemk_moonlanderlike/i2c_master.a(i2c_master.o) (memcpy)
/usr/lib/gcc/arm-none-eabi/10.3.1/../../../arm-none-eabi/lib/thumb/v7e-m+fp/hard/libg_nano.a(lib_a-rand.o)
                              .build/obj_karlk90_yaemk_moonlanderlike/quantum/send_string.o (symbol from plugin) (rand)
/usr/lib/gcc/arm-none-eabi/10.3.1/../../../arm-none-eabi/lib/thumb/v7e-m+fp/hard/libg_nano.a(lib_a-assert.o)
                              /usr/lib/gcc/arm-none-eabi/10.3.1/../../../arm-none-eabi/lib/thumb/v7e-m+fp/hard/libg_nano.a(lib_a-rand.o) (__assert_func)
/usr/lib/gcc/arm-none-eabi/10.3.1/../../../arm-none-eabi/lib/thumb/v7e-m+fp/hard/libg_nano.a(lib_a-fprintf.o)
                              /usr/lib/gcc/arm-none-eabi/10.3.1/../../../arm-none-eabi/lib/thumb/v7e-m+fp/hard/libg_nano.a(lib_a-assert.o) (fiprintf)
/usr/lib/gcc/arm-none-eabi/10.3.1/../../../arm-none-eabi/lib/thumb/v7e-m+fp/hard/libg_nano.a(lib_a-malloc.o)
                              /usr/lib/gcc/arm-none-eabi/10.3.1/../../../arm-none-eabi/lib/thumb/v7e-m+fp/hard/libg_nano.a(lib_a-rand.o) (malloc)
/usr/lib/gcc/arm-none-eabi/10.3.1/../../../arm-none-eabi/lib/thumb/v7e-m+fp/hard/libg_nano.a(lib_a-nano-freer.o)
                              /usr/lib/gcc/arm-none-eabi/10.3.1/../../../arm-none-eabi/lib/thumb/v7e-m+fp/hard/libg_nano.a(lib_a-malloc.o) (_free_r)
/usr/lib/gcc/arm-none-eabi/10.3.1/../../../arm-none-eabi/lib/thumb/v7e-m+fp/hard/libg_nano.a(lib_a-nano-mallocr.o)
                              /usr/lib/gcc/arm-none-eabi/10.3.1/../../../arm-none-eabi/lib/thumb/v7e-m+fp/hard/libg_nano.a(lib_a-malloc.o) (_malloc_r)
/usr/lib/gcc/arm-none-eabi/10.3.1/../../../arm-none-eabi/lib/thumb/v7e-m+fp/hard/libg_nano.a(lib_a-nano-vfprintf.o)
                              /usr/lib/gcc/arm-none-eabi/10.3.1/../../../arm-none-eabi/lib/thumb/v7e-m+fp/hard/libg_nano.a(lib_a-fprintf.o) (_vfprintf_r)
/usr/lib/gcc/arm-none-eabi/10.3.1/../../../arm-none-eabi/lib/thumb/v7e-m+fp/hard/libg_nano.a(lib_a-nano-vfprintf_i.o)
                              /usr/lib/gcc/arm-none-eabi/10.3.1/../../../arm-none-eabi/lib/thumb/v7e-m+fp/hard/libg_nano.a(lib_a-nano-vfprintf.o) (_printf_i)
/usr/lib/gcc/arm-none-eabi/10.3.1/../../../arm-none-eabi/lib/thumb/v7e-m+fp/hard/libg_nano.a(lib_a-wbuf.o)
                              /usr/lib/gcc/arm-none-eabi/10.3.1/../../../arm-none-eabi/lib/thumb/v7e-m+fp/hard/libg_nano.a(lib_a-nano-vfprintf.o) (__swbuf_r)
/usr/lib/gcc/arm-none-eabi/10.3.1/../../../arm-none-eabi/lib/thumb/v7e-m+fp/hard/libg_nano.a(lib_a-wsetup.o)
                              /usr/lib/gcc/arm-none-eabi/10.3.1/../../../arm-none-eabi/lib/thumb/v7e-m+fp/hard/libg_nano.a(lib_a-nano-vfprintf.o) (__swsetup_r)
/usr/lib/gcc/arm-none-eabi/10.3.1/../../../arm-none-eabi/lib/thumb/v7e-m+fp/hard/libg_nano.a(lib_a-abort.o)
                              /usr/lib/gcc/arm-none-eabi/10.3.1/../../../arm-none-eabi/lib/thumb/v7e-m+fp/hard/libg_nano.a(lib_a-assert.o) (abort)
/usr/lib/gcc/arm-none-eabi/10.3.1/../../../arm-none-eabi/lib/thumb/v7e-m+fp/hard/libg_nano.a(lib_a-fflush.o)
                              /usr/lib/gcc/arm-none-eabi/10.3.1/../../../arm-none-eabi/lib/thumb/v7e-m+fp/hard/libg_nano.a(lib_a-wbuf.o) (_fflush_r)
/usr/lib/gcc/arm-none-eabi/10.3.1/../../../arm-none-eabi/lib/thumb/v7e-m+fp/hard/libg_nano.a(lib_a-findfp.o)
                              /usr/lib/gcc/arm-none-eabi/10.3.1/../../../arm-none-eabi/lib/thumb/v7e-m+fp/hard/libg_nano.a(lib_a-nano-vfprintf.o) (__sinit)
/usr/lib/gcc/arm-none-eabi/10.3.1/../../../arm-none-eabi/lib/thumb/v7e-m+fp/hard/libg_nano.a(lib_a-fvwrite.o)
                              /usr/lib/gcc/arm-none-eabi/10.3.1/../../../arm-none-eabi/lib/thumb/v7e-m+fp/hard/libg_nano.a(lib_a-nano-vfprintf.o) (__sfvwrite_r)
/usr/lib/gcc/arm-none-eabi/10.3.1/../../../arm-none-eabi/lib/thumb/v7e-m+fp/hard/libg_nano.a(lib_a-fwalk.o)
                              /usr/lib/gcc/arm-none-eabi/10.3.1/../../../arm-none-eabi/lib/thumb/v7e-m+fp/hard/libg_nano.a(lib_a-findfp.o) (_fwalk)
/usr/lib/gcc/arm-none-eabi/10.3.1/../../../arm-none-eabi/lib/thumb/v7e-m+fp/hard/libg_nano.a(lib_a-makebuf.o)
                              /usr/lib/gcc/arm-none-eabi/10.3.1/../../../arm-none-eabi/lib/thumb/v7e-m+fp/hard/libg_nano.a(lib_a-wsetup.o) (__smakebuf_r)
/usr/lib/gcc/arm-none-eabi/10.3.1/../../../arm-none-eabi/lib/thumb/v7e-m+fp/hard/libg_nano.a(lib_a-memchr.o)
                              /usr/lib/gcc/arm-none-eabi/10.3.1/../../../arm-none-eabi/lib/thumb/v7e-m+fp/hard/libg_nano.a(lib_a-nano-vfprintf.o) (memchr)
/usr/lib/gcc/arm-none-eabi/10.3.1/../../../arm-none-eabi/lib/thumb/v7e-m+fp/hard/libg_nano.a(lib_a-memmove.o)
                              /usr/lib/gcc/arm-none-eabi/10.3.1/../../../arm-none-eabi/lib/thumb/v7e-m+fp/hard/libg_nano.a(lib_a-fvwrite.o) (memmove)
/usr/lib/gcc/arm-none-eabi/10.3.1/../../../arm-none-eabi/lib/thumb/v7e-m+fp/hard/libg_nano.a(lib_a-memset.o)
                              /usr/lib/gcc/arm-none-eabi/10.3.1/../../../arm-none-eabi/lib/thumb/v7e-m+fp/hard/libg_nano.a(lib_a-findfp.o) (memset)
/usr/lib/gcc/arm-none-eabi/10.3.1/../../../arm-none-eabi/lib/thumb/v7e-m+fp/hard/libg_nano.a(lib_a-mlock.o)
                              /usr/lib/gcc/arm-none-eabi/10.3.1/../../../arm-none-eabi/lib/thumb/v7e-m+fp/hard/libg_nano.a(lib_a-nano-freer.o) (__malloc_lock)
/usr/lib/gcc/arm-none-eabi/10.3.1/../../../arm-none-eabi/lib/thumb/v7e-m+fp/hard/libg_nano.a(lib_a-nano-reallocr.o)
                              /usr/lib/gcc/arm-none-eabi/10.3.1/../../../arm-none-eabi/lib/thumb/v7e-m+fp/hard/libg_nano.a(lib_a-fvwrite.o) (_realloc_r)
/usr/lib/gcc/arm-none-eabi/10.3.1/../../../arm-none-eabi/lib/thumb/v7e-m+fp/hard/libg_nano.a(lib_a-signal.o)
                              /usr/lib/gcc/arm-none-eabi/10.3.1/../../../arm-none-eabi/lib/thumb/v7e-m+fp/hard/libg_nano.a(lib_a-abort.o) (raise)
/usr/lib/gcc/arm-none-eabi/10.3.1/../../../arm-none-eabi/lib/thumb/v7e-m+fp/hard/libg_nano.a(lib_a-signalr.o)
                              /usr/lib/gcc/arm-none-eabi/10.3.1/../../../arm-none-eabi/lib/thumb/v7e-m+fp/hard/libg_nano.a(lib_a-signal.o) (_kill_r)
/usr/lib/gcc/arm-none-eabi/10.3.1/../../../arm-none-eabi/lib/thumb/v7e-m+fp/hard/libg_nano.a(lib_a-stdio.o)
                              /usr/lib/gcc/arm-none-eabi/10.3.1/../../../arm-none-eabi/lib/thumb/v7e-m+fp/hard/libg_nano.a(lib_a-findfp.o) (__sread)
/usr/lib/gcc/arm-none-eabi/10.3.1/../../../arm-none-eabi/lib/thumb/v7e-m+fp/hard/libg_nano.a(lib_a-nano-msizer.o)
                              /usr/lib/gcc/arm-none-eabi/10.3.1/../../../arm-none-eabi/lib/thumb/v7e-m+fp/hard/libg_nano.a(lib_a-nano-reallocr.o) (_malloc_usable_size_r)
/usr/lib/gcc/arm-none-eabi/10.3.1/../../../arm-none-eabi/lib/thumb/v7e-m+fp/hard/libg_nano.a(lib_a-reent.o)
                              /usr/lib/gcc/arm-none-eabi/10.3.1/../../../arm-none-eabi/lib/thumb/v7e-m+fp/hard/libg_nano.a(lib_a-signalr.o) (errno)
/usr/lib/gcc/arm-none-eabi/10.3.1/../../../arm-none-eabi/lib/thumb/v7e-m+fp/hard/libg_nano.a(lib_a-memcmp.o)
                              /tmp/karlk90_yaemk_moonlanderlike.elf.XW0OFi.ltrans0.ltrans.o (memcmp)
/usr/lib/gcc/arm-none-eabi/10.3.1/../../../arm-none-eabi/lib/thumb/v7e-m+fp/hard/libg_nano.a(lib_a-strlen.o)
                              /tmp/karlk90_yaemk_moonlanderlike.elf.XW0OFi.ltrans1.ltrans.o (strlen)

Allocating common symbols
Common symbol       size              file

mod_state           0x1               .build/obj_karlk90_yaemk_moonlanderlike/keyboards/karlk90/yaemk/keymaps/moonlanderlike/keymap.o (symbol from plugin)
last_keyboard_report
                    0x20              .build/obj_karlk90_yaemk_moonlanderlike/quantum/action_util.o (symbol from plugin)
thatHand            0x1               .build/obj_karlk90_yaemk_moonlanderlike/quantum/matrix.o (symbol from plugin)
I2CD1               0x34              /tmp/karlk90_yaemk_moonlanderlike.elf.XW0OFi.ltrans0.ltrans.o
keyboard_report_has_deferred_keycodes
                    0x1               .build/obj_karlk90_yaemk_moonlanderlike/quantum/action_util.o (symbol from plugin)
ch_idle_thread_wa   0x140             .build/obj_karlk90_yaemk/lib/chibios/os/rt/src/chsys.o (symbol from plugin)
sync_timer_ms       0x4               .build/obj_karlk90_yaemk_moonlanderlike/common/sync_timer.o (symbol from plugin)
SD3                 0x60              /tmp/karlk90_yaemk_moonlanderlike.elf.XW0OFi.ltrans0.ltrans.o
oled_update_timeout
                    0x2               .build/obj_karlk90_yaemk_moonlanderlike/ssd1306_sh1106.o (symbol from plugin)
raw_matrix          0xa               .build/obj_karlk90_yaemk_moonlanderlike/quantum/matrix_common.o (symbol from plugin)
rgb_matrix_ws2812_array
                    0xf0              .build/obj_karlk90_yaemk_moonlanderlike/quantum/rgb_matrix/rgb_matrix_drivers.o (symbol from plugin)
matrix              0xa               .build/obj_karlk90_yaemk_moonlanderlike/quantum/matrix_common.o (symbol from plugin)
tp_buttons          0x4               .build/obj_karlk90_yaemk_moonlanderlike/quantum/action.o (symbol from plugin)
dummy               0x1               .build/obj_karlk90_yaemk_moonlanderlike/quantum/split_common/transactions.o (symbol from plugin)
unregister_keycodes
                    0x18              .build/obj_karlk90_yaemk_moonlanderlike/quantum/action_util.o (symbol from plugin)
thisHand            0x1               .build/obj_karlk90_yaemk_moonlanderlike/quantum/matrix.o (symbol from plugin)

Discarded input sections

 .text          0x0000000000000000        0x0 /tmp/karlk90_yaemk_moonlanderlike.elf.XW0OFi.ltrans0.ltrans.o
 .data          0x0000000000000000        0x0 /tmp/karlk90_yaemk_moonlanderlike.elf.XW0OFi.ltrans0.ltrans.o
 .bss           0x0000000000000000        0x0 /tmp/karlk90_yaemk_moonlanderlike.elf.XW0OFi.ltrans0.ltrans.o
 .text.default_layer_debug
                0x0000000000000000        0x4 /tmp/karlk90_yaemk_moonlanderlike.elf.XW0OFi.ltrans0.ltrans.o
 .text._out_null
                0x0000000000000000        0x4 /tmp/karlk90_yaemk_moonlanderlike.elf.XW0OFi.ltrans0.ltrans.o
 .rodata.disable_action_cache
                0x0000000000000000        0x1 /tmp/karlk90_yaemk_moonlanderlike.elf.XW0OFi.ltrans0.ltrans.o
 .rodata.rgb_matrix_driver
                0x0000000000000000       0x10 /tmp/karlk90_yaemk_moonlanderlike.elf.XW0OFi.ltrans0.ltrans.o
 .text          0x0000000000000000        0x0 /tmp/karlk90_yaemk_moonlanderlike.elf.XW0OFi.ltrans1.ltrans.o
 .data          0x0000000000000000        0x0 /tmp/karlk90_yaemk_moonlanderlike.elf.XW0OFi.ltrans1.ltrans.o
 .bss           0x0000000000000000        0x0 /tmp/karlk90_yaemk_moonlanderlike.elf.XW0OFi.ltrans1.ltrans.o
 .text.setled_all.lto_priv.0
                0x0000000000000000       0x50 /tmp/karlk90_yaemk_moonlanderlike.elf.XW0OFi.ltrans1.ltrans.o
 .text.dmaStreamFreeI
                0x0000000000000000       0x84 /tmp/karlk90_yaemk_moonlanderlike.elf.XW0OFi.ltrans1.ltrans.o
 .text.i2cStop  0x0000000000000000       0xb4 /tmp/karlk90_yaemk_moonlanderlike.elf.XW0OFi.ltrans1.ltrans.o
 .text._open_r  0x0000000000000000        0xc /tmp/karlk90_yaemk_moonlanderlike.elf.XW0OFi.ltrans1.ltrans.o
 .text._link_r  0x0000000000000000        0xc /tmp/karlk90_yaemk_moonlanderlike.elf.XW0OFi.ltrans1.ltrans.o
 .text._unlink_r
                0x0000000000000000        0xc /tmp/karlk90_yaemk_moonlanderlike.elf.XW0OFi.ltrans1.ltrans.o
 .text._times_r
                0x0000000000000000        0xc /tmp/karlk90_yaemk_moonlanderlike.elf.XW0OFi.ltrans1.ltrans.o
 .text._gettimeofday_r
                0x0000000000000000        0xc /tmp/karlk90_yaemk_moonlanderlike.elf.XW0OFi.ltrans1.ltrans.o
 .text.__cxa_pure_virtual
                0x0000000000000000        0x4 /tmp/karlk90_yaemk_moonlanderlike.elf.XW0OFi.ltrans1.ltrans.o
 .bss.__dso_handle
                0x0000000000000000        0x4 /tmp/karlk90_yaemk_moonlanderlike.elf.XW0OFi.ltrans1.ltrans.o
 .bss.keyboard_idle_count
                0x0000000000000000        0x2 /tmp/karlk90_yaemk_moonlanderlike.elf.XW0OFi.ltrans1.ltrans.o
 .comment       0x0000000000000000       0x34 /tmp/ccfnEjuh.debug.temp.o
 .comment       0x0000000000000000       0x34 /tmp/cc0I4f7X.debug.temp.o
 .comment       0x0000000000000000       0x34 /tmp/cclModur.debug.temp.o
 .comment       0x0000000000000000       0x34 /tmp/cctRlNqi.debug.temp.o
 .comment       0x0000000000000000       0x34 /tmp/ccW91Jhp.debug.temp.o
 .comment       0x0000000000000000       0x34 /tmp/cc1n2tj8.debug.temp.o
 .comment       0x0000000000000000       0x34 /tmp/ccQek5tM.debug.temp.o
 .comment       0x0000000000000000       0x34 /tmp/ccy2zO6v.debug.temp.o
 .comment       0x0000000000000000       0x34 /tmp/ccOBaQrD.debug.temp.o
 .comment       0x0000000000000000       0x34 /tmp/ccByYric.debug.temp.o
 .debug_info    0x0000000000000000       0x72 /tmp/ccpalqtk.debug.temp.o
 .debug_abbrev  0x0000000000000000       0x26 /tmp/ccpalqtk.debug.temp.o
 .debug_line    0x0000000000000000       0x1e /tmp/ccpalqtk.debug.temp.o
 .debug_str     0x0000000000000000      0x1fd /tmp/ccpalqtk.debug.temp.o
 .comment       0x0000000000000000       0x34 /tmp/ccpalqtk.debug.temp.o
 .comment       0x0000000000000000       0x34 /tmp/cc90lmnB.debug.temp.o
 .comment       0x0000000000000000       0x34 /tmp/ccGI6wID.debug.temp.o
 .comment       0x0000000000000000       0x34 /tmp/ccncmTqY.debug.temp.o
 .comment       0x0000000000000000       0x34 /tmp/cc14VErq.debug.temp.o
 .comment       0x0000000000000000       0x34 /tmp/ccJHiYPW.debug.temp.o
 .comment       0x0000000000000000       0x34 /tmp/ccs3fqN1.debug.temp.o
 .comment       0x0000000000000000       0x34 /tmp/ccQRN3Wo.debug.temp.o
 .comment       0x0000000000000000       0x34 /tmp/ccmAVrlH.debug.temp.o
 .debug_info    0x0000000000000000       0x93 /tmp/ccDHRplC.debug.temp.o
 .debug_abbrev  0x0000000000000000       0x57 /tmp/ccDHRplC.debug.temp.o
 .debug_line    0x0000000000000000       0x72 /tmp/ccDHRplC.debug.temp.o
 .debug_str     0x0000000000000000      0x20e /tmp/ccDHRplC.debug.temp.o
 .comment       0x0000000000000000       0x34 /tmp/ccDHRplC.debug.temp.o
 .comment       0x0000000000000000       0x34 /tmp/ccKbKh4E.debug.temp.o
 .comment       0x0000000000000000       0x34 /tmp/ccKwh0z5.debug.temp.o
 .comment       0x0000000000000000       0x34 /tmp/cckzIpwo.debug.temp.o
 .comment       0x0000000000000000       0x34 /tmp/ccGzjP0w.debug.temp.o
 .comment       0x0000000000000000       0x34 /tmp/ccXB4Az0.debug.temp.o
 .comment       0x0000000000000000       0x34 /tmp/ccS614w6.debug.temp.o
 .comment       0x0000000000000000       0x34 /tmp/cc7Z7BLY.debug.temp.o
 .comment       0x0000000000000000       0x34 /tmp/cc1oeOTg.debug.temp.o
 .comment       0x0000000000000000       0x34 /tmp/cclqFKnx.debug.temp.o
 .comment       0x0000000000000000       0x34 /tmp/ccV71jLk.debug.temp.o
 .comment       0x0000000000000000       0x34 /tmp/ccSb3YlV.debug.temp.o
 .comment       0x0000000000000000       0x34 /tmp/ccLgSN5x.debug.temp.o
 .comment       0x0000000000000000       0x34 /tmp/ccYm6amU.debug.temp.o
 .comment       0x0000000000000000       0x34 /tmp/ccV2JrjB.debug.temp.o
 .comment       0x0000000000000000       0x34 /tmp/ccQzfpqF.debug.temp.o
 .comment       0x0000000000000000       0x34 /tmp/ccvrKOHP.debug.temp.o
 .comment       0x0000000000000000       0x34 /tmp/ccvsftI7.debug.temp.o
 .debug_info    0x0000000000000000       0x7c /tmp/ccNwn336.debug.temp.o
 .debug_abbrev  0x0000000000000000       0x46 /tmp/ccNwn336.debug.temp.o
 .debug_line    0x0000000000000000       0x6f /tmp/ccNwn336.debug.temp.o
 .debug_str     0x0000000000000000      0x207 /tmp/ccNwn336.debug.temp.o
 .comment       0x0000000000000000       0x34 /tmp/ccNwn336.debug.temp.o
 .comment       0x0000000000000000       0x34 /tmp/ccS4oibQ.debug.temp.o
 .comment       0x0000000000000000       0x34 /tmp/cc9usVWf.debug.temp.o
 .comment       0x0000000000000000       0x34 /tmp/ccDQrsNj.debug.temp.o
 .comment       0x0000000000000000       0x34 /tmp/cc4TrJZZ.debug.temp.o
 .comment       0x0000000000000000       0x34 /tmp/ccnqM8Lz.debug.temp.o
 .comment       0x0000000000000000       0x34 /tmp/ccXHZlTu.debug.temp.o
 .comment       0x0000000000000000       0x34 /tmp/cc2w2gDW.debug.temp.o
 .comment       0x0000000000000000       0x34 /tmp/ccf7tNaY.debug.temp.o
 .comment       0x0000000000000000       0x34 /tmp/ccEP9BKn.debug.temp.o
 .comment       0x0000000000000000       0x34 /tmp/ccm3qksS.debug.temp.o
 .comment       0x0000000000000000       0x34 /tmp/ccN3fR2P.debug.temp.o
 .comment       0x0000000000000000       0x34 /tmp/ccp41CVD.debug.temp.o
 .comment       0x0000000000000000       0x34 /tmp/ccam8VBf.debug.temp.o
 .comment       0x0000000000000000       0x34 /tmp/ccNdgF9w.debug.temp.o
 .debug_info    0x0000000000000000       0x92 /tmp/ccqNl00u.debug.temp.o
 .debug_abbrev  0x0000000000000000       0x4a /tmp/ccqNl00u.debug.temp.o
 .debug_line    0x0000000000000000       0x3c /tmp/ccqNl00u.debug.temp.o
 .debug_str     0x0000000000000000      0x233 /tmp/ccqNl00u.debug.temp.o
 .comment       0x0000000000000000       0x34 /tmp/ccqNl00u.debug.temp.o
 .comment       0x0000000000000000       0x34 /tmp/ccu1coHQ.debug.temp.o
 .comment       0x0000000000000000       0x34 /tmp/cczSDEhq.debug.temp.o
 .comment       0x0000000000000000       0x34 /tmp/ccEcDonF.debug.temp.o
 .comment       0x0000000000000000       0x34 /tmp/ccCQ8m0z.debug.temp.o
 .comment       0x0000000000000000       0x34 /tmp/ccZjDjB6.debug.temp.o
 .comment       0x0000000000000000       0x34 /tmp/ccQxHeRz.debug.temp.o
 .comment       0x0000000000000000       0x34 /tmp/ccJefRjC.debug.temp.o
 .comment       0x0000000000000000       0x34 /tmp/ccfphpFF.debug.temp.o
 .debug_info    0x0000000000000000      0x9d5 /tmp/ccVttbpz.debug.temp.o
 .debug_abbrev  0x0000000000000000      0x17d /tmp/ccVttbpz.debug.temp.o
 .debug_line    0x0000000000000000      0x1b4 /tmp/ccVttbpz.debug.temp.o
 .debug_str     0x0000000000000000      0x73c /tmp/ccVttbpz.debug.temp.o
 .comment       0x0000000000000000       0x34 /tmp/ccVttbpz.debug.temp.o
 .debug_info    0x0000000000000000       0x6b /tmp/cc4mht7u.debug.temp.o
 .debug_abbrev  0x0000000000000000       0x26 /tmp/cc4mht7u.debug.temp.o
 .debug_line    0x0000000000000000       0x1e /tmp/cc4mht7u.debug.temp.o
 .debug_str     0x0000000000000000      0x204 /tmp/cc4mht7u.debug.temp.o
 .comment       0x0000000000000000       0x34 /tmp/cc4mht7u.debug.temp.o
 .comment       0x0000000000000000       0x34 /tmp/ccpJSHAY.debug.temp.o
 .debug_info    0x0000000000000000       0x6b /tmp/ccoFtdrQ.debug.temp.o
 .debug_abbrev  0x0000000000000000       0x26 /tmp/ccoFtdrQ.debug.temp.o
 .debug_line    0x0000000000000000       0x1e /tmp/ccoFtdrQ.debug.temp.o
 .debug_str     0x0000000000000000      0x206 /tmp/ccoFtdrQ.debug.temp.o
 .comment       0x0000000000000000       0x34 /tmp/ccoFtdrQ.debug.temp.o
 .debug_info    0x0000000000000000       0x6b /tmp/ccRcYMk1.debug.temp.o
 .debug_abbrev  0x0000000000000000       0x26 /tmp/ccRcYMk1.debug.temp.o
 .debug_line    0x0000000000000000       0x1e /tmp/ccRcYMk1.debug.temp.o
 .debug_str     0x0000000000000000      0x206 /tmp/ccRcYMk1.debug.temp.o
 .comment       0x0000000000000000       0x34 /tmp/ccRcYMk1.debug.temp.o
 .debug_info    0x0000000000000000       0x6b /tmp/ccmXFPTE.debug.temp.o
 .debug_abbrev  0x0000000000000000       0x26 /tmp/ccmXFPTE.debug.temp.o
 .debug_line    0x0000000000000000       0x1e /tmp/ccmXFPTE.debug.temp.o
 .debug_str     0x0000000000000000      0x203 /tmp/ccmXFPTE.debug.temp.o
 .comment       0x0000000000000000       0x34 /tmp/ccmXFPTE.debug.temp.o
 .debug_info    0x0000000000000000       0x6b /tmp/ccdKJVl4.debug.temp.o
 .debug_abbrev  0x0000000000000000       0x26 /tmp/ccdKJVl4.debug.temp.o
 .debug_line    0x0000000000000000       0x1e /tmp/ccdKJVl4.debug.temp.o
 .debug_str     0x0000000000000000      0x207 /tmp/ccdKJVl4.debug.temp.o
 .comment       0x0000000000000000       0x34 /tmp/ccdKJVl4.debug.temp.o
 .debug_info    0x0000000000000000       0x6b /tmp/ccgVkbea.debug.temp.o
 .debug_abbrev  0x0000000000000000       0x26 /tmp/ccgVkbea.debug.temp.o
 .debug_line    0x0000000000000000       0x1e /tmp/ccgVkbea.debug.temp.o
 .debug_str     0x0000000000000000      0x207 /tmp/ccgVkbea.debug.temp.o
 .comment       0x0000000000000000       0x34 /tmp/ccgVkbea.debug.temp.o
 .debug_info    0x0000000000000000       0x6b /tmp/ccg7baGU.debug.temp.o
 .debug_abbrev  0x0000000000000000       0x26 /tmp/ccg7baGU.debug.temp.o
 .debug_line    0x0000000000000000       0x1e /tmp/ccg7baGU.debug.temp.o
 .debug_str     0x0000000000000000      0x205 /tmp/ccg7baGU.debug.temp.o
 .comment       0x0000000000000000       0x34 /tmp/ccg7baGU.debug.temp.o
 .comment       0x0000000000000000       0x34 /tmp/ccnMlElZ.debug.temp.o
 .comment       0x0000000000000000       0x34 /tmp/ccQytxMT.debug.temp.o
 .debug_info    0x0000000000000000       0x6b /tmp/ccp7JPEI.debug.temp.o
 .debug_abbrev  0x0000000000000000       0x26 /tmp/ccp7JPEI.debug.temp.o
 .debug_line    0x0000000000000000       0x1e /tmp/ccp7JPEI.debug.temp.o
 .debug_str     0x0000000000000000      0x200 /tmp/ccp7JPEI.debug.temp.o
 .comment       0x0000000000000000       0x34 /tmp/ccp7JPEI.debug.temp.o
 .debug_info    0x0000000000000000       0x6b /tmp/ccP2vrAQ.debug.temp.o
 .debug_abbrev  0x0000000000000000       0x26 /tmp/ccP2vrAQ.debug.temp.o
 .debug_line    0x0000000000000000       0x1e /tmp/ccP2vrAQ.debug.temp.o
 .debug_str     0x0000000000000000      0x200 /tmp/ccP2vrAQ.debug.temp.o
 .comment       0x0000000000000000       0x34 /tmp/ccP2vrAQ.debug.temp.o
 .comment       0x0000000000000000       0x34 /tmp/ccl8lVpT.debug.temp.o
 .comment       0x0000000000000000       0x34 /tmp/cczusIdJ.debug.temp.o
 .comment       0x0000000000000000       0x34 /tmp/ccQHHhYP.debug.temp.o
 .debug_info    0x0000000000000000       0x6b /tmp/ccIiNeEE.debug.temp.o
 .debug_abbrev  0x0000000000000000       0x26 /tmp/ccIiNeEE.debug.temp.o
 .debug_line    0x0000000000000000       0x1e /tmp/ccIiNeEE.debug.temp.o
 .debug_str     0x0000000000000000      0x1fd /tmp/ccIiNeEE.debug.temp.o
 .comment       0x0000000000000000       0x34 /tmp/ccIiNeEE.debug.temp.o
 .debug_info    0x0000000000000000       0x6b /tmp/ccPDrbvp.debug.temp.o
 .debug_abbrev  0x0000000000000000       0x26 /tmp/ccPDrbvp.debug.temp.o
 .debug_line    0x0000000000000000       0x1e /tmp/ccPDrbvp.debug.temp.o
 .debug_str     0x0000000000000000      0x200 /tmp/ccPDrbvp.debug.temp.o
 .comment       0x0000000000000000       0x34 /tmp/ccPDrbvp.debug.temp.o
 .debug_info    0x0000000000000000       0x6b /tmp/ccjgVyNu.debug.temp.o
 .debug_abbrev  0x0000000000000000       0x26 /tmp/ccjgVyNu.debug.temp.o
 .debug_line    0x0000000000000000       0x1e /tmp/ccjgVyNu.debug.temp.o
 .debug_str     0x0000000000000000      0x203 /tmp/ccjgVyNu.debug.temp.o
 .comment       0x0000000000000000       0x34 /tmp/ccjgVyNu.debug.temp.o
 .debug_info    0x0000000000000000      0x9f5 /tmp/ccNwgW33.debug.temp.o
 .debug_abbrev  0x0000000000000000      0x22b /tmp/ccNwgW33.debug.temp.o
 .debug_line    0x0000000000000000      0x196 /tmp/ccNwgW33.debug.temp.o
 .debug_str     0x0000000000000000      0x5d6 /tmp/ccNwgW33.debug.temp.o
 .comment       0x0000000000000000       0x34 /tmp/ccNwgW33.debug.temp.o
 .comment       0x0000000000000000       0x34 /tmp/ccFBVBaf.debug.temp.o
 .debug_info    0x0000000000000000       0x6b /tmp/cc8jRkpf.debug.temp.o
 .debug_abbrev  0x0000000000000000       0x26 /tmp/cc8jRkpf.debug.temp.o
 .debug_line    0x0000000000000000       0x1e /tmp/cc8jRkpf.debug.temp.o
 .debug_str     0x0000000000000000      0x1ff /tmp/cc8jRkpf.debug.temp.o
 .comment       0x0000000000000000       0x34 /tmp/cc8jRkpf.debug.temp.o
 .comment       0x0000000000000000       0x34 /tmp/ccqpTBta.debug.temp.o
 .debug_info    0x0000000000000000       0x6b /tmp/cc5DI4mx.debug.temp.o
 .debug_abbrev  0x0000000000000000       0x26 /tmp/cc5DI4mx.debug.temp.o
 .debug_line    0x0000000000000000       0x1e /tmp/cc5DI4mx.debug.temp.o
 .debug_str     0x0000000000000000      0x1fe /tmp/cc5DI4mx.debug.temp.o
 .comment       0x0000000000000000       0x34 /tmp/cc5DI4mx.debug.temp.o
 .debug_info    0x0000000000000000       0x6b /tmp/ccGUYIde.debug.temp.o
 .debug_abbrev  0x0000000000000000       0x26 /tmp/ccGUYIde.debug.temp.o
 .debug_line    0x0000000000000000       0x1e /tmp/ccGUYIde.debug.temp.o
 .debug_str     0x0000000000000000      0x202 /tmp/ccGUYIde.debug.temp.o
 .comment       0x0000000000000000       0x34 /tmp/ccGUYIde.debug.temp.o
 .debug_info    0x0000000000000000       0x6b /tmp/ccstMr4o.debug.temp.o
 .debug_abbrev  0x0000000000000000       0x26 /tmp/ccstMr4o.debug.temp.o
 .debug_line    0x0000000000000000       0x1e /tmp/ccstMr4o.debug.temp.o
 .debug_str     0x0000000000000000      0x20c /tmp/ccstMr4o.debug.temp.o
 .comment       0x0000000000000000       0x34 /tmp/ccstMr4o.debug.temp.o
 .comment       0x0000000000000000       0x34 /tmp/ccC350TJ.debug.temp.o
 .debug_info    0x0000000000000000       0x6b /tmp/ccUQnoNd.debug.temp.o
 .debug_abbrev  0x0000000000000000       0x26 /tmp/ccUQnoNd.debug.temp.o
 .debug_line    0x0000000000000000       0x1e /tmp/ccUQnoNd.debug.temp.o
 .debug_str     0x0000000000000000      0x206 /tmp/ccUQnoNd.debug.temp.o
 .comment       0x0000000000000000       0x34 /tmp/ccUQnoNd.debug.temp.o
 .comment       0x0000000000000000       0x34 /tmp/ccTJ2Y4W.debug.temp.o
 .comment       0x0000000000000000       0x34 /tmp/ccwq0AC1.debug.temp.o
 .comment       0x0000000000000000       0x34 /tmp/ccbaU3nc.debug.temp.o
 .comment       0x0000000000000000       0x34 /tmp/cc5jXrRB.debug.temp.o
 .debug_info    0x0000000000000000      0x49a /tmp/ccEMmkaj.debug.temp.o
 .debug_abbrev  0x0000000000000000      0x13e /tmp/ccEMmkaj.debug.temp.o
 .debug_line    0x0000000000000000       0xff /tmp/ccEMmkaj.debug.temp.o
 .debug_str     0x0000000000000000      0x4d0 /tmp/ccEMmkaj.debug.temp.o
 .comment       0x0000000000000000       0x34 /tmp/ccEMmkaj.debug.temp.o
 .debug_info    0x0000000000000000       0x72 /tmp/ccgmsmRF.debug.temp.o
 .debug_abbrev  0x0000000000000000       0x26 /tmp/ccgmsmRF.debug.temp.o
 .debug_line    0x0000000000000000       0x1e /tmp/ccgmsmRF.debug.temp.o
 .debug_str     0x0000000000000000      0x209 /tmp/ccgmsmRF.debug.temp.o
 .comment       0x0000000000000000       0x34 /tmp/ccgmsmRF.debug.temp.o
 .debug_info    0x0000000000000000       0x72 /tmp/ccHML2lH.debug.temp.o
 .debug_abbrev  0x0000000000000000       0x26 /tmp/ccHML2lH.debug.temp.o
 .debug_line    0x0000000000000000       0x1e /tmp/ccHML2lH.debug.temp.o
 .debug_str     0x0000000000000000      0x207 /tmp/ccHML2lH.debug.temp.o
 .comment       0x0000000000000000       0x34 /tmp/ccHML2lH.debug.temp.o
 .debug_info    0x0000000000000000       0x72 /tmp/ccJMFkvz.debug.temp.o
 .debug_abbrev  0x0000000000000000       0x26 /tmp/ccJMFkvz.debug.temp.o
 .debug_line    0x0000000000000000       0x1e /tmp/ccJMFkvz.debug.temp.o
 .debug_str     0x0000000000000000      0x207 /tmp/ccJMFkvz.debug.temp.o
 .comment       0x0000000000000000       0x34 /tmp/ccJMFkvz.debug.temp.o
 .debug_info    0x0000000000000000       0x72 /tmp/cchEO8jd.debug.temp.o
 .debug_abbrev  0x0000000000000000       0x26 /tmp/cchEO8jd.debug.temp.o
 .debug_line    0x0000000000000000       0x1e /tmp/cchEO8jd.debug.temp.o
 .debug_str     0x0000000000000000      0x20a /tmp/cchEO8jd.debug.temp.o
 .comment       0x0000000000000000       0x34 /tmp/cchEO8jd.debug.temp.o
 .debug_info    0x0000000000000000       0x72 /tmp/ccDTKQJR.debug.temp.o
 .debug_abbrev  0x0000000000000000       0x26 /tmp/ccDTKQJR.debug.temp.o
 .debug_line    0x0000000000000000       0x1e /tmp/ccDTKQJR.debug.temp.o
 .debug_str     0x0000000000000000      0x207 /tmp/ccDTKQJR.debug.temp.o
 .comment       0x0000000000000000       0x34 /tmp/ccDTKQJR.debug.temp.o
 .debug_info    0x0000000000000000       0x72 /tmp/cciFjzD0.debug.temp.o
 .debug_abbrev  0x0000000000000000       0x26 /tmp/cciFjzD0.debug.temp.o
 .debug_line    0x0000000000000000       0x1e /tmp/cciFjzD0.debug.temp.o
 .debug_str     0x0000000000000000      0x207 /tmp/cciFjzD0.debug.temp.o
 .comment       0x0000000000000000       0x34 /tmp/cciFjzD0.debug.temp.o
 .debug_info    0x0000000000000000       0x72 /tmp/ccYWugn8.debug.temp.o
 .debug_abbrev  0x0000000000000000       0x26 /tmp/ccYWugn8.debug.temp.o
 .debug_line    0x0000000000000000       0x1e /tmp/ccYWugn8.debug.temp.o
 .debug_str     0x0000000000000000      0x207 /tmp/ccYWugn8.debug.temp.o
 .comment       0x0000000000000000       0x34 /tmp/ccYWugn8.debug.temp.o
 .comment       0x0000000000000000       0x34 /tmp/ccah7oE4.debug.temp.o
 .debug_info    0x0000000000000000       0x72 /tmp/ccQ9KqI8.debug.temp.o
 .debug_abbrev  0x0000000000000000       0x26 /tmp/ccQ9KqI8.debug.temp.o
 .debug_line    0x0000000000000000       0x1e /tmp/ccQ9KqI8.debug.temp.o
 .debug_str     0x0000000000000000      0x207 /tmp/ccQ9KqI8.debug.temp.o
 .comment       0x0000000000000000       0x34 /tmp/ccQ9KqI8.debug.temp.o
 .debug_info    0x0000000000000000       0x72 /tmp/ccAVRz5q.debug.temp.o
 .debug_abbrev  0x0000000000000000       0x26 /tmp/ccAVRz5q.debug.temp.o
 .debug_line    0x0000000000000000       0x1e /tmp/ccAVRz5q.debug.temp.o
 .debug_str     0x0000000000000000      0x207 /tmp/ccAVRz5q.debug.temp.o
 .comment       0x0000000000000000       0x34 /tmp/ccAVRz5q.debug.temp.o
 .debug_info    0x0000000000000000       0x72 /tmp/ccmBW45C.debug.temp.o
 .debug_abbrev  0x0000000000000000       0x26 /tmp/ccmBW45C.debug.temp.o
 .debug_line    0x0000000000000000       0x1e /tmp/ccmBW45C.debug.temp.o
 .debug_str     0x0000000000000000      0x207 /tmp/ccmBW45C.debug.temp.o
 .comment       0x0000000000000000       0x34 /tmp/ccmBW45C.debug.temp.o
 .debug_info    0x0000000000000000       0x72 /tmp/cctHkjGq.debug.temp.o
 .debug_abbrev  0x0000000000000000       0x26 /tmp/cctHkjGq.debug.temp.o
 .debug_line    0x0000000000000000       0x1e /tmp/cctHkjGq.debug.temp.o
 .debug_str     0x0000000000000000      0x20b /tmp/cctHkjGq.debug.temp.o
 .comment       0x0000000000000000       0x34 /tmp/cctHkjGq.debug.temp.o
 .debug_info    0x0000000000000000      0x2be /tmp/cc0wH7Ww.debug.temp.o
 .debug_abbrev  0x0000000000000000      0x112 /tmp/cc0wH7Ww.debug.temp.o
 .debug_line    0x0000000000000000       0xeb /tmp/cc0wH7Ww.debug.temp.o
 .debug_str     0x0000000000000000      0x2db /tmp/cc0wH7Ww.debug.temp.o
 .comment       0x0000000000000000       0x34 /tmp/cc0wH7Ww.debug.temp.o
 .comment       0x0000000000000000       0x34 /tmp/ccX6H7ct.debug.temp.o
 .debug_info    0x0000000000000000       0x72 /tmp/ccce0NEG.debug.temp.o
 .debug_abbrev  0x0000000000000000       0x26 /tmp/ccce0NEG.debug.temp.o
 .debug_line    0x0000000000000000       0x1e /tmp/ccce0NEG.debug.temp.o
 .debug_str     0x0000000000000000      0x207 /tmp/ccce0NEG.debug.temp.o
 .comment       0x0000000000000000       0x34 /tmp/ccce0NEG.debug.temp.o
 .debug_info    0x0000000000000000       0x72 /tmp/ccfBbwDM.debug.temp.o
 .debug_abbrev  0x0000000000000000       0x26 /tmp/ccfBbwDM.debug.temp.o
 .debug_line    0x0000000000000000       0x1e /tmp/ccfBbwDM.debug.temp.o
 .debug_str     0x0000000000000000      0x207 /tmp/ccfBbwDM.debug.temp.o
 .comment       0x0000000000000000       0x34 /tmp/ccfBbwDM.debug.temp.o
 .comment       0x0000000000000000       0x34 /tmp/ccz6s2Yh.debug.temp.o
 .debug_info    0x0000000000000000       0x72 /tmp/cclBEy2O.debug.temp.o
 .debug_abbrev  0x0000000000000000       0x26 /tmp/cclBEy2O.debug.temp.o
 .debug_line    0x0000000000000000       0x1e /tmp/cclBEy2O.debug.temp.o
 .debug_str     0x0000000000000000      0x20e /tmp/cclBEy2O.debug.temp.o
 .comment       0x0000000000000000       0x34 /tmp/cclBEy2O.debug.temp.o
 .debug_info    0x0000000000000000       0x72 /tmp/ccigT6It.debug.temp.o
 .debug_abbrev  0x0000000000000000       0x26 /tmp/ccigT6It.debug.temp.o
 .debug_line    0x0000000000000000       0x1e /tmp/ccigT6It.debug.temp.o
 .debug_str     0x0000000000000000      0x207 /tmp/ccigT6It.debug.temp.o
 .comment       0x0000000000000000       0x34 /tmp/ccigT6It.debug.temp.o
 .debug_info    0x0000000000000000       0x72 /tmp/ccWhu9dI.debug.temp.o
 .debug_abbrev  0x0000000000000000       0x26 /tmp/ccWhu9dI.debug.temp.o
 .debug_line    0x0000000000000000       0x1e /tmp/ccWhu9dI.debug.temp.o
 .debug_str     0x0000000000000000      0x207 /tmp/ccWhu9dI.debug.temp.o
 .comment       0x0000000000000000       0x34 /tmp/ccWhu9dI.debug.temp.o
 .debug_info    0x0000000000000000       0x72 /tmp/ccg6VKF3.debug.temp.o
 .debug_abbrev  0x0000000000000000       0x26 /tmp/ccg6VKF3.debug.temp.o
 .debug_line    0x0000000000000000       0x1e /tmp/ccg6VKF3.debug.temp.o
 .debug_str     0x0000000000000000      0x208 /tmp/ccg6VKF3.debug.temp.o
 .comment       0x0000000000000000       0x34 /tmp/ccg6VKF3.debug.temp.o
 .debug_info    0x0000000000000000       0x72 /tmp/cc5Wep2z.debug.temp.o
 .debug_abbrev  0x0000000000000000       0x26 /tmp/cc5Wep2z.debug.temp.o
 .debug_line    0x0000000000000000       0x1e /tmp/cc5Wep2z.debug.temp.o
 .debug_str     0x0000000000000000      0x208 /tmp/cc5Wep2z.debug.temp.o
 .comment       0x0000000000000000       0x34 /tmp/cc5Wep2z.debug.temp.o
 .comment       0x0000000000000000       0x34 /tmp/ccPOKm0t.debug.temp.o
 .debug_info    0x0000000000000000       0x72 /tmp/ccvho23M.debug.temp.o
 .debug_abbrev  0x0000000000000000       0x26 /tmp/ccvho23M.debug.temp.o
 .debug_line    0x0000000000000000       0x1e /tmp/ccvho23M.debug.temp.o
 .debug_str     0x0000000000000000      0x207 /tmp/ccvho23M.debug.temp.o
 .comment       0x0000000000000000       0x34 /tmp/ccvho23M.debug.temp.o
 .debug_info    0x0000000000000000       0x72 /tmp/ccqEFQVk.debug.temp.o
 .debug_abbrev  0x0000000000000000       0x26 /tmp/ccqEFQVk.debug.temp.o
 .debug_line    0x0000000000000000       0x1e /tmp/ccqEFQVk.debug.temp.o
 .debug_str     0x0000000000000000      0x208 /tmp/ccqEFQVk.debug.temp.o
 .comment       0x0000000000000000       0x34 /tmp/ccqEFQVk.debug.temp.o
 .comment       0x0000000000000000       0x34 /tmp/cc8lT2nY.debug.temp.o
 .comment       0x0000000000000000       0x34 /tmp/ccLjXG4Y.debug.temp.o
 .comment       0x0000000000000000       0x34 /tmp/cc5XnyZZ.debug.temp.o
 .debug_info    0x0000000000000000       0x72 /tmp/ccYYLwxw.debug.temp.o
 .debug_abbrev  0x0000000000000000       0x26 /tmp/ccYYLwxw.debug.temp.o
 .debug_line    0x0000000000000000       0x1e /tmp/ccYYLwxw.debug.temp.o
 .debug_str     0x0000000000000000      0x21d /tmp/ccYYLwxw.debug.temp.o
 .comment       0x0000000000000000       0x34 /tmp/ccYYLwxw.debug.temp.o
 .debug_info    0x0000000000000000       0x72 /tmp/ccTLV4Bg.debug.temp.o
 .debug_abbrev  0x0000000000000000       0x26 /tmp/ccTLV4Bg.debug.temp.o
 .debug_line    0x0000000000000000       0x1e /tmp/ccTLV4Bg.debug.temp.o
 .debug_str     0x0000000000000000      0x21d /tmp/ccTLV4Bg.debug.temp.o
 .comment       0x0000000000000000       0x34 /tmp/ccTLV4Bg.debug.temp.o
 .debug_info    0x0000000000000000       0x72 /tmp/ccRKXPYb.debug.temp.o
 .debug_abbrev  0x0000000000000000       0x26 /tmp/ccRKXPYb.debug.temp.o
 .debug_line    0x0000000000000000       0x1e /tmp/ccRKXPYb.debug.temp.o
 .debug_str     0x0000000000000000      0x21d /tmp/ccRKXPYb.debug.temp.o
 .comment       0x0000000000000000       0x34 /tmp/ccRKXPYb.debug.temp.o
 .comment       0x0000000000000000       0x34 /tmp/ccVjpK5C.debug.temp.o
 .debug_info    0x0000000000000000       0x72 /tmp/cclQDPvW.debug.temp.o
 .debug_abbrev  0x0000000000000000       0x26 /tmp/cclQDPvW.debug.temp.o
 .debug_line    0x0000000000000000       0x1e /tmp/cclQDPvW.debug.temp.o
 .debug_str     0x0000000000000000      0x21d /tmp/cclQDPvW.debug.temp.o
 .comment       0x0000000000000000       0x34 /tmp/cclQDPvW.debug.temp.o
 .comment       0x0000000000000000       0x34 /tmp/cck1LmA3.debug.temp.o
 .comment       0x0000000000000000       0x34 /tmp/cc1Cuw1k.debug.temp.o
 .debug_info    0x0000000000000000       0x72 /tmp/ccmA7lrj.debug.temp.o
 .debug_abbrev  0x0000000000000000       0x26 /tmp/ccmA7lrj.debug.temp.o
 .debug_line    0x0000000000000000       0x1e /tmp/ccmA7lrj.debug.temp.o
 .debug_str     0x0000000000000000      0x21d /tmp/ccmA7lrj.debug.temp.o
 .comment       0x0000000000000000       0x34 /tmp/ccmA7lrj.debug.temp.o
 .debug_info    0x0000000000000000       0x72 /tmp/ccqEkoYC.debug.temp.o
 .debug_abbrev  0x0000000000000000       0x26 /tmp/ccqEkoYC.debug.temp.o
 .debug_line    0x0000000000000000       0x1e /tmp/ccqEkoYC.debug.temp.o
 .debug_str     0x0000000000000000      0x21d /tmp/ccqEkoYC.debug.temp.o
 .comment       0x0000000000000000       0x34 /tmp/ccqEkoYC.debug.temp.o
 .debug_info    0x0000000000000000       0x72 /tmp/ccyKAtAl.debug.temp.o
 .debug_abbrev  0x0000000000000000       0x26 /tmp/ccyKAtAl.debug.temp.o
 .debug_line    0x0000000000000000       0x1e /tmp/ccyKAtAl.debug.temp.o
 .debug_str     0x0000000000000000      0x21d /tmp/ccyKAtAl.debug.temp.o
 .comment       0x0000000000000000       0x34 /tmp/ccyKAtAl.debug.temp.o
 .comment       0x0000000000000000       0x34 /tmp/ccW0mz4b.debug.temp.o
 .debug_info    0x0000000000000000       0x72 /tmp/ccKvoIVc.debug.temp.o
 .debug_abbrev  0x0000000000000000       0x26 /tmp/ccKvoIVc.debug.temp.o
 .debug_line    0x0000000000000000       0x1e /tmp/ccKvoIVc.debug.temp.o
 .debug_str     0x0000000000000000      0x21d /tmp/ccKvoIVc.debug.temp.o
 .comment       0x0000000000000000       0x34 /tmp/ccKvoIVc.debug.temp.o
 .debug_info    0x0000000000000000       0x72 /tmp/ccgTypUb.debug.temp.o
 .debug_abbrev  0x0000000000000000       0x26 /tmp/ccgTypUb.debug.temp.o
 .debug_line    0x0000000000000000       0x1e /tmp/ccgTypUb.debug.temp.o
 .debug_str     0x0000000000000000      0x21d /tmp/ccgTypUb.debug.temp.o
 .comment       0x0000000000000000       0x34 /tmp/ccgTypUb.debug.temp.o
 .comment       0x0000000000000000       0x34 /tmp/ccc4Etus.debug.temp.o
 .comment       0x0000000000000000       0x34 /tmp/cckFgdT0.debug.temp.o
 .debug_info    0x0000000000000000       0x72 /tmp/ccYR3d7f.debug.temp.o
 .debug_abbrev  0x0000000000000000       0x26 /tmp/ccYR3d7f.debug.temp.o
 .debug_line    0x0000000000000000       0x1e /tmp/ccYR3d7f.debug.temp.o
 .debug_str     0x0000000000000000      0x220 /tmp/ccYR3d7f.debug.temp.o
 .comment       0x0000000000000000       0x34 /tmp/ccYR3d7f.debug.temp.o
 .comment       0x0000000000000000       0x34 /tmp/ccbZtz5z.debug.temp.o
 .debug_info    0x0000000000000000       0x72 /tmp/ccJKSs3w.debug.temp.o
 .debug_abbrev  0x0000000000000000       0x26 /tmp/ccJKSs3w.debug.temp.o
 .debug_line    0x0000000000000000       0x1e /tmp/ccJKSs3w.debug.temp.o
 .debug_str     0x0000000000000000      0x21e /tmp/ccJKSs3w.debug.temp.o
 .comment       0x0000000000000000       0x34 /tmp/ccJKSs3w.debug.temp.o
 .comment       0x0000000000000000       0x34 /tmp/ccLirZFJ.debug.temp.o
 .debug_info    0x0000000000000000      0x51b /tmp/cc1AuwI1.debug.temp.o
 .debug_abbrev  0x0000000000000000      0x1a6 /tmp/cc1AuwI1.debug.temp.o
 .debug_line    0x0000000000000000      0x121 /tmp/cc1AuwI1.debug.temp.o
 .debug_str     0x0000000000000000      0x390 /tmp/cc1AuwI1.debug.temp.o
 .comment       0x0000000000000000       0x34 /tmp/cc1AuwI1.debug.temp.o
 .debug_info    0x0000000000000000      0x2fc /tmp/ccznQ73N.debug.temp.o
 .debug_abbrev  0x0000000000000000      0x104 /tmp/ccznQ73N.debug.temp.o
 .debug_line    0x0000000000000000       0xdd /tmp/ccznQ73N.debug.temp.o
 .debug_str     0x0000000000000000      0x29d /tmp/ccznQ73N.debug.temp.o
 .comment       0x0000000000000000       0x34 /tmp/ccznQ73N.debug.temp.o
 .debug_info    0x0000000000000000      0x26a /tmp/ccFcObJC.debug.temp.o
 .debug_abbrev  0x0000000000000000      0x108 /tmp/ccFcObJC.debug.temp.o
 .debug_line    0x0000000000000000       0xdf /tmp/ccFcObJC.debug.temp.o
 .debug_str     0x0000000000000000      0x280 /tmp/ccFcObJC.debug.temp.o
 .comment       0x0000000000000000       0x34 /tmp/ccFcObJC.debug.temp.o
 .comment       0x0000000000000000       0x34 /tmp/ccu3Li40.debug.temp.o
 .comment       0x0000000000000000       0x34 /tmp/cciJ5IA3.debug.temp.o
 .debug_info    0x0000000000000000       0x72 /tmp/ccrnNp7Z.debug.temp.o
 .debug_abbrev  0x0000000000000000       0x26 /tmp/ccrnNp7Z.debug.temp.o
 .debug_line    0x0000000000000000       0x1e /tmp/ccrnNp7Z.debug.temp.o
 .debug_str     0x0000000000000000      0x205 /tmp/ccrnNp7Z.debug.temp.o
 .comment       0x0000000000000000       0x34 /tmp/ccrnNp7Z.debug.temp.o
 .text          0x0000000000000000        0x0 .build/obj_karlk90_yaemk_moonlanderlike/i2c_master.a(i2c_master.o)
 .data          0x0000000000000000        0x0 .build/obj_karlk90_yaemk_moonlanderlike/i2c_master.a(i2c_master.o)
 .bss           0x0000000000000000        0x0 .build/obj_karlk90_yaemk_moonlanderlike/i2c_master.a(i2c_master.o)
 .text.i2c_start
                0x0000000000000000       0x20 .build/obj_karlk90_yaemk_moonlanderlike/i2c_master.a(i2c_master.o)
 .text.i2c_writeReg16
                0x0000000000000000       0xa0 .build/obj_karlk90_yaemk_moonlanderlike/i2c_master.a(i2c_master.o)
 .text.i2c_readReg
                0x0000000000000000       0x6c .build/obj_karlk90_yaemk_moonlanderlike/i2c_master.a(i2c_master.o)
 .text.i2c_readReg16
                0x0000000000000000       0x7c .build/obj_karlk90_yaemk_moonlanderlike/i2c_master.a(i2c_master.o)
 .text.i2c_stop
                0x0000000000000000        0xc .build/obj_karlk90_yaemk_moonlanderlike/i2c_master.a(i2c_master.o)
 .text          0x0000000000000000        0x0 .build/obj_karlk90_yaemk_moonlanderlike/serial_usart.a(serial_usart.o)
 .data          0x0000000000000000        0x0 .build/obj_karlk90_yaemk_moonlanderlike/serial_usart.a(serial_usart.o)
 .bss           0x0000000000000000        0x0 .build/obj_karlk90_yaemk_moonlanderlike/serial_usart.a(serial_usart.o)
 .data          0x0000000000000000        0x0 .build/obj_karlk90_yaemk_moonlanderlike/./lib/chibios/os/common/startup/ARMCMx/compilers/GCC/crt0_v7m.o
 .bss           0x0000000000000000        0x0 .build/obj_karlk90_yaemk_moonlanderlike/./lib/chibios/os/common/startup/ARMCMx/compilers/GCC/crt0_v7m.o
 .data          0x0000000000000000        0x0 .build/obj_karlk90_yaemk_moonlanderlike/./lib/chibios/os/common/startup/ARMCMx/compilers/GCC/vectors.o
 .bss           0x0000000000000000        0x0 .build/obj_karlk90_yaemk_moonlanderlike/./lib/chibios/os/common/startup/ARMCMx/compilers/GCC/vectors.o
 .data          0x0000000000000000        0x0 .build/obj_karlk90_yaemk_moonlanderlike/./lib/chibios/os/common/ports/ARMCMx/compilers/GCC/chcoreasm_v7m.o
 .bss           0x0000000000000000        0x0 .build/obj_karlk90_yaemk_moonlanderlike/./lib/chibios/os/common/ports/ARMCMx/compilers/GCC/chcoreasm_v7m.o
 .text          0x0000000000000000       0xa0 /usr/lib/gcc/arm-none-eabi/10.3.1/thumb/v7e-m+fp/hard/libgcc.a(_aeabi_ldivmod.o)
 .data          0x0000000000000000        0x0 /usr/lib/gcc/arm-none-eabi/10.3.1/thumb/v7e-m+fp/hard/libgcc.a(_aeabi_ldivmod.o)
 .bss           0x0000000000000000        0x0 /usr/lib/gcc/arm-none-eabi/10.3.1/thumb/v7e-m+fp/hard/libgcc.a(_aeabi_ldivmod.o)
 .debug_line    0x0000000000000000       0x7e /usr/lib/gcc/arm-none-eabi/10.3.1/thumb/v7e-m+fp/hard/libgcc.a(_aeabi_ldivmod.o)
 .debug_info    0x0000000000000000       0x26 /usr/lib/gcc/arm-none-eabi/10.3.1/thumb/v7e-m+fp/hard/libgcc.a(_aeabi_ldivmod.o)
 .debug_abbrev  0x0000000000000000       0x14 /usr/lib/gcc/arm-none-eabi/10.3.1/thumb/v7e-m+fp/hard/libgcc.a(_aeabi_ldivmod.o)
 .debug_aranges
                0x0000000000000000       0x20 /usr/lib/gcc/arm-none-eabi/10.3.1/thumb/v7e-m+fp/hard/libgcc.a(_aeabi_ldivmod.o)
 .debug_str     0x0000000000000000       0xa6 /usr/lib/gcc/arm-none-eabi/10.3.1/thumb/v7e-m+fp/hard/libgcc.a(_aeabi_ldivmod.o)
 .debug_frame   0x0000000000000000       0x44 /usr/lib/gcc/arm-none-eabi/10.3.1/thumb/v7e-m+fp/hard/libgcc.a(_aeabi_ldivmod.o)
 .ARM.attributes
                0x0000000000000000       0x1e /usr/lib/gcc/arm-none-eabi/10.3.1/thumb/v7e-m+fp/hard/libgcc.a(_aeabi_ldivmod.o)
 .data          0x0000000000000000        0x0 /usr/lib/gcc/arm-none-eabi/10.3.1/thumb/v7e-m+fp/hard/libgcc.a(_aeabi_uldivmod.o)
 .bss           0x0000000000000000        0x0 /usr/lib/gcc/arm-none-eabi/10.3.1/thumb/v7e-m+fp/hard/libgcc.a(_aeabi_uldivmod.o)
 .data          0x0000000000000000        0x0 /usr/lib/gcc/arm-none-eabi/10.3.1/thumb/v7e-m+fp/hard/libgcc.a(_udivmoddi4.o)
 .bss           0x0000000000000000        0x0 /usr/lib/gcc/arm-none-eabi/10.3.1/thumb/v7e-m+fp/hard/libgcc.a(_udivmoddi4.o)
 .ARM.extab     0x0000000000000000        0x0 /usr/lib/gcc/arm-none-eabi/10.3.1/thumb/v7e-m+fp/hard/libgcc.a(_udivmoddi4.o)
 .data          0x0000000000000000        0x0 /usr/lib/gcc/arm-none-eabi/10.3.1/thumb/v7e-m+fp/hard/libgcc.a(_dvmd_tls.o)
 .bss           0x0000000000000000        0x0 /usr/lib/gcc/arm-none-eabi/10.3.1/thumb/v7e-m+fp/hard/libgcc.a(_dvmd_tls.o)
 .text          0x0000000000000000        0x0 /usr/lib/gcc/arm-none-eabi/10.3.1/../../../arm-none-eabi/lib/thumb/v7e-m+fp/hard/libg_nano.a(lib_a-ctype_.o)
 .data          0x0000000000000000        0x0 /usr/lib/gcc/arm-none-eabi/10.3.1/../../../arm-none-eabi/lib/thumb/v7e-m+fp/hard/libg_nano.a(lib_a-ctype_.o)
 .bss           0x0000000000000000        0x0 /usr/lib/gcc/arm-none-eabi/10.3.1/../../../arm-none-eabi/lib/thumb/v7e-m+fp/hard/libg_nano.a(lib_a-ctype_.o)
 .text          0x0000000000000000        0xc /usr/lib/gcc/arm-none-eabi/10.3.1/../../../arm-none-eabi/lib/thumb/v7e-m+fp/hard/libg_nano.a(lib_a-errno.o)
 .data          0x0000000000000000        0x0 /usr/lib/gcc/arm-none-eabi/10.3.1/../../../arm-none-eabi/lib/thumb/v7e-m+fp/hard/libg_nano.a(lib_a-errno.o)
 .bss           0x0000000000000000        0x0 /usr/lib/gcc/arm-none-eabi/10.3.1/../../../arm-none-eabi/lib/thumb/v7e-m+fp/hard/libg_nano.a(lib_a-errno.o)
 .debug_info    0x0000000000000000      0x7ae /usr/lib/gcc/arm-none-eabi/10.3.1/../../../arm-none-eabi/lib/thumb/v7e-m+fp/hard/libg_nano.a(lib_a-errno.o)
 .debug_abbrev  0x0000000000000000      0x157 /usr/lib/gcc/arm-none-eabi/10.3.1/../../../arm-none-eabi/lib/thumb/v7e-m+fp/hard/libg_nano.a(lib_a-errno.o)
 .debug_aranges
                0x0000000000000000       0x20 /usr/lib/gcc/arm-none-eabi/10.3.1/../../../arm-none-eabi/lib/thumb/v7e-m+fp/hard/libg_nano.a(lib_a-errno.o)
 .debug_line    0x0000000000000000      0x109 /usr/lib/gcc/arm-none-eabi/10.3.1/../../../arm-none-eabi/lib/thumb/v7e-m+fp/hard/libg_nano.a(lib_a-errno.o)
 .debug_str     0x0000000000000000      0x507 /usr/lib/gcc/arm-none-eabi/10.3.1/../../../arm-none-eabi/lib/thumb/v7e-m+fp/hard/libg_nano.a(lib_a-errno.o)
 .comment       0x0000000000000000       0x34 /usr/lib/gcc/arm-none-eabi/10.3.1/../../../arm-none-eabi/lib/thumb/v7e-m+fp/hard/libg_nano.a(lib_a-errno.o)
 .debug_frame   0x0000000000000000       0x20 /usr/lib/gcc/arm-none-eabi/10.3.1/../../../arm-none-eabi/lib/thumb/v7e-m+fp/hard/libg_nano.a(lib_a-errno.o)
 .ARM.attributes
                0x0000000000000000       0x34 /usr/lib/gcc/arm-none-eabi/10.3.1/../../../arm-none-eabi/lib/thumb/v7e-m+fp/hard/libg_nano.a(lib_a-errno.o)
 .text          0x0000000000000000        0x0 /usr/lib/gcc/arm-none-eabi/10.3.1/../../../arm-none-eabi/lib/thumb/v7e-m+fp/hard/libg_nano.a(lib_a-impure.o)
 .bss           0x0000000000000000        0x0 /usr/lib/gcc/arm-none-eabi/10.3.1/../../../arm-none-eabi/lib/thumb/v7e-m+fp/hard/libg_nano.a(lib_a-impure.o)
 .data          0x0000000000000000        0x0 /usr/lib/gcc/arm-none-eabi/10.3.1/../../../arm-none-eabi/lib/thumb/v7e-m+fp/hard/libg_nano.a(lib_a-memcpy.o)
 .bss           0x0000000000000000        0x0 /usr/lib/gcc/arm-none-eabi/10.3.1/../../../arm-none-eabi/lib/thumb/v7e-m+fp/hard/libg_nano.a(lib_a-memcpy.o)
 .data          0x0000000000000000        0x0 /usr/lib/gcc/arm-none-eabi/10.3.1/../../../arm-none-eabi/lib/thumb/v7e-m+fp/hard/libg_nano.a(lib_a-rand.o)
 .bss           0x0000000000000000        0x0 /usr/lib/gcc/arm-none-eabi/10.3.1/../../../arm-none-eabi/lib/thumb/v7e-m+fp/hard/libg_nano.a(lib_a-rand.o)
 .data          0x0000000000000000        0x0 /usr/lib/gcc/arm-none-eabi/10.3.1/../../../arm-none-eabi/lib/thumb/v7e-m+fp/hard/libg_nano.a(lib_a-assert.o)
 .bss           0x0000000000000000        0x0 /usr/lib/gcc/arm-none-eabi/10.3.1/../../../arm-none-eabi/lib/thumb/v7e-m+fp/hard/libg_nano.a(lib_a-assert.o)
 .data          0x0000000000000000        0x0 /usr/lib/gcc/arm-none-eabi/10.3.1/../../../arm-none-eabi/lib/thumb/v7e-m+fp/hard/libg_nano.a(lib_a-fprintf.o)
 .bss           0x0000000000000000        0x0 /usr/lib/gcc/arm-none-eabi/10.3.1/../../../arm-none-eabi/lib/thumb/v7e-m+fp/hard/libg_nano.a(lib_a-fprintf.o)
 .data          0x0000000000000000        0x0 /usr/lib/gcc/arm-none-eabi/10.3.1/../../../arm-none-eabi/lib/thumb/v7e-m+fp/hard/libg_nano.a(lib_a-malloc.o)
 .bss           0x0000000000000000        0x0 /usr/lib/gcc/arm-none-eabi/10.3.1/../../../arm-none-eabi/lib/thumb/v7e-m+fp/hard/libg_nano.a(lib_a-malloc.o)
 .data          0x0000000000000000        0x0 /usr/lib/gcc/arm-none-eabi/10.3.1/../../../arm-none-eabi/lib/thumb/v7e-m+fp/hard/libg_nano.a(lib_a-nano-freer.o)
 .bss           0x0000000000000000        0x0 /usr/lib/gcc/arm-none-eabi/10.3.1/../../../arm-none-eabi/lib/thumb/v7e-m+fp/hard/libg_nano.a(lib_a-nano-freer.o)
 .data          0x0000000000000000        0x0 /usr/lib/gcc/arm-none-eabi/10.3.1/../../../arm-none-eabi/lib/thumb/v7e-m+fp/hard/libg_nano.a(lib_a-nano-mallocr.o)
 .data          0x0000000000000000        0x0 /usr/lib/gcc/arm-none-eabi/10.3.1/../../../arm-none-eabi/lib/thumb/v7e-m+fp/hard/libg_nano.a(lib_a-nano-vfprintf.o)
 .bss           0x0000000000000000        0x0 /usr/lib/gcc/arm-none-eabi/10.3.1/../../../arm-none-eabi/lib/thumb/v7e-m+fp/hard/libg_nano.a(lib_a-nano-vfprintf.o)
 .data          0x0000000000000000        0x0 /usr/lib/gcc/arm-none-eabi/10.3.1/../../../arm-none-eabi/lib/thumb/v7e-m+fp/hard/libg_nano.a(lib_a-nano-vfprintf_i.o)
 .bss           0x0000000000000000        0x0 /usr/lib/gcc/arm-none-eabi/10.3.1/../../../arm-none-eabi/lib/thumb/v7e-m+fp/hard/libg_nano.a(lib_a-nano-vfprintf_i.o)
 .data          0x0000000000000000        0x0 /usr/lib/gcc/arm-none-eabi/10.3.1/../../../arm-none-eabi/lib/thumb/v7e-m+fp/hard/libg_nano.a(lib_a-wbuf.o)
 .bss           0x0000000000000000        0x0 /usr/lib/gcc/arm-none-eabi/10.3.1/../../../arm-none-eabi/lib/thumb/v7e-m+fp/hard/libg_nano.a(lib_a-wbuf.o)
 .data          0x0000000000000000        0x0 /usr/lib/gcc/arm-none-eabi/10.3.1/../../../arm-none-eabi/lib/thumb/v7e-m+fp/hard/libg_nano.a(lib_a-wsetup.o)
 .bss           0x0000000000000000        0x0 /usr/lib/gcc/arm-none-eabi/10.3.1/../../../arm-none-eabi/lib/thumb/v7e-m+fp/hard/libg_nano.a(lib_a-wsetup.o)
 .data          0x0000000000000000        0x0 /usr/lib/gcc/arm-none-eabi/10.3.1/../../../arm-none-eabi/lib/thumb/v7e-m+fp/hard/libg_nano.a(lib_a-abort.o)
 .bss           0x0000000000000000        0x0 /usr/lib/gcc/arm-none-eabi/10.3.1/../../../arm-none-eabi/lib/thumb/v7e-m+fp/hard/libg_nano.a(lib_a-abort.o)
 .data          0x0000000000000000        0x0 /usr/lib/gcc/arm-none-eabi/10.3.1/../../../arm-none-eabi/lib/thumb/v7e-m+fp/hard/libg_nano.a(lib_a-fflush.o)
 .bss           0x0000000000000000        0x0 /usr/lib/gcc/arm-none-eabi/10.3.1/../../../arm-none-eabi/lib/thumb/v7e-m+fp/hard/libg_nano.a(lib_a-fflush.o)
 .data          0x0000000000000000        0x0 /usr/lib/gcc/arm-none-eabi/10.3.1/../../../arm-none-eabi/lib/thumb/v7e-m+fp/hard/libg_nano.a(lib_a-findfp.o)
 .bss           0x0000000000000000        0x0 /usr/lib/gcc/arm-none-eabi/10.3.1/../../../arm-none-eabi/lib/thumb/v7e-m+fp/hard/libg_nano.a(lib_a-findfp.o)
 .data          0x0000000000000000        0x0 /usr/lib/gcc/arm-none-eabi/10.3.1/../../../arm-none-eabi/lib/thumb/v7e-m+fp/hard/libg_nano.a(lib_a-fvwrite.o)
 .bss           0x0000000000000000        0x0 /usr/lib/gcc/arm-none-eabi/10.3.1/../../../arm-none-eabi/lib/thumb/v7e-m+fp/hard/libg_nano.a(lib_a-fvwrite.o)
 .data          0x0000000000000000        0x0 /usr/lib/gcc/arm-none-eabi/10.3.1/../../../arm-none-eabi/lib/thumb/v7e-m+fp/hard/libg_nano.a(lib_a-fwalk.o)
 .bss           0x0000000000000000        0x0 /usr/lib/gcc/arm-none-eabi/10.3.1/../../../arm-none-eabi/lib/thumb/v7e-m+fp/hard/libg_nano.a(lib_a-fwalk.o)
 .data          0x0000000000000000        0x0 /usr/lib/gcc/arm-none-eabi/10.3.1/../../../arm-none-eabi/lib/thumb/v7e-m+fp/hard/libg_nano.a(lib_a-makebuf.o)
 .bss           0x0000000000000000        0x0 /usr/lib/gcc/arm-none-eabi/10.3.1/../../../arm-none-eabi/lib/thumb/v7e-m+fp/hard/libg_nano.a(lib_a-makebuf.o)
 .data          0x0000000000000000        0x0 /usr/lib/gcc/arm-none-eabi/10.3.1/../../../arm-none-eabi/lib/thumb/v7e-m+fp/hard/libg_nano.a(lib_a-memchr.o)
 .bss           0x0000000000000000        0x0 /usr/lib/gcc/arm-none-eabi/10.3.1/../../../arm-none-eabi/lib/thumb/v7e-m+fp/hard/libg_nano.a(lib_a-memchr.o)
 .data          0x0000000000000000        0x0 /usr/lib/gcc/arm-none-eabi/10.3.1/../../../arm-none-eabi/lib/thumb/v7e-m+fp/hard/libg_nano.a(lib_a-memmove.o)
 .bss           0x0000000000000000        0x0 /usr/lib/gcc/arm-none-eabi/10.3.1/../../../arm-none-eabi/lib/thumb/v7e-m+fp/hard/libg_nano.a(lib_a-memmove.o)
 .data          0x0000000000000000        0x0 /usr/lib/gcc/arm-none-eabi/10.3.1/../../../arm-none-eabi/lib/thumb/v7e-m+fp/hard/libg_nano.a(lib_a-memset.o)
 .bss           0x0000000000000000        0x0 /usr/lib/gcc/arm-none-eabi/10.3.1/../../../arm-none-eabi/lib/thumb/v7e-m+fp/hard/libg_nano.a(lib_a-memset.o)
 .data          0x0000000000000000        0x0 /usr/lib/gcc/arm-none-eabi/10.3.1/../../../arm-none-eabi/lib/thumb/v7e-m+fp/hard/libg_nano.a(lib_a-mlock.o)
 .bss           0x0000000000000000        0x0 /usr/lib/gcc/arm-none-eabi/10.3.1/../../../arm-none-eabi/lib/thumb/v7e-m+fp/hard/libg_nano.a(lib_a-mlock.o)
 .data          0x0000000000000000        0x0 /usr/lib/gcc/arm-none-eabi/10.3.1/../../../arm-none-eabi/lib/thumb/v7e-m+fp/hard/libg_nano.a(lib_a-nano-reallocr.o)
 .bss           0x0000000000000000        0x0 /usr/lib/gcc/arm-none-eabi/10.3.1/../../../arm-none-eabi/lib/thumb/v7e-m+fp/hard/libg_nano.a(lib_a-nano-reallocr.o)
 .data          0x0000000000000000        0x0 /usr/lib/gcc/arm-none-eabi/10.3.1/../../../arm-none-eabi/lib/thumb/v7e-m+fp/hard/libg_nano.a(lib_a-signal.o)
 .bss           0x0000000000000000        0x0 /usr/lib/gcc/arm-none-eabi/10.3.1/../../../arm-none-eabi/lib/thumb/v7e-m+fp/hard/libg_nano.a(lib_a-signal.o)
 .data          0x0000000000000000        0x0 /usr/lib/gcc/arm-none-eabi/10.3.1/../../../arm-none-eabi/lib/thumb/v7e-m+fp/hard/libg_nano.a(lib_a-signalr.o)
 .bss           0x0000000000000000        0x0 /usr/lib/gcc/arm-none-eabi/10.3.1/../../../arm-none-eabi/lib/thumb/v7e-m+fp/hard/libg_nano.a(lib_a-signalr.o)
 .data          0x0000000000000000        0x0 /usr/lib/gcc/arm-none-eabi/10.3.1/../../../arm-none-eabi/lib/thumb/v7e-m+fp/hard/libg_nano.a(lib_a-stdio.o)
 .bss           0x0000000000000000        0x0 /usr/lib/gcc/arm-none-eabi/10.3.1/../../../arm-none-eabi/lib/thumb/v7e-m+fp/hard/libg_nano.a(lib_a-stdio.o)
 .data          0x0000000000000000        0x0 /usr/lib/gcc/arm-none-eabi/10.3.1/../../../arm-none-eabi/lib/thumb/v7e-m+fp/hard/libg_nano.a(lib_a-nano-msizer.o)
 .bss           0x0000000000000000        0x0 /usr/lib/gcc/arm-none-eabi/10.3.1/../../../arm-none-eabi/lib/thumb/v7e-m+fp/hard/libg_nano.a(lib_a-nano-msizer.o)
 .text          0x0000000000000000      0x114 /usr/lib/gcc/arm-none-eabi/10.3.1/../../../arm-none-eabi/lib/thumb/v7e-m+fp/hard/libg_nano.a(lib_a-reent.o)
 .data          0x0000000000000000        0x0 /usr/lib/gcc/arm-none-eabi/10.3.1/../../../arm-none-eabi/lib/thumb/v7e-m+fp/hard/libg_nano.a(lib_a-reent.o)
 .data          0x0000000000000000        0x0 /usr/lib/gcc/arm-none-eabi/10.3.1/../../../arm-none-eabi/lib/thumb/v7e-m+fp/hard/libg_nano.a(lib_a-memcmp.o)
 .bss           0x0000000000000000        0x0 /usr/lib/gcc/arm-none-eabi/10.3.1/../../../arm-none-eabi/lib/thumb/v7e-m+fp/hard/libg_nano.a(lib_a-memcmp.o)
 .data          0x0000000000000000        0x0 /usr/lib/gcc/arm-none-eabi/10.3.1/../../../arm-none-eabi/lib/thumb/v7e-m+fp/hard/libg_nano.a(lib_a-strlen.o)
 .bss           0x0000000000000000        0x0 /usr/lib/gcc/arm-none-eabi/10.3.1/../../../arm-none-eabi/lib/thumb/v7e-m+fp/hard/libg_nano.a(lib_a-strlen.o)

Memory Configuration

Name             Origin             Length             Attributes
flash0           0x0000000008000000 0x0000000000040000 xr
flash1           0x0000000000000000 0x0000000000000000 xr
flash2           0x0000000000000000 0x0000000000000000 xr
flash3           0x0000000000000000 0x0000000000000000 xr
flash4           0x0000000000000000 0x0000000000000000 xr
flash5           0x0000000000000000 0x0000000000000000 xr
flash6           0x0000000000000000 0x0000000000000000 xr
flash7           0x0000000000000000 0x0000000000000000 xr
ram0             0x0000000020000000 0x000000000000a000 xw
ram1             0x0000000000000000 0x0000000000000000 xw
ram2             0x0000000000000000 0x0000000000000000 xw
ram3             0x0000000000000000 0x0000000000000000 xw
ram4             0x0000000010000000 0x0000000000002000 xw
ram5             0x0000000000000000 0x0000000000000000 xw
ram6             0x0000000000000000 0x0000000000000000 xw
ram7             0x0000000000000000 0x0000000000000000 xw
*default*        0x0000000000000000 0xffffffffffffffff

Linker script and memory map

LOAD .build/obj_karlk90_yaemk_moonlanderlike/led_config.o
LOAD /tmp/karlk90_yaemk_moonlanderlike.elf.XW0OFi.ltrans0.ltrans.o
LOAD /tmp/karlk90_yaemk_moonlanderlike.elf.XW0OFi.ltrans1.ltrans.o
LOAD /tmp/ccfnEjuh.debug.temp.o
LOAD /tmp/cc0I4f7X.debug.temp.o
LOAD /tmp/cclModur.debug.temp.o
LOAD /tmp/cctRlNqi.debug.temp.o
LOAD /tmp/ccW91Jhp.debug.temp.o
LOAD /tmp/cc1n2tj8.debug.temp.o
LOAD /tmp/ccQek5tM.debug.temp.o
LOAD /tmp/ccy2zO6v.debug.temp.o
LOAD /tmp/ccOBaQrD.debug.temp.o
LOAD /tmp/ccByYric.debug.temp.o
LOAD /tmp/ccpalqtk.debug.temp.o
LOAD /tmp/cc90lmnB.debug.temp.o
LOAD /tmp/ccGI6wID.debug.temp.o
LOAD /tmp/ccncmTqY.debug.temp.o
LOAD /tmp/cc14VErq.debug.temp.o
LOAD /tmp/ccJHiYPW.debug.temp.o
LOAD /tmp/ccs3fqN1.debug.temp.o
LOAD /tmp/ccQRN3Wo.debug.temp.o
LOAD /tmp/ccmAVrlH.debug.temp.o
LOAD /tmp/ccDHRplC.debug.temp.o
LOAD /tmp/ccKbKh4E.debug.temp.o
LOAD /tmp/ccKwh0z5.debug.temp.o
LOAD /tmp/cckzIpwo.debug.temp.o
LOAD /tmp/ccGzjP0w.debug.temp.o
LOAD /tmp/ccXB4Az0.debug.temp.o
LOAD /tmp/ccS614w6.debug.temp.o
LOAD /tmp/cc7Z7BLY.debug.temp.o
LOAD /tmp/cc1oeOTg.debug.temp.o
LOAD /tmp/cclqFKnx.debug.temp.o
LOAD /tmp/ccV71jLk.debug.temp.o
LOAD /tmp/ccSb3YlV.debug.temp.o
LOAD /tmp/ccLgSN5x.debug.temp.o
LOAD /tmp/ccYm6amU.debug.temp.o
LOAD /tmp/ccV2JrjB.debug.temp.o
LOAD /tmp/ccQzfpqF.debug.temp.o
LOAD /tmp/ccvrKOHP.debug.temp.o
LOAD /tmp/ccvsftI7.debug.temp.o
LOAD /tmp/ccNwn336.debug.temp.o
LOAD /tmp/ccS4oibQ.debug.temp.o
LOAD /tmp/cc9usVWf.debug.temp.o
LOAD /tmp/ccDQrsNj.debug.temp.o
LOAD /tmp/cc4TrJZZ.debug.temp.o
LOAD /tmp/ccnqM8Lz.debug.temp.o
LOAD /tmp/ccXHZlTu.debug.temp.o
LOAD /tmp/cc2w2gDW.debug.temp.o
LOAD /tmp/ccf7tNaY.debug.temp.o
LOAD /tmp/ccEP9BKn.debug.temp.o
LOAD /tmp/ccm3qksS.debug.temp.o
LOAD /tmp/ccN3fR2P.debug.temp.o
LOAD /tmp/ccp41CVD.debug.temp.o
LOAD /tmp/ccam8VBf.debug.temp.o
LOAD /tmp/ccNdgF9w.debug.temp.o
LOAD /tmp/ccqNl00u.debug.temp.o
LOAD /tmp/ccu1coHQ.debug.temp.o
LOAD /tmp/cczSDEhq.debug.temp.o
LOAD /tmp/ccEcDonF.debug.temp.o
LOAD /tmp/ccCQ8m0z.debug.temp.o
LOAD /tmp/ccZjDjB6.debug.temp.o
LOAD /tmp/ccQxHeRz.debug.temp.o
LOAD /tmp/ccJefRjC.debug.temp.o
LOAD /tmp/ccfphpFF.debug.temp.o
LOAD /tmp/ccVttbpz.debug.temp.o
LOAD /tmp/cc4mht7u.debug.temp.o
LOAD /tmp/ccpJSHAY.debug.temp.o
LOAD /tmp/ccoFtdrQ.debug.temp.o
LOAD /tmp/ccRcYMk1.debug.temp.o
LOAD /tmp/ccmXFPTE.debug.temp.o
LOAD /tmp/ccdKJVl4.debug.temp.o
LOAD /tmp/ccgVkbea.debug.temp.o
LOAD /tmp/ccg7baGU.debug.temp.o
LOAD /tmp/ccnMlElZ.debug.temp.o
LOAD /tmp/ccQytxMT.debug.temp.o
LOAD /tmp/ccp7JPEI.debug.temp.o
LOAD /tmp/ccP2vrAQ.debug.temp.o
LOAD /tmp/ccl8lVpT.debug.temp.o
LOAD /tmp/cczusIdJ.debug.temp.o
LOAD /tmp/ccQHHhYP.debug.temp.o
LOAD /tmp/ccIiNeEE.debug.temp.o
LOAD /tmp/ccPDrbvp.debug.temp.o
LOAD /tmp/ccjgVyNu.debug.temp.o
LOAD /tmp/ccNwgW33.debug.temp.o
LOAD /tmp/ccFBVBaf.debug.temp.o
LOAD /tmp/cc8jRkpf.debug.temp.o
LOAD /tmp/ccqpTBta.debug.temp.o
LOAD /tmp/cc5DI4mx.debug.temp.o
LOAD /tmp/ccGUYIde.debug.temp.o
LOAD /tmp/ccstMr4o.debug.temp.o
LOAD /tmp/ccC350TJ.debug.temp.o
LOAD /tmp/ccUQnoNd.debug.temp.o
LOAD /tmp/ccTJ2Y4W.debug.temp.o
LOAD /tmp/ccwq0AC1.debug.temp.o
LOAD /tmp/ccbaU3nc.debug.temp.o
LOAD /tmp/cc5jXrRB.debug.temp.o
LOAD /tmp/ccEMmkaj.debug.temp.o
LOAD /tmp/ccgmsmRF.debug.temp.o
LOAD /tmp/ccHML2lH.debug.temp.o
LOAD /tmp/ccJMFkvz.debug.temp.o
LOAD /tmp/cchEO8jd.debug.temp.o
LOAD /tmp/ccDTKQJR.debug.temp.o
LOAD /tmp/cciFjzD0.debug.temp.o
LOAD /tmp/ccYWugn8.debug.temp.o
LOAD /tmp/ccah7oE4.debug.temp.o
LOAD /tmp/ccQ9KqI8.debug.temp.o
LOAD /tmp/ccAVRz5q.debug.temp.o
LOAD /tmp/ccmBW45C.debug.temp.o
LOAD /tmp/cctHkjGq.debug.temp.o
LOAD /tmp/cc0wH7Ww.debug.temp.o
LOAD /tmp/ccX6H7ct.debug.temp.o
LOAD /tmp/ccce0NEG.debug.temp.o
LOAD /tmp/ccfBbwDM.debug.temp.o
LOAD /tmp/ccz6s2Yh.debug.temp.o
LOAD /tmp/cclBEy2O.debug.temp.o
LOAD /tmp/ccigT6It.debug.temp.o
LOAD /tmp/ccWhu9dI.debug.temp.o
LOAD /tmp/ccg6VKF3.debug.temp.o
LOAD /tmp/cc5Wep2z.debug.temp.o
LOAD /tmp/ccPOKm0t.debug.temp.o
LOAD /tmp/ccvho23M.debug.temp.o
LOAD /tmp/ccqEFQVk.debug.temp.o
LOAD /tmp/cc8lT2nY.debug.temp.o
LOAD /tmp/ccLjXG4Y.debug.temp.o
LOAD /tmp/cc5XnyZZ.debug.temp.o
LOAD /tmp/ccYYLwxw.debug.temp.o
LOAD /tmp/ccTLV4Bg.debug.temp.o
LOAD /tmp/ccRKXPYb.debug.temp.o
LOAD /tmp/ccVjpK5C.debug.temp.o
LOAD /tmp/cclQDPvW.debug.temp.o
LOAD /tmp/cck1LmA3.debug.temp.o
LOAD /tmp/cc1Cuw1k.debug.temp.o
LOAD /tmp/ccmA7lrj.debug.temp.o
LOAD /tmp/ccqEkoYC.debug.temp.o
LOAD /tmp/ccyKAtAl.debug.temp.o
LOAD /tmp/ccW0mz4b.debug.temp.o
LOAD /tmp/ccKvoIVc.debug.temp.o
LOAD /tmp/ccgTypUb.debug.temp.o
LOAD /tmp/ccc4Etus.debug.temp.o
LOAD /tmp/cckFgdT0.debug.temp.o
LOAD /tmp/ccYR3d7f.debug.temp.o
LOAD /tmp/ccbZtz5z.debug.temp.o
LOAD /tmp/ccJKSs3w.debug.temp.o
LOAD /tmp/ccLirZFJ.debug.temp.o
LOAD /tmp/cc1AuwI1.debug.temp.o
LOAD /tmp/ccznQ73N.debug.temp.o
LOAD /tmp/ccFcObJC.debug.temp.o
LOAD /tmp/ccu3Li40.debug.temp.o
LOAD /tmp/cciJ5IA3.debug.temp.o
LOAD /tmp/ccrnNp7Z.debug.temp.o
LOAD .build/obj_karlk90_yaemk_moonlanderlike/custom_color.o
LOAD .build/obj_karlk90_yaemk_moonlanderlike/keyboards/karlk90/yaemk/yaemk.o
LOAD .build/obj_karlk90_yaemk_moonlanderlike/keyboards/karlk90/yaemk/keymaps/moonlanderlike/keymap.o
LOAD .build/obj_karlk90_yaemk_moonlanderlike/quantum/quantum.o
LOAD .build/obj_karlk90_yaemk_moonlanderlike/quantum/send_string.o
LOAD .build/obj_karlk90_yaemk_moonlanderlike/quantum/bitwise.o
LOAD .build/obj_karlk90_yaemk_moonlanderlike/quantum/led.o
LOAD .build/obj_karlk90_yaemk_moonlanderlike/quantum/action.o
LOAD .build/obj_karlk90_yaemk_moonlanderlike/quantum/action_layer.o
LOAD .build/obj_karlk90_yaemk_moonlanderlike/quantum/action_macro.o
LOAD .build/obj_karlk90_yaemk_moonlanderlike/quantum/action_tapping.o
LOAD .build/obj_karlk90_yaemk_moonlanderlike/quantum/action_util.o
LOAD .build/obj_karlk90_yaemk_moonlanderlike/quantum/eeconfig.o
LOAD .build/obj_karlk90_yaemk_moonlanderlike/quantum/keyboard.o
LOAD .build/obj_karlk90_yaemk_moonlanderlike/quantum/keymap_common.o
LOAD .build/obj_karlk90_yaemk_moonlanderlike/quantum/keycode_config.o
LOAD .build/obj_karlk90_yaemk_moonlanderlike/quantum/usb_device_state.o
LOAD .build/obj_karlk90_yaemk_moonlanderlike/quantum/logging/debug.o
LOAD .build/obj_karlk90_yaemk_moonlanderlike/quantum/logging/sendchar.o
LOAD .build/obj_karlk90_yaemk_moonlanderlike/quantum/logging/print.o
LOAD .build/obj_karlk90_yaemk_moonlanderlike/quantum/bootmagic/bootmagic_lite.o
LOAD .build/obj_karlk90_yaemk_moonlanderlike/quantum/bootmagic/magic.o
LOAD .build/obj_karlk90_yaemk_moonlanderlike/quantum/matrix_common.o
LOAD .build/obj_karlk90_yaemk_moonlanderlike/quantum/matrix.o
LOAD .build/obj_karlk90_yaemk_moonlanderlike/quantum/debounce/asym_eager_defer_pk.o
LOAD .build/obj_karlk90_yaemk_moonlanderlike/quantum/split_common/split_util.o
LOAD .build/obj_karlk90_yaemk_moonlanderlike/quantum/split_common/transport.o
LOAD .build/obj_karlk90_yaemk_moonlanderlike/quantum/split_common/transactions.o
LOAD .build/obj_karlk90_yaemk_moonlanderlike/quantum/main.o
LOAD .build/obj_karlk90_yaemk_moonlanderlike/lib/printf/printf.o
LOAD .build/obj_karlk90_yaemk_moonlanderlike/quantum/mousekey.o
LOAD .build/obj_karlk90_yaemk_moonlanderlike/eeprom_driver.o
LOAD .build/obj_karlk90_yaemk_moonlanderlike/eeprom_i2c.o
LOAD .build/obj_karlk90_yaemk_moonlanderlike/quantum/color.o
LOAD .build/obj_karlk90_yaemk_moonlanderlike/quantum/rgb_matrix/rgb_matrix.o
LOAD .build/obj_karlk90_yaemk_moonlanderlike/quantum/rgb_matrix/rgb_matrix_drivers.o
LOAD .build/obj_karlk90_yaemk_moonlanderlike/lib/lib8tion/lib8tion.o
LOAD .build/obj_karlk90_yaemk_moonlanderlike/quantum/process_keycode/process_rgb.o
LOAD .build/obj_karlk90_yaemk_moonlanderlike/ws2812_pwm.o
LOAD .build/obj_karlk90_yaemk_moonlanderlike/quantum/led_tables.o
LOAD .build/obj_karlk90_yaemk_moonlanderlike/quantum/encoder.o
LOAD .build/obj_karlk90_yaemk_moonlanderlike/quantum/via.o
LOAD .build/obj_karlk90_yaemk_moonlanderlike/quantum/dynamic_keymap.o
LOAD .build/obj_karlk90_yaemk_moonlanderlike/crc.o
LOAD .build/obj_karlk90_yaemk_moonlanderlike/ssd1306_sh1106.o
LOAD .build/obj_karlk90_yaemk_moonlanderlike/quantum/process_keycode/process_space_cadet.o
LOAD .build/obj_karlk90_yaemk_moonlanderlike/quantum/process_keycode/process_magic.o
LOAD .build/obj_karlk90_yaemk_moonlanderlike/quantum/process_keycode/process_grave_esc.o
LOAD .build/obj_karlk90_yaemk_moonlanderlike/i2c_master.a
LOAD .build/obj_karlk90_yaemk_moonlanderlike/serial_usart.a
LOAD .build/obj_karlk90_yaemk_moonlanderlike/./lib/chibios/os/common/startup/ARMCMx/compilers/GCC/crt0_v7m.o
LOAD .build/obj_karlk90_yaemk_moonlanderlike/./lib/chibios/os/common/startup/ARMCMx/compilers/GCC/vectors.o
LOAD .build/obj_karlk90_yaemk_moonlanderlike/./lib/chibios/os/common/ports/ARMCMx/compilers/GCC/chcoreasm_v7m.o
LOAD .build/obj_karlk90_yaemk_moonlanderlike/common/host.o
LOAD .build/obj_karlk90_yaemk_moonlanderlike/common/report.o
LOAD .build/obj_karlk90_yaemk_moonlanderlike/common/sync_timer.o
LOAD .build/obj_karlk90_yaemk_moonlanderlike/common/usb_util.o
LOAD .build/obj_karlk90_yaemk_moonlanderlike/common/chibios/platform.o
LOAD .build/obj_karlk90_yaemk_moonlanderlike/common/chibios/suspend.o
LOAD .build/obj_karlk90_yaemk_moonlanderlike/common/chibios/timer.o
LOAD .build/obj_karlk90_yaemk_moonlanderlike/common/chibios/bootloader.o
LOAD .build/obj_karlk90_yaemk_moonlanderlike/protocol/chibios/usb_main.o
LOAD .build/obj_karlk90_yaemk_moonlanderlike/protocol/chibios/chibios.o
LOAD .build/obj_karlk90_yaemk_moonlanderlike/usb_descriptor.o
LOAD .build/obj_karlk90_yaemk_moonlanderlike/protocol/chibios/usb_driver.o
LOAD .build/obj_karlk90_yaemk_moonlanderlike/protocol/chibios/usb_util.o
LOAD .build/obj_karlk90_yaemk_moonlanderlike/./lib/chibios/os/oslib/src/chmboxes.o
LOAD .build/obj_karlk90_yaemk_moonlanderlike/./lib/chibios/os/oslib/src/chmemcore.o
LOAD .build/obj_karlk90_yaemk_moonlanderlike/./lib/chibios/os/oslib/src/chmemheaps.o
LOAD .build/obj_karlk90_yaemk_moonlanderlike/./lib/chibios/os/oslib/src/chmempools.o
LOAD .build/obj_karlk90_yaemk_moonlanderlike/./lib/chibios/os/oslib/src/chpipes.o
LOAD .build/obj_karlk90_yaemk_moonlanderlike/./lib/chibios/os/oslib/src/chobjcaches.o
LOAD .build/obj_karlk90_yaemk_moonlanderlike/./lib/chibios/os/oslib/src/chdelegates.o
LOAD .build/obj_karlk90_yaemk_moonlanderlike/./lib/chibios/os/oslib/src/chfactory.o
LOAD .build/obj_karlk90_yaemk/lib/chibios/os/common/startup/ARMCMx/compilers/GCC/crt1.o
LOAD .build/obj_karlk90_yaemk/lib/chibios/os/rt/src/chsys.o
LOAD .build/obj_karlk90_yaemk/lib/chibios/os/rt/src/chdebug.o
LOAD .build/obj_karlk90_yaemk/lib/chibios/os/rt/src/chtrace.o
LOAD .build/obj_karlk90_yaemk/lib/chibios/os/rt/src/chvt.o
LOAD .build/obj_karlk90_yaemk/lib/chibios/os/rt/src/chschd.o
LOAD .build/obj_karlk90_yaemk/lib/chibios/os/rt/src/chthreads.o
LOAD .build/obj_karlk90_yaemk/lib/chibios/os/rt/src/chtm.o
LOAD .build/obj_karlk90_yaemk/lib/chibios/os/rt/src/chstats.o
LOAD .build/obj_karlk90_yaemk/lib/chibios/os/rt/src/chregistry.o
LOAD .build/obj_karlk90_yaemk/lib/chibios/os/rt/src/chsem.o
LOAD .build/obj_karlk90_yaemk/lib/chibios/os/rt/src/chmtx.o
LOAD .build/obj_karlk90_yaemk/lib/chibios/os/rt/src/chcond.o
LOAD .build/obj_karlk90_yaemk/lib/chibios/os/rt/src/chevents.o
LOAD .build/obj_karlk90_yaemk/lib/chibios/os/rt/src/chmsg.o
LOAD .build/obj_karlk90_yaemk/lib/chibios/os/rt/src/chdynamic.o
LOAD .build/obj_karlk90_yaemk/lib/chibios/os/common/ports/ARMCMx/chcore.o
LOAD .build/obj_karlk90_yaemk/lib/chibios/os/common/ports/ARMCMx/chcore_v7m.o
LOAD .build/obj_karlk90_yaemk/lib/chibios/os/hal/osal/rt-nil/osal.o
LOAD .build/obj_karlk90_yaemk/lib/chibios/os/hal/src/hal.o
LOAD .build/obj_karlk90_yaemk/lib/chibios/os/hal/src/hal_st.o
LOAD .build/obj_karlk90_yaemk/lib/chibios/os/hal/src/hal_buffers.o
LOAD .build/obj_karlk90_yaemk/lib/chibios/os/hal/src/hal_queues.o
LOAD .build/obj_karlk90_yaemk/lib/chibios/os/hal/src/hal_flash.o
LOAD .build/obj_karlk90_yaemk/lib/chibios/os/hal/src/hal_mmcsd.o
LOAD .build/obj_karlk90_yaemk/lib/chibios/os/hal/src/hal_adc.o
LOAD .build/obj_karlk90_yaemk/lib/chibios/os/hal/src/hal_can.o
LOAD .build/obj_karlk90_yaemk/lib/chibios/os/hal/src/hal_crypto.o
LOAD .build/obj_karlk90_yaemk/lib/chibios/os/hal/src/hal_dac.o
LOAD .build/obj_karlk90_yaemk/lib/chibios/os/hal/src/hal_efl.o
LOAD .build/obj_karlk90_yaemk/lib/chibios/os/hal/src/hal_gpt.o
LOAD .build/obj_karlk90_yaemk/lib/chibios/os/hal/src/hal_i2c.o
LOAD .build/obj_karlk90_yaemk/lib/chibios/os/hal/src/hal_i2s.o
LOAD .build/obj_karlk90_yaemk/lib/chibios/os/hal/src/hal_icu.o
LOAD .build/obj_karlk90_yaemk/lib/chibios/os/hal/src/hal_mac.o
LOAD .build/obj_karlk90_yaemk/lib/chibios/os/hal/src/hal_mmc_spi.o
LOAD .build/obj_karlk90_yaemk/lib/chibios/os/hal/src/hal_pal.o
LOAD .build/obj_karlk90_yaemk/lib/chibios/os/hal/src/hal_pwm.o
LOAD .build/obj_karlk90_yaemk/lib/chibios/os/hal/src/hal_rtc.o
LOAD .build/obj_karlk90_yaemk/lib/chibios/os/hal/src/hal_sdc.o
LOAD .build/obj_karlk90_yaemk/lib/chibios/os/hal/src/hal_serial.o
LOAD .build/obj_karlk90_yaemk/lib/chibios/os/hal/src/hal_serial_usb.o
LOAD .build/obj_karlk90_yaemk/lib/chibios/os/hal/src/hal_sio.o
LOAD .build/obj_karlk90_yaemk/lib/chibios/os/hal/src/hal_spi.o
LOAD .build/obj_karlk90_yaemk/lib/chibios/os/hal/src/hal_trng.o
LOAD .build/obj_karlk90_yaemk/lib/chibios/os/hal/src/hal_uart.o
LOAD .build/obj_karlk90_yaemk/lib/chibios/os/hal/src/hal_usb.o
LOAD .build/obj_karlk90_yaemk/lib/chibios/os/hal/src/hal_wdg.o
LOAD .build/obj_karlk90_yaemk/lib/chibios/os/hal/src/hal_wspi.o
LOAD .build/obj_karlk90_yaemk/lib/chibios/os/hal/ports/common/ARMCMx/nvic.o
LOAD .build/obj_karlk90_yaemk/lib/chibios/os/hal/ports/STM32/STM32F3xx/stm32_isr.o
LOAD .build/obj_karlk90_yaemk/lib/chibios/os/hal/ports/STM32/STM32F3xx/hal_lld.o
LOAD .build/obj_karlk90_yaemk/lib/chibios/os/hal/ports/STM32/LLD/ADCv3/hal_adc_lld.o
LOAD .build/obj_karlk90_yaemk/lib/chibios/os/hal/ports/STM32/LLD/CANv1/hal_can_lld.o
LOAD .build/obj_karlk90_yaemk/lib/chibios/os/hal/ports/STM32/LLD/DACv1/hal_dac_lld.o
LOAD .build/obj_karlk90_yaemk/lib/chibios/os/hal/ports/STM32/LLD/DMAv1/stm32_dma.o
LOAD .build/obj_karlk90_yaemk/lib/chibios/os/hal/ports/STM32/LLD/EXTIv1/stm32_exti.o
LOAD .build/obj_karlk90_yaemk/lib/chibios/os/hal/ports/STM32/LLD/GPIOv2/hal_pal_lld.o
LOAD .build/obj_karlk90_yaemk/lib/chibios/os/hal/ports/STM32/LLD/I2Cv2/hal_i2c_lld.o
LOAD .build/obj_karlk90_yaemk/lib/chibios/os/hal/ports/STM32/LLD/RTCv2/hal_rtc_lld.o
LOAD .build/obj_karlk90_yaemk/lib/chibios/os/hal/ports/STM32/LLD/SPIv2/hal_i2s_lld.o
LOAD .build/obj_karlk90_yaemk/lib/chibios/os/hal/ports/STM32/LLD/SPIv2/hal_spi_lld.o
LOAD .build/obj_karlk90_yaemk/lib/chibios/os/hal/ports/STM32/LLD/TIMv1/hal_st_lld.o
LOAD .build/obj_karlk90_yaemk/lib/chibios/os/hal/ports/STM32/LLD/TIMv1/hal_gpt_lld.o
LOAD .build/obj_karlk90_yaemk/lib/chibios/os/hal/ports/STM32/LLD/TIMv1/hal_icu_lld.o
LOAD .build/obj_karlk90_yaemk/lib/chibios/os/hal/ports/STM32/LLD/TIMv1/hal_pwm_lld.o
LOAD .build/obj_karlk90_yaemk/lib/chibios/os/hal/ports/STM32/LLD/USARTv2/hal_serial_lld.o
LOAD .build/obj_karlk90_yaemk/lib/chibios/os/hal/ports/STM32/LLD/USARTv2/hal_uart_lld.o
LOAD .build/obj_karlk90_yaemk/lib/chibios/os/hal/ports/STM32/LLD/USBv1/hal_usb_lld.o
LOAD .build/obj_karlk90_yaemk/lib/chibios/os/hal/ports/STM32/LLD/xWDGv1/hal_wdg_lld.o
LOAD .build/obj_karlk90_yaemk/lib/chibios/os/hal/boards/ST_STM32F3_DISCOVERY/board.o
LOAD .build/obj_karlk90_yaemk/lib/chibios/os/hal/lib/streams/chprintf.o
LOAD .build/obj_karlk90_yaemk/lib/chibios/os/hal/lib/streams/memstreams.o
LOAD .build/obj_karlk90_yaemk/lib/chibios/os/hal/lib/streams/nullstreams.o
LOAD .build/obj_karlk90_yaemk/lib/chibios/os/various/syscalls.o
LOAD .build/obj_karlk90_yaemk/common/chibios/syscall-fallbacks.o
LOAD .build/obj_karlk90_yaemk/common/chibios/wait.o
                0x0000000000000800                __process_stack_size__ = 0x800
                0x0000000000000400                __main_stack_size__ = 0x400
LOAD /usr/lib/gcc/arm-none-eabi/10.3.1/../../../arm-none-eabi/lib/thumb/v7e-m+fp/hard/libm.a
START GROUP
LOAD /usr/lib/gcc/arm-none-eabi/10.3.1/thumb/v7e-m+fp/hard/libgcc.a
LOAD /usr/lib/gcc/arm-none-eabi/10.3.1/../../../arm-none-eabi/lib/thumb/v7e-m+fp/hard/libg_nano.a
LOAD /usr/lib/gcc/arm-none-eabi/10.3.1/../../../arm-none-eabi/lib/thumb/v7e-m+fp/hard/libc_nano.a
END GROUP
START GROUP
LOAD /usr/lib/gcc/arm-none-eabi/10.3.1/thumb/v7e-m+fp/hard/libgcc.a
LOAD /usr/lib/gcc/arm-none-eabi/10.3.1/../../../arm-none-eabi/lib/thumb/v7e-m+fp/hard/libc_nano.a
END GROUP

.mstack         0x0000000020000000      0x400
                0x0000000020000000                . = ALIGN (0x8)
                0x0000000020000000                __main_stack_base__ = .
                0x0000000020000400                . = (. + __main_stack_size__)
 *fill*         0x0000000020000000      0x400 
                0x0000000020000400                . = ALIGN (0x8)
                0x0000000020000400                __main_stack_end__ = .

.pstack         0x0000000020000400      0x800
                0x0000000020000400                . = ALIGN (0x8)
                0x0000000020000400                __process_stack_base__ = .
                0x0000000020000400                __main_thread_stack_base__ = .
                0x0000000020000c00                . = (. + __process_stack_size__)
 *fill*         0x0000000020000400      0x800 
                0x0000000020000c00                . = ALIGN (0x8)
                0x0000000020000c00                __process_stack_end__ = .
                0x0000000020000c00                __main_thread_stack_end__ = .

.vectors        0x0000000008000000      0x1a0
 *(.vectors)
 .vectors       0x0000000008000000      0x1a0 .build/obj_karlk90_yaemk_moonlanderlike/./lib/chibios/os/common/startup/ARMCMx/compilers/GCC/vectors.o
                0x0000000008000000                _vectors

.xtors          0x00000000080001a0        0x0
                0x00000000080001a0                __init_array_base__ = .
 *(SORT_BY_NAME(.init_array.*))
 *(.init_array)
                0x00000000080001a0                __init_array_end__ = .
                0x00000000080001a0                __fini_array_base__ = .
 *(.fini_array)
 *(SORT_BY_NAME(.fini_array.*))
                0x00000000080001a0                __fini_array_end__ = .

.text           0x00000000080001c0    0x12b80
                0x00000000080001c0                __text_base__ = .
 *(.text)
 .text          0x00000000080001c0      0x120 .build/obj_karlk90_yaemk_moonlanderlike/./lib/chibios/os/common/startup/ARMCMx/compilers/GCC/crt0_v7m.o
                0x00000000080001c0                _crt0_entry
 .text          0x00000000080002e0        0x8 .build/obj_karlk90_yaemk_moonlanderlike/./lib/chibios/os/common/startup/ARMCMx/compilers/GCC/vectors.o
                0x00000000080002e0                Reset_Handler
                0x00000000080002e2                Vector58
                0x00000000080002e2                VectorE8
                0x00000000080002e2                Vector9C
                0x00000000080002e2                DebugMon_Handler
                0x00000000080002e2                Vector5C
                0x00000000080002e2                Vector11C
                0x00000000080002e2                HardFault_Handler
                0x00000000080002e2                Vector19C
                0x00000000080002e2                Vector8C
                0x00000000080002e2                SysTick_Handler
                0x00000000080002e2                PendSV_Handler
                0x00000000080002e2                Vector168
                0x00000000080002e2                NMI_Handler
                0x00000000080002e2                Vector110
                0x00000000080002e2                VectorC8
                0x00000000080002e2                Vector94
                0x00000000080002e2                VectorB4
                0x00000000080002e2                Vector160
                0x00000000080002e2                UsageFault_Handler
                0x00000000080002e2                VectorEC
                0x00000000080002e2                Vector40
                0x00000000080002e2                VectorF8
                0x00000000080002e2                Vector108
                0x00000000080002e2                Vector190
                0x00000000080002e2                Vector150
                0x00000000080002e2                Vector148
                0x00000000080002e2                Vector188
                0x00000000080002e2                Vector198
                0x00000000080002e2                Vector118
                0x00000000080002e2                Vector64
                0x00000000080002e2                VectorCC
                0x00000000080002e2                Vector54
                0x00000000080002e2                Vector98
                0x00000000080002e2                VectorD8
                0x00000000080002e2                Vector138
                0x00000000080002e2                Vector24
                0x00000000080002e2                Vector178
                0x00000000080002e2                VectorD0
                0x00000000080002e2                Vector140
                0x00000000080002e2                VectorE4
                0x00000000080002e2                Vector158
                0x00000000080002e2                Vector134
                0x00000000080002e2                VectorF0
                0x00000000080002e2                Vector13C
                0x00000000080002e2                Vector100
                0x00000000080002e2                VectorE0
                0x00000000080002e2                VectorF4
                0x00000000080002e2                MemManage_Handler
                0x00000000080002e2                VectorC4
                0x00000000080002e2                Vector180
                0x00000000080002e2                Vector90
                0x00000000080002e2                Vector114
                0x00000000080002e2                Vector164
                0x00000000080002e2                Vector60
                0x00000000080002e2                Vector1C
                0x00000000080002e2                Vector17C
                0x00000000080002e2                Vector48
                0x00000000080002e2                VectorD4
                0x00000000080002e2                Vector4C
                0x00000000080002e2                Vector144
                0x00000000080002e2                Vector15C
                0x00000000080002e2                Vector68
                0x00000000080002e2                Vector170
                0x00000000080002e2                Vector88
                0x00000000080002e2                Vector104
                0x00000000080002e2                Vector184
                0x00000000080002e2                Vector10C
                0x00000000080002e2                Vector14C
                0x00000000080002e2                BusFault_Handler
                0x00000000080002e2                Vector50
                0x00000000080002e2                Vector194
                0x00000000080002e2                Vector154
                0x00000000080002e2                Vector44
                0x00000000080002e2                Vector28
                0x00000000080002e2                VectorB8
                0x00000000080002e2                VectorFC
                0x00000000080002e2                Vector34
                0x00000000080002e2                Vector20
                0x00000000080002e2                Vector18C
                0x00000000080002e2                Vector174
                0x00000000080002e6                _unhandled_exception
 .text          0x00000000080002e8       0x32 .build/obj_karlk90_yaemk_moonlanderlike/./lib/chibios/os/common/ports/ARMCMx/compilers/GCC/chcoreasm_v7m.o
                0x00000000080002e8                _port_switch
                0x0000000008000300                _port_thread_start
                0x0000000008000312                _port_switch_from_isr
                0x0000000008000316                _port_exit_from_isr
 *fill*         0x000000000800031a        0x2 
 .text          0x000000000800031c       0x30 /usr/lib/gcc/arm-none-eabi/10.3.1/thumb/v7e-m+fp/hard/libgcc.a(_aeabi_uldivmod.o)
                0x000000000800031c                __aeabi_uldivmod
 .text          0x000000000800034c      0x2d0 /usr/lib/gcc/arm-none-eabi/10.3.1/thumb/v7e-m+fp/hard/libgcc.a(_udivmoddi4.o)
                0x000000000800034c                __udivmoddi4
 .text          0x000000000800061c        0x4 /usr/lib/gcc/arm-none-eabi/10.3.1/thumb/v7e-m+fp/hard/libgcc.a(_dvmd_tls.o)
                0x000000000800061c                __aeabi_ldiv0
                0x000000000800061c                __aeabi_idiv0
 .text          0x0000000008000620      0x134 /usr/lib/gcc/arm-none-eabi/10.3.1/../../../arm-none-eabi/lib/thumb/v7e-m+fp/hard/libg_nano.a(lib_a-memcpy.o)
                0x0000000008000620                memcpy
 *fill*         0x0000000008000754        0x4 
 .text          0x0000000008000758       0xfc /usr/lib/gcc/arm-none-eabi/10.3.1/../../../arm-none-eabi/lib/thumb/v7e-m+fp/hard/libg_nano.a(lib_a-rand.o)
                0x0000000008000758                srand
                0x00000000080007bc                rand
 .text          0x0000000008000854       0x4c /usr/lib/gcc/arm-none-eabi/10.3.1/../../../arm-none-eabi/lib/thumb/v7e-m+fp/hard/libg_nano.a(lib_a-assert.o)
                0x0000000008000854                __assert_func
                0x0000000008000894                __assert
 .text          0x00000000080008a0       0x44 /usr/lib/gcc/arm-none-eabi/10.3.1/../../../arm-none-eabi/lib/thumb/v7e-m+fp/hard/libg_nano.a(lib_a-fprintf.o)
                0x00000000080008a0                _fprintf_r
                0x00000000080008a0                _fiprintf_r
                0x00000000080008bc                fprintf
                0x00000000080008bc                fiprintf
 .text          0x00000000080008e4       0x20 /usr/lib/gcc/arm-none-eabi/10.3.1/../../../arm-none-eabi/lib/thumb/v7e-m+fp/hard/libg_nano.a(lib_a-malloc.o)
                0x00000000080008e4                malloc
                0x00000000080008f4                free
 .text          0x0000000008000904       0xc4 /usr/lib/gcc/arm-none-eabi/10.3.1/../../../arm-none-eabi/lib/thumb/v7e-m+fp/hard/libg_nano.a(lib_a-nano-freer.o)
                0x0000000008000904                _free_r
 .text          0x00000000080009c8       0xb4 /usr/lib/gcc/arm-none-eabi/10.3.1/../../../arm-none-eabi/lib/thumb/v7e-m+fp/hard/libg_nano.a(lib_a-nano-mallocr.o)
                0x00000000080009c8                _malloc_r
 .text          0x0000000008000a7c      0x328 /usr/lib/gcc/arm-none-eabi/10.3.1/../../../arm-none-eabi/lib/thumb/v7e-m+fp/hard/libg_nano.a(lib_a-nano-vfprintf.o)
                0x0000000008000ab8                __sfputs_r
                0x0000000008000ae8                __sprint_r
                0x0000000008000b04                _vfiprintf_r
                0x0000000008000b04                _vfprintf_r
                0x0000000008000d88                vfiprintf
                0x0000000008000d88                vfprintf
 .text          0x0000000008000da4      0x3dc /usr/lib/gcc/arm-none-eabi/10.3.1/../../../arm-none-eabi/lib/thumb/v7e-m+fp/hard/libg_nano.a(lib_a-nano-vfprintf_i.o)
                0x0000000008000da4                _printf_common
                0x0000000008000ed0                _printf_i
 .text          0x0000000008001180       0xc8 /usr/lib/gcc/arm-none-eabi/10.3.1/../../../arm-none-eabi/lib/thumb/v7e-m+fp/hard/libg_nano.a(lib_a-wbuf.o)
                0x0000000008001180                __swbuf_r
                0x0000000008001230                __swbuf
 .text          0x0000000008001248      0x104 /usr/lib/gcc/arm-none-eabi/10.3.1/../../../arm-none-eabi/lib/thumb/v7e-m+fp/hard/libg_nano.a(lib_a-wsetup.o)
                0x0000000008001248                __swsetup_r
 .text          0x000000000800134c       0x10 /usr/lib/gcc/arm-none-eabi/10.3.1/../../../arm-none-eabi/lib/thumb/v7e-m+fp/hard/libg_nano.a(lib_a-abort.o)
                0x000000000800134c                abort
 .text          0x000000000800135c      0x1e8 /usr/lib/gcc/arm-none-eabi/10.3.1/../../../arm-none-eabi/lib/thumb/v7e-m+fp/hard/libg_nano.a(lib_a-fflush.o)
                0x000000000800135c                __sflush_r
                0x0000000008001470                _fflush_r
                0x00000000080014c4                fflush
 .text          0x0000000008001544      0x238 /usr/lib/gcc/arm-none-eabi/10.3.1/../../../arm-none-eabi/lib/thumb/v7e-m+fp/hard/libg_nano.a(lib_a-findfp.o)
                0x0000000008001548                _cleanup_r
                0x0000000008001558                __sfmoreglue
                0x0000000008001588                __sfp
                0x0000000008001728                _cleanup
                0x000000000800173c                __sinit
                0x0000000008001744                __sfp_lock_acquire
                0x0000000008001748                __sfp_lock_release
                0x000000000800174c                __sinit_lock_acquire
                0x0000000008001750                __sinit_lock_release
                0x0000000008001754                __fp_lock_all
                0x0000000008001768                __fp_unlock_all
 .text          0x000000000800177c      0x2f0 /usr/lib/gcc/arm-none-eabi/10.3.1/../../../arm-none-eabi/lib/thumb/v7e-m+fp/hard/libg_nano.a(lib_a-fvwrite.o)
                0x000000000800177c                __sfvwrite_r
 .text          0x0000000008001a6c       0x88 /usr/lib/gcc/arm-none-eabi/10.3.1/../../../arm-none-eabi/lib/thumb/v7e-m+fp/hard/libg_nano.a(lib_a-fwalk.o)
                0x0000000008001a6c                _fwalk
                0x0000000008001aac                _fwalk_reent
 .text          0x0000000008001af4      0x11c /usr/lib/gcc/arm-none-eabi/10.3.1/../../../arm-none-eabi/lib/thumb/v7e-m+fp/hard/libg_nano.a(lib_a-makebuf.o)
                0x0000000008001af4                __smakebuf_r
                0x0000000008001bb4                __swhatbuf_r
 .text          0x0000000008001c10       0xa0 /usr/lib/gcc/arm-none-eabi/10.3.1/../../../arm-none-eabi/lib/thumb/v7e-m+fp/hard/libg_nano.a(lib_a-memchr.o)
                0x0000000008001c10                memchr
 .text          0x0000000008001cb0       0xf8 /usr/lib/gcc/arm-none-eabi/10.3.1/../../../arm-none-eabi/lib/thumb/v7e-m+fp/hard/libg_nano.a(lib_a-memmove.o)
                0x0000000008001cb0                memmove
 .text          0x0000000008001da8       0xa4 /usr/lib/gcc/arm-none-eabi/10.3.1/../../../arm-none-eabi/lib/thumb/v7e-m+fp/hard/libg_nano.a(lib_a-memset.o)
                0x0000000008001da8                memset
 .text          0x0000000008001e4c        0x8 /usr/lib/gcc/arm-none-eabi/10.3.1/../../../arm-none-eabi/lib/thumb/v7e-m+fp/hard/libg_nano.a(lib_a-mlock.o)
                0x0000000008001e4c                __malloc_lock
                0x0000000008001e50                __malloc_unlock
 .text          0x0000000008001e54       0x50 /usr/lib/gcc/arm-none-eabi/10.3.1/../../../arm-none-eabi/lib/thumb/v7e-m+fp/hard/libg_nano.a(lib_a-nano-reallocr.o)
                0x0000000008001e54                _realloc_r
 .text          0x0000000008001ea4      0x268 /usr/lib/gcc/arm-none-eabi/10.3.1/../../../arm-none-eabi/lib/thumb/v7e-m+fp/hard/libg_nano.a(lib_a-signal.o)
                0x0000000008001ea4                _init_signal_r
                0x0000000008001ed0                _signal_r
                0x0000000008001f18                _raise_r
                0x0000000008001f6c                __sigtramp_r
                0x0000000008001fcc                raise
                0x0000000008002024                signal
                0x0000000008002074                _init_signal
                0x00000000080020a8                __sigtramp
 .text          0x000000000800210c       0x30 /usr/lib/gcc/arm-none-eabi/10.3.1/../../../arm-none-eabi/lib/thumb/v7e-m+fp/hard/libg_nano.a(lib_a-signalr.o)
                0x000000000800210c                _kill_r
                0x0000000008002138                _getpid_r
 .text          0x000000000800213c       0x90 /usr/lib/gcc/arm-none-eabi/10.3.1/../../../arm-none-eabi/lib/thumb/v7e-m+fp/hard/libg_nano.a(lib_a-stdio.o)
                0x000000000800213c                __sread
                0x0000000008002160                __seofread
                0x0000000008002164                __swrite
                0x00000000080021a4                __sseek
                0x00000000080021c4                __sclose
 .text          0x00000000080021cc       0x14 /usr/lib/gcc/arm-none-eabi/10.3.1/../../../arm-none-eabi/lib/thumb/v7e-m+fp/hard/libg_nano.a(lib_a-nano-msizer.o)
                0x00000000080021cc                _malloc_usable_size_r
 .text          0x00000000080021e0       0x64 /usr/lib/gcc/arm-none-eabi/10.3.1/../../../arm-none-eabi/lib/thumb/v7e-m+fp/hard/libg_nano.a(lib_a-memcmp.o)
                0x00000000080021e0                memcmp
 *fill*         0x0000000008002244       0x3c 
 .text          0x0000000008002280       0xdc /usr/lib/gcc/arm-none-eabi/10.3.1/../../../arm-none-eabi/lib/thumb/v7e-m+fp/hard/libg_nano.a(lib_a-strlen.o)
                0x0000000008002280                strlen
 *(.text.*)
 .text.biton    0x000000000800235c       0x24 /tmp/karlk90_yaemk_moonlanderlike.elf.XW0OFi.ltrans0.ltrans.o
 .text.bitrev   0x0000000008002380       0x28 /tmp/karlk90_yaemk_moonlanderlike.elf.XW0OFi.ltrans0.ltrans.o
 .text.layer_off
                0x00000000080023a8       0x18 /tmp/karlk90_yaemk_moonlanderlike.elf.XW0OFi.ltrans0.ltrans.o
 .text.layer_on
                0x00000000080023c0       0x14 /tmp/karlk90_yaemk_moonlanderlike.elf.XW0OFi.ltrans0.ltrans.o
 .text.clear_oneshot_layer_state
                0x00000000080023d4       0x50 /tmp/karlk90_yaemk_moonlanderlike.elf.XW0OFi.ltrans0.ltrans.o
 .text.send_keyboard_report_deferred
                0x0000000008002424       0x8c /tmp/karlk90_yaemk_moonlanderlike.elf.XW0OFi.ltrans0.ltrans.o
 .text.mod_config
                0x00000000080024b0       0xb8 /tmp/karlk90_yaemk_moonlanderlike.elf.XW0OFi.ltrans0.ltrans.o
 .text.null_sendchar_func
                0x0000000008002568        0x4 /tmp/karlk90_yaemk_moonlanderlike.elf.XW0OFi.ltrans0.ltrans.o
 .text.is_keyboard_left
                0x000000000800256c       0x80 /tmp/karlk90_yaemk_moonlanderlike.elf.XW0OFi.ltrans0.ltrans.o
                0x000000000800256c                is_keyboard_left
 .text.wheel_unit
                0x00000000080025ec       0x48 /tmp/karlk90_yaemk_moonlanderlike.elf.XW0OFi.ltrans0.ltrans.o
 .text._out_buffer.lto_priv.0
                0x0000000008002634        0x8 /tmp/karlk90_yaemk_moonlanderlike.elf.XW0OFi.ltrans0.ltrans.o
                0x0000000008002634                _out_buffer.lto_priv.0
 .text._out_char
                0x000000000800263c       0x10 /tmp/karlk90_yaemk_moonlanderlike.elf.XW0OFi.ltrans0.ltrans.o
 .text._ntoa_long
                0x000000000800264c      0x32c /tmp/karlk90_yaemk_moonlanderlike.elf.XW0OFi.ltrans0.ltrans.o
 .text.move_unit
                0x0000000008002978       0x44 /tmp/karlk90_yaemk_moonlanderlike.elf.XW0OFi.ltrans0.ltrans.o
 .text.sin8_C.lto_priv.0
                0x00000000080029bc       0x44 /tmp/karlk90_yaemk_moonlanderlike.elf.XW0OFi.ltrans0.ltrans.o
                0x00000000080029bc                sin8_C.lto_priv.0
 .text.BAND_SAT_math
                0x0000000008002a00       0x60 /tmp/karlk90_yaemk_moonlanderlike.elf.XW0OFi.ltrans0.ltrans.o
 .text.BAND_VAL_math
                0x0000000008002a60       0x60 /tmp/karlk90_yaemk_moonlanderlike.elf.XW0OFi.ltrans0.ltrans.o
 .text.BAND_PINWHEEL_SAT_math
                0x0000000008002ac0       0xa0 /tmp/karlk90_yaemk_moonlanderlike.elf.XW0OFi.ltrans0.ltrans.o
 .text.BAND_PINWHEEL_VAL_math
                0x0000000008002b60       0xa0 /tmp/karlk90_yaemk_moonlanderlike.elf.XW0OFi.ltrans0.ltrans.o
 .text.BAND_SPIRAL_SAT_math
                0x0000000008002c00       0x90 /tmp/karlk90_yaemk_moonlanderlike.elf.XW0OFi.ltrans0.ltrans.o
 .text.BAND_SPIRAL_VAL_math
                0x0000000008002c90       0x90 /tmp/karlk90_yaemk_moonlanderlike.elf.XW0OFi.ltrans0.ltrans.o
 .text.CYCLE_ALL_math
                0x0000000008002d20       0x28 /tmp/karlk90_yaemk_moonlanderlike.elf.XW0OFi.ltrans0.ltrans.o
 .text.CYCLE_LEFT_RIGHT_math
                0x0000000008002d48       0x34 /tmp/karlk90_yaemk_moonlanderlike.elf.XW0OFi.ltrans0.ltrans.o
 .text.CYCLE_UP_DOWN_math
                0x0000000008002d7c       0x38 /tmp/karlk90_yaemk_moonlanderlike.elf.XW0OFi.ltrans0.ltrans.o
 .text.RAINBOW_MOVING_CHEVRON_math
                0x0000000008002db4       0x5c /tmp/karlk90_yaemk_moonlanderlike.elf.XW0OFi.ltrans0.ltrans.o
 .text.CYCLE_OUT_IN_math
                0x0000000008002e10       0x34 /tmp/karlk90_yaemk_moonlanderlike.elf.XW0OFi.ltrans0.ltrans.o
 .text.CYCLE_OUT_IN_DUAL_math
                0x0000000008002e44       0xb4 /tmp/karlk90_yaemk_moonlanderlike.elf.XW0OFi.ltrans0.ltrans.o
 .text.CYCLE_PINWHEEL_math
                0x0000000008002ef8       0x78 /tmp/karlk90_yaemk_moonlanderlike.elf.XW0OFi.ltrans0.ltrans.o
 .text.CYCLE_SPIRAL_math
                0x0000000008002f70       0x80 /tmp/karlk90_yaemk_moonlanderlike.elf.XW0OFi.ltrans0.ltrans.o
 .text.DUAL_BEACON_math
                0x0000000008002ff0       0x58 /tmp/karlk90_yaemk_moonlanderlike.elf.XW0OFi.ltrans0.ltrans.o
 .text.RAINBOW_BEACON_math
                0x0000000008003048       0x58 /tmp/karlk90_yaemk_moonlanderlike.elf.XW0OFi.ltrans0.ltrans.o
 .text.RAINBOW_PINWHEELS_math
                0x00000000080030a0       0x70 /tmp/karlk90_yaemk_moonlanderlike.elf.XW0OFi.ltrans0.ltrans.o
 .text.HUE_PENDULUM_math
                0x0000000008003110       0xa4 /tmp/karlk90_yaemk_moonlanderlike.elf.XW0OFi.ltrans0.ltrans.o
 .text.HUE_WAVE_math
                0x00000000080031b4       0x50 /tmp/karlk90_yaemk_moonlanderlike.elf.XW0OFi.ltrans0.ltrans.o
 .text.is_keyboard_master
                0x0000000008003204       0xb4 /tmp/karlk90_yaemk_moonlanderlike.elf.XW0OFi.ltrans0.ltrans.o
 .text.eeprom_read_block
                0x00000000080032b8       0x30 /tmp/karlk90_yaemk_moonlanderlike.elf.XW0OFi.ltrans0.ltrans.o
                0x00000000080032b8                eeprom_read_block
 .text.eeprom_driver_erase
                0x00000000080032e8      0x104 /tmp/karlk90_yaemk_moonlanderlike.elf.XW0OFi.ltrans0.ltrans.o
 .text.eeconfig_is_enabled
                0x00000000080033ec       0x34 /tmp/karlk90_yaemk_moonlanderlike.elf.XW0OFi.ltrans0.ltrans.o
 .text.slave_matrix_handlers_master
                0x0000000008003420      0x178 /tmp/karlk90_yaemk_moonlanderlike.elf.XW0OFi.ltrans0.ltrans.o
 .text.sync_timer_handlers_master
                0x0000000008003598       0xd4 /tmp/karlk90_yaemk_moonlanderlike.elf.XW0OFi.ltrans0.ltrans.o
 .text.layer_state_handlers_master
                0x000000000800366c      0x110 /tmp/karlk90_yaemk_moonlanderlike.elf.XW0OFi.ltrans0.ltrans.o
 .text.led_state_handlers_master
                0x000000000800377c       0xe8 /tmp/karlk90_yaemk_moonlanderlike.elf.XW0OFi.ltrans0.ltrans.o
 .text.rgb_matrix_handlers_master
                0x0000000008003864       0xec /tmp/karlk90_yaemk_moonlanderlike.elf.XW0OFi.ltrans0.ltrans.o
 .text.rgb_matrix_hsv_to_rgb
                0x0000000008003950      0x170 /tmp/karlk90_yaemk_moonlanderlike.elf.XW0OFi.ltrans0.ltrans.o
                0x0000000008003950                rgb_matrix_hsv_to_rgb
 .text.shutdown_user
                0x0000000008003ac0        0x4 /tmp/karlk90_yaemk_moonlanderlike.elf.XW0OFi.ltrans0.ltrans.o
                0x0000000008003ac0                shutdown_user
                0x0000000008003ac0                __core_init
 .text.eeprom_read_byte
                0x0000000008003ac4       0x3c /tmp/karlk90_yaemk_moonlanderlike.elf.XW0OFi.ltrans0.ltrans.o
                0x0000000008003ac4                eeprom_read_byte
 .text.tap_code
                0x0000000008003b00       0x88 /tmp/karlk90_yaemk_moonlanderlike.elf.XW0OFi.ltrans0.ltrans.o
                0x0000000008003b00                tap_code
 .text.layer_switch_get_layer
                0x0000000008003b88      0x198 /tmp/karlk90_yaemk_moonlanderlike.elf.XW0OFi.ltrans0.ltrans.o
                0x0000000008003b88                layer_switch_get_layer
 .text.is_tap_record
                0x0000000008003d20      0x528 /tmp/karlk90_yaemk_moonlanderlike.elf.XW0OFi.ltrans0.ltrans.o
 .text._vsnprintf.lto_priv.0
                0x0000000008004248      0x56c /tmp/karlk90_yaemk_moonlanderlike.elf.XW0OFi.ltrans0.ltrans.o
                0x0000000008004248                _vsnprintf.lto_priv.0
 .text.printf_  0x00000000080047b4       0x2c /tmp/karlk90_yaemk_moonlanderlike.elf.XW0OFi.ltrans0.ltrans.o
                0x00000000080047b4                printf_
 .text.send_keyboard_report_immediate.part.0
                0x00000000080047e0      0x128 /tmp/karlk90_yaemk_moonlanderlike.elf.XW0OFi.ltrans0.ltrans.o
 .text.send_keyboard_report
                0x0000000008004908       0x90 /tmp/karlk90_yaemk_moonlanderlike.elf.XW0OFi.ltrans0.ltrans.o
                0x0000000008004908                send_keyboard_report
 .text.transaction_handler_master
                0x0000000008004998       0xf0 /tmp/karlk90_yaemk_moonlanderlike.elf.XW0OFi.ltrans0.ltrans.o
 .text.matrix_scan
                0x0000000008004a88      0xa08 /tmp/karlk90_yaemk_moonlanderlike.elf.XW0OFi.ltrans0.ltrans.o
 .text.encoder_handlers_master
                0x0000000008005490      0x210 /tmp/karlk90_yaemk_moonlanderlike.elf.XW0OFi.ltrans0.ltrans.o
 .text.mousekey_on
                0x00000000080056a0       0xd0 /tmp/karlk90_yaemk_moonlanderlike.elf.XW0OFi.ltrans0.ltrans.o
                0x00000000080056a0                mousekey_on
 .text.mousekey_off
                0x0000000008005770      0x19c /tmp/karlk90_yaemk_moonlanderlike.elf.XW0OFi.ltrans0.ltrans.o
                0x0000000008005770                mousekey_off
 .text.mousekey_send
                0x000000000800590c      0x14c /tmp/karlk90_yaemk_moonlanderlike.elf.XW0OFi.ltrans0.ltrans.o
                0x000000000800590c                mousekey_send
 .text.clear_keyboard_but_mods_and_keys
                0x0000000008005a58       0x88 /tmp/karlk90_yaemk_moonlanderlike.elf.XW0OFi.ltrans0.ltrans.o
 .text.clear_keyboard
                0x0000000008005ae0       0xc4 /tmp/karlk90_yaemk_moonlanderlike.elf.XW0OFi.ltrans0.ltrans.o
 .text.eeprom_write_block
                0x0000000008005ba4       0xb8 /tmp/karlk90_yaemk_moonlanderlike.elf.XW0OFi.ltrans0.ltrans.o
                0x0000000008005ba4                eeprom_write_block
 .text.eeprom_update_byte
                0x0000000008005c5c       0x4c /tmp/karlk90_yaemk_moonlanderlike.elf.XW0OFi.ltrans0.ltrans.o
                0x0000000008005c5c                eeprom_update_byte
 .text.eeconfig_init_quantum
                0x0000000008005ca8      0x440 /tmp/karlk90_yaemk_moonlanderlike.elf.XW0OFi.ltrans0.ltrans.o
 .text.process_record
                0x00000000080060e8     0x1b04 /tmp/karlk90_yaemk_moonlanderlike.elf.XW0OFi.ltrans0.ltrans.o
 .text.waiting_buffer_scan_tap.part.0
                0x0000000008007bec       0xc8 /tmp/karlk90_yaemk_moonlanderlike.elf.XW0OFi.ltrans0.ltrans.o
 .text.process_tapping
                0x0000000008007cb4      0x6e0 /tmp/karlk90_yaemk_moonlanderlike.elf.XW0OFi.ltrans0.ltrans.o
 .text.action_exec
                0x0000000008008394       0xfc /tmp/karlk90_yaemk_moonlanderlike.elf.XW0OFi.ltrans0.ltrans.o
 .text.eeconfig_update_rgb_matrix_default
                0x0000000008008490       0x70 /tmp/karlk90_yaemk_moonlanderlike.elf.XW0OFi.ltrans0.ltrans.o
 .text.matrix_init
                0x0000000008008500      0x2ec /tmp/karlk90_yaemk_moonlanderlike.elf.XW0OFi.ltrans0.ltrans.o
 .text.rgb_matrix_set_color
                0x00000000080087ec       0xf0 /tmp/karlk90_yaemk_moonlanderlike.elf.XW0OFi.ltrans0.ltrans.o
                0x00000000080087ec                rgb_matrix_set_color
 .text.rgb_matrix_task
                0x00000000080088dc      0xf94 /tmp/karlk90_yaemk_moonlanderlike.elf.XW0OFi.ltrans0.ltrans.o
 .text.startup.main
                0x0000000008009870     0x249c /tmp/karlk90_yaemk_moonlanderlike.elf.XW0OFi.ltrans0.ltrans.o
                0x0000000008009870                main
 .text.setled.lto_priv.0
                0x000000000800bd0c       0x1c /tmp/karlk90_yaemk_moonlanderlike.elf.XW0OFi.ltrans1.ltrans.o
                0x000000000800bd0c                setled.lto_priv.0
 .text.usb_get_descriptor_cb.lto_priv.0
                0x000000000800bd28       0xc0 /tmp/karlk90_yaemk_moonlanderlike.elf.XW0OFi.ltrans1.ltrans.o
                0x000000000800bd28                usb_get_descriptor_cb.lto_priv.0
 .text.set_led_transfer_cb
                0x000000000800bde8       0x2c /tmp/karlk90_yaemk_moonlanderlike.elf.XW0OFi.ltrans1.ltrans.o
 .text.kbd_in_cb
                0x000000000800be14        0x4 /tmp/karlk90_yaemk_moonlanderlike.elf.XW0OFi.ltrans1.ltrans.o
 .text.keyboard_leds
                0x000000000800be18        0xc /tmp/karlk90_yaemk_moonlanderlike.elf.XW0OFi.ltrans1.ltrans.o
                0x000000000800be18                keyboard_leds
 .text.usb_lld_start_in
                0x000000000800be24       0x80 /tmp/karlk90_yaemk_moonlanderlike.elf.XW0OFi.ltrans1.ltrans.o
 .text.wakeup.lto_priv.0
                0x000000000800bea4       0x68 /tmp/karlk90_yaemk_moonlanderlike.elf.XW0OFi.ltrans1.ltrans.o
                0x000000000800bea4                wakeup.lto_priv.0
 .text.shared_in_cb
                0x000000000800bf0c        0x4 /tmp/karlk90_yaemk_moonlanderlike.elf.XW0OFi.ltrans1.ltrans.o
 .text.send_system
                0x000000000800bf10       0xa0 /tmp/karlk90_yaemk_moonlanderlike.elf.XW0OFi.ltrans1.ltrans.o
                0x000000000800bf10                send_system
 .text.send_consumer
                0x000000000800bfb0       0xa0 /tmp/karlk90_yaemk_moonlanderlike.elf.XW0OFi.ltrans1.ltrans.o
                0x000000000800bfb0                send_consumer
 .text.sendchar
                0x000000000800c050       0x3c /tmp/karlk90_yaemk_moonlanderlike.elf.XW0OFi.ltrans1.ltrans.o
                0x000000000800c050                sendchar
 .text.ibnotify.lto_priv.0
                0x000000000800c08c       0x94 /tmp/karlk90_yaemk_moonlanderlike.elf.XW0OFi.ltrans1.ltrans.o
                0x000000000800c08c                ibnotify.lto_priv.0
 .text.qmkusbDataReceived
                0x000000000800c120      0x168 /tmp/karlk90_yaemk_moonlanderlike.elf.XW0OFi.ltrans1.ltrans.o
                0x000000000800c120                qmkusbDataReceived
 .text.qmkusbInterruptTransmitted
                0x000000000800c288        0x4 /tmp/karlk90_yaemk_moonlanderlike.elf.XW0OFi.ltrans1.ltrans.o
                0x000000000800c288                qmkusbInterruptTransmitted
 .text._idle_thread.lto_priv.0
                0x000000000800c28c        0x4 /tmp/karlk90_yaemk_moonlanderlike.elf.XW0OFi.ltrans1.ltrans.o
                0x000000000800c28c                _idle_thread.lto_priv.0
 .text.chEvtBroadcastFlagsI
                0x000000000800c290       0x70 /tmp/karlk90_yaemk_moonlanderlike.elf.XW0OFi.ltrans1.ltrans.o
 .text._ctl.lto_priv.0
                0x000000000800c300        0x4 /tmp/karlk90_yaemk_moonlanderlike.elf.XW0OFi.ltrans1.ltrans.o
                0x000000000800c300                _ctl.lto_priv.0
 .text.set_address
                0x000000000800c304       0x28 /tmp/karlk90_yaemk_moonlanderlike.elf.XW0OFi.ltrans1.ltrans.o
 .text.usbStartTransmitI
                0x000000000800c32c       0x9c /tmp/karlk90_yaemk_moonlanderlike.elf.XW0OFi.ltrans1.ltrans.o
 .text.obnotify.lto_priv.0
                0x000000000800c3c8       0x48 /tmp/karlk90_yaemk_moonlanderlike.elf.XW0OFi.ltrans1.ltrans.o
                0x000000000800c3c8                obnotify.lto_priv.0
 .text._usb_ep0setup
                0x000000000800c410      0x52c /tmp/karlk90_yaemk_moonlanderlike.elf.XW0OFi.ltrans1.ltrans.o
                0x000000000800c410                _usb_ep0setup
 .text._usb_ep0in
                0x000000000800c93c      0x108 /tmp/karlk90_yaemk_moonlanderlike.elf.XW0OFi.ltrans1.ltrans.o
                0x000000000800c93c                _usb_ep0in
 .text._usb_ep0out
                0x000000000800ca44       0xd4 /tmp/karlk90_yaemk_moonlanderlike.elf.XW0OFi.ltrans1.ltrans.o
                0x000000000800ca44                _usb_ep0out
 .text.notify3.lto_priv.0
                0x000000000800cb18       0x10 /tmp/karlk90_yaemk_moonlanderlike.elf.XW0OFi.ltrans1.ltrans.o
                0x000000000800cb18                notify3.lto_priv.0
 .text.chEvtBroadcastFlagsI.constprop.0
                0x000000000800cb28       0x70 /tmp/karlk90_yaemk_moonlanderlike.elf.XW0OFi.ltrans1.ltrans.o
 .text.qmkusbDataTransmitted
                0x000000000800cb98      0x168 /tmp/karlk90_yaemk_moonlanderlike.elf.XW0OFi.ltrans1.ltrans.o
                0x000000000800cb98                qmkusbDataTransmitted
 .text.chEvtBroadcastFlagsI.constprop.2
                0x000000000800cd00       0x70 /tmp/karlk90_yaemk_moonlanderlike.elf.XW0OFi.ltrans1.ltrans.o
 .text.dmaStreamAllocI.part.0.constprop.0
                0x000000000800cd70       0x6c /tmp/karlk90_yaemk_moonlanderlike.elf.XW0OFi.ltrans1.ltrans.o
 .text.oled_advance_page
                0x000000000800cddc      0x110 /tmp/karlk90_yaemk_moonlanderlike.elf.XW0OFi.ltrans1.ltrans.o
 .text.usbInitEndpointI
                0x000000000800ceec      0x120 /tmp/karlk90_yaemk_moonlanderlike.elf.XW0OFi.ltrans1.ltrans.o
 .text.usb_sof_cb.lto_priv.0
                0x000000000800d00c      0x180 /tmp/karlk90_yaemk_moonlanderlike.elf.XW0OFi.ltrans1.ltrans.o
                0x000000000800d00c                usb_sof_cb.lto_priv.0
 .text.send_keyboard
                0x000000000800d18c      0x164 /tmp/karlk90_yaemk_moonlanderlike.elf.XW0OFi.ltrans1.ltrans.o
                0x000000000800d18c                send_keyboard
 .text._put.lto_priv.0
                0x000000000800d2f0       0xb8 /tmp/karlk90_yaemk_moonlanderlike.elf.XW0OFi.ltrans1.ltrans.o
                0x000000000800d2f0                _put.lto_priv.0
 .text._get.lto_priv.0
                0x000000000800d3a8       0xa8 /tmp/karlk90_yaemk_moonlanderlike.elf.XW0OFi.ltrans1.ltrans.o
                0x000000000800d3a8                _get.lto_priv.0
 .text._put.lto_priv.1
                0x000000000800d450       0x88 /tmp/karlk90_yaemk_moonlanderlike.elf.XW0OFi.ltrans1.ltrans.o
                0x000000000800d450                _put.lto_priv.1
 .text.handleKeycodeRGB.lto_priv.0
                0x000000000800d4d8        0x8 /tmp/karlk90_yaemk_moonlanderlike.elf.XW0OFi.ltrans1.ltrans.o
                0x000000000800d4d8                handleKeycodeRGB.lto_priv.0
 .text.via_eeprom_is_valid
                0x000000000800d4e0       0x2c /tmp/karlk90_yaemk_moonlanderlike.elf.XW0OFi.ltrans1.ltrans.o
                0x000000000800d4e0                via_eeprom_is_valid
 .text.dynamic_keymap_reset
                0x000000000800d50c       0xe0 /tmp/karlk90_yaemk_moonlanderlike.elf.XW0OFi.ltrans1.ltrans.o
                0x000000000800d50c                dynamic_keymap_reset
 .text.eeconfig_init_via
                0x000000000800d5ec      0x214 /tmp/karlk90_yaemk_moonlanderlike.elf.XW0OFi.ltrans1.ltrans.o
                0x000000000800d5ec                eeconfig_init_via
 .text.host_system_send
                0x000000000800d800       0x20 /tmp/karlk90_yaemk_moonlanderlike.elf.XW0OFi.ltrans1.ltrans.o
                0x000000000800d800                host_system_send
 .text.host_consumer_send
                0x000000000800d820       0x20 /tmp/karlk90_yaemk_moonlanderlike.elf.XW0OFi.ltrans1.ltrans.o
                0x000000000800d820                host_consumer_send
 .text.timer_read32
                0x000000000800d840       0x60 /tmp/karlk90_yaemk_moonlanderlike.elf.XW0OFi.ltrans1.ltrans.o
                0x000000000800d840                timer_read32
 .text.__early_init
                0x000000000800d8a0      0x1f8 /tmp/karlk90_yaemk_moonlanderlike.elf.XW0OFi.ltrans1.ltrans.o
                0x000000000800d8a0                __early_init
 .text.__late_init
                0x000000000800da98        0x4 /tmp/karlk90_yaemk_moonlanderlike.elf.XW0OFi.ltrans1.ltrans.o
                0x000000000800da98                __late_init
 .text.__default_exit
                0x000000000800da9c        0x4 /tmp/karlk90_yaemk_moonlanderlike.elf.XW0OFi.ltrans1.ltrans.o
                0x000000000800da9c                __default_exit
 .text.__init_ram_areas
                0x000000000800daa0       0xac /tmp/karlk90_yaemk_moonlanderlike.elf.XW0OFi.ltrans1.ltrans.o
                0x000000000800daa0                __init_ram_areas
 .text.chVTDoSetI
                0x000000000800db4c       0xd8 /tmp/karlk90_yaemk_moonlanderlike.elf.XW0OFi.ltrans1.ltrans.o
                0x000000000800db4c                chVTDoSetI
 .text.chVTDoResetI
                0x000000000800dc24       0x84 /tmp/karlk90_yaemk_moonlanderlike.elf.XW0OFi.ltrans1.ltrans.o
                0x000000000800dc24                chVTDoResetI
 .text.usb_request_hook_cb.lto_priv.0
                0x000000000800dca8      0x1ec /tmp/karlk90_yaemk_moonlanderlike.elf.XW0OFi.ltrans1.ltrans.o
                0x000000000800dca8                usb_request_hook_cb.lto_priv.0
 .text.keyboard_idle_timer_cb
                0x000000000800de94       0xc8 /tmp/karlk90_yaemk_moonlanderlike.elf.XW0OFi.ltrans1.ltrans.o
 .text.chSchGoSleepTimeoutS
                0x000000000800df5c       0x64 /tmp/karlk90_yaemk_moonlanderlike.elf.XW0OFi.ltrans1.ltrans.o
                0x000000000800df5c                chSchGoSleepTimeoutS
 .text.send_mouse
                0x000000000800dfc0      0x108 /tmp/karlk90_yaemk_moonlanderlike.elf.XW0OFi.ltrans1.ltrans.o
                0x000000000800dfc0                send_mouse
 .text._putt.lto_priv.0
                0x000000000800e0c8      0x108 /tmp/karlk90_yaemk_moonlanderlike.elf.XW0OFi.ltrans1.ltrans.o
                0x000000000800e0c8                _putt.lto_priv.0
 .text._gett.lto_priv.0
                0x000000000800e1d0       0xf8 /tmp/karlk90_yaemk_moonlanderlike.elf.XW0OFi.ltrans1.ltrans.o
                0x000000000800e1d0                _gett.lto_priv.0
 .text.ibqReadTimeout
                0x000000000800e2c8      0x138 /tmp/karlk90_yaemk_moonlanderlike.elf.XW0OFi.ltrans1.ltrans.o
 .text._read.lto_priv.0
                0x000000000800e400        0xc /tmp/karlk90_yaemk_moonlanderlike.elf.XW0OFi.ltrans1.ltrans.o
                0x000000000800e400                _read.lto_priv.0
 .text._readt.lto_priv.0
                0x000000000800e40c        0x8 /tmp/karlk90_yaemk_moonlanderlike.elf.XW0OFi.ltrans1.ltrans.o
                0x000000000800e40c                _readt.lto_priv.0
 .text.obqWriteTimeout
                0x000000000800e414      0x140 /tmp/karlk90_yaemk_moonlanderlike.elf.XW0OFi.ltrans1.ltrans.o
 .text._write.lto_priv.0
                0x000000000800e554        0xc /tmp/karlk90_yaemk_moonlanderlike.elf.XW0OFi.ltrans1.ltrans.o
                0x000000000800e554                _write.lto_priv.0
 .text._writet.lto_priv.0
                0x000000000800e560        0x8 /tmp/karlk90_yaemk_moonlanderlike.elf.XW0OFi.ltrans1.ltrans.o
                0x000000000800e560                _writet.lto_priv.0
 .text._putt.lto_priv.1
                0x000000000800e568       0xf8 /tmp/karlk90_yaemk_moonlanderlike.elf.XW0OFi.ltrans1.ltrans.o
                0x000000000800e568                _putt.lto_priv.1
 .text.chSchDoRescheduleAhead
                0x000000000800e660       0x38 /tmp/karlk90_yaemk_moonlanderlike.elf.XW0OFi.ltrans1.ltrans.o
                0x000000000800e660                chSchDoReschedule
 .text.chThdCreateStatic
                0x000000000800e698       0x94 /tmp/karlk90_yaemk_moonlanderlike.elf.XW0OFi.ltrans1.ltrans.o
                0x000000000800e698                chThdCreateStatic
 .text.chThdExit
                0x000000000800e72c       0x30 /tmp/karlk90_yaemk_moonlanderlike.elf.XW0OFi.ltrans1.ltrans.o
                0x000000000800e72c                chThdExit
 .text.chThdSleep
                0x000000000800e75c       0x74 /tmp/karlk90_yaemk_moonlanderlike.elf.XW0OFi.ltrans1.ltrans.o
                0x000000000800e75c                chThdSleep
 .text.SVC_Handler
                0x000000000800e7d0       0x20 /tmp/karlk90_yaemk_moonlanderlike.elf.XW0OFi.ltrans1.ltrans.o
                0x000000000800e7d0                SVC_Handler
 .text.iqResetI
                0x000000000800e7f0       0x44 /tmp/karlk90_yaemk_moonlanderlike.elf.XW0OFi.ltrans1.ltrans.o
                0x000000000800e7f0                iqResetI
 .text.iqGetTimeout
                0x000000000800e834       0xe8 /tmp/karlk90_yaemk_moonlanderlike.elf.XW0OFi.ltrans1.ltrans.o
                0x000000000800e834                iqGetTimeout
 .text._get.lto_priv.1
                0x000000000800e91c        0xc /tmp/karlk90_yaemk_moonlanderlike.elf.XW0OFi.ltrans1.ltrans.o
                0x000000000800e91c                _get.lto_priv.1
 .text._gett.lto_priv.1
                0x000000000800e928        0x8 /tmp/karlk90_yaemk_moonlanderlike.elf.XW0OFi.ltrans1.ltrans.o
                0x000000000800e928                _gett.lto_priv.1
 .text.iqReadTimeout
                0x000000000800e930       0xec /tmp/karlk90_yaemk_moonlanderlike.elf.XW0OFi.ltrans1.ltrans.o
                0x000000000800e930                iqReadTimeout
 .text._read.lto_priv.1
                0x000000000800ea1c        0xc /tmp/karlk90_yaemk_moonlanderlike.elf.XW0OFi.ltrans1.ltrans.o
                0x000000000800ea1c                _read.lto_priv.1
 .text._readt.lto_priv.1
                0x000000000800ea28        0x8 /tmp/karlk90_yaemk_moonlanderlike.elf.XW0OFi.ltrans1.ltrans.o
                0x000000000800ea28                _readt.lto_priv.1
 .text.oqWriteTimeout
                0x000000000800ea30       0xe4 /tmp/karlk90_yaemk_moonlanderlike.elf.XW0OFi.ltrans1.ltrans.o
                0x000000000800ea30                oqWriteTimeout
 .text._write.lto_priv.1
                0x000000000800eb14        0xc /tmp/karlk90_yaemk_moonlanderlike.elf.XW0OFi.ltrans1.ltrans.o
                0x000000000800eb14                _write.lto_priv.1
 .text._writet.lto_priv.1
                0x000000000800eb20        0x8 /tmp/karlk90_yaemk_moonlanderlike.elf.XW0OFi.ltrans1.ltrans.o
                0x000000000800eb20                _writet.lto_priv.1
 .text.i2cStart
                0x000000000800eb28       0xd0 /tmp/karlk90_yaemk_moonlanderlike.elf.XW0OFi.ltrans1.ltrans.o
                0x000000000800eb28                i2cStart
 .text.i2cMasterTransmitTimeout
                0x000000000800ebf8      0x148 /tmp/karlk90_yaemk_moonlanderlike.elf.XW0OFi.ltrans1.ltrans.o
                0x000000000800ebf8                i2cMasterTransmitTimeout
 .text.i2cMasterReceiveTimeout
                0x000000000800ed40      0x118 /tmp/karlk90_yaemk_moonlanderlike.elf.XW0OFi.ltrans1.ltrans.o
                0x000000000800ed40                i2cMasterReceiveTimeout
 .text.sdStart  0x000000000800ee58      0x134 /tmp/karlk90_yaemk_moonlanderlike.elf.XW0OFi.ltrans1.ltrans.o
                0x000000000800ee58                sdStart
 .text.usb_lld_init_endpoint
                0x000000000800ef8c       0xfc /tmp/karlk90_yaemk_moonlanderlike.elf.XW0OFi.ltrans1.ltrans.o
                0x000000000800ef8c                usb_lld_init_endpoint
 .text.usb_event_cb.lto_priv.0
                0x000000000800f088      0x480 /tmp/karlk90_yaemk_moonlanderlike.elf.XW0OFi.ltrans1.ltrans.o
                0x000000000800f088                usb_event_cb.lto_priv.0
 .text.VectorA0
                0x000000000800f508       0x5c /tmp/karlk90_yaemk_moonlanderlike.elf.XW0OFi.ltrans1.ltrans.o
                0x000000000800f508                VectorA0
 .text.VectorA4
                0x000000000800f564       0xb8 /tmp/karlk90_yaemk_moonlanderlike.elf.XW0OFi.ltrans1.ltrans.o
                0x000000000800f564                VectorA4
 .text.VectorA8
                0x000000000800f61c       0x5c /tmp/karlk90_yaemk_moonlanderlike.elf.XW0OFi.ltrans1.ltrans.o
                0x000000000800f61c                VectorA8
 .text.VectorAC
                0x000000000800f678       0xb8 /tmp/karlk90_yaemk_moonlanderlike.elf.XW0OFi.ltrans1.ltrans.o
                0x000000000800f678                VectorAC
 .text.Vector6C
                0x000000000800f730       0x80 /tmp/karlk90_yaemk_moonlanderlike.elf.XW0OFi.ltrans1.ltrans.o
                0x000000000800f730                Vector6C
 .text.Vector70
                0x000000000800f7b0       0x84 /tmp/karlk90_yaemk_moonlanderlike.elf.XW0OFi.ltrans1.ltrans.o
                0x000000000800f7b0                Vector70
 .text.Vector74
                0x000000000800f834       0x84 /tmp/karlk90_yaemk_moonlanderlike.elf.XW0OFi.ltrans1.ltrans.o
                0x000000000800f834                Vector74
 .text.Vector78
                0x000000000800f8b8       0x84 /tmp/karlk90_yaemk_moonlanderlike.elf.XW0OFi.ltrans1.ltrans.o
                0x000000000800f8b8                Vector78
 .text.Vector7C
                0x000000000800f93c       0x84 /tmp/karlk90_yaemk_moonlanderlike.elf.XW0OFi.ltrans1.ltrans.o
                0x000000000800f93c                Vector7C
 .text.Vector80
                0x000000000800f9c0       0x84 /tmp/karlk90_yaemk_moonlanderlike.elf.XW0OFi.ltrans1.ltrans.o
                0x000000000800f9c0                Vector80
 .text.Vector84
                0x000000000800fa44       0x84 /tmp/karlk90_yaemk_moonlanderlike.elf.XW0OFi.ltrans1.ltrans.o
                0x000000000800fa44                Vector84
 .text.Vector120
                0x000000000800fac8       0x80 /tmp/karlk90_yaemk_moonlanderlike.elf.XW0OFi.ltrans1.ltrans.o
                0x000000000800fac8                Vector120
 .text.Vector124
                0x000000000800fb48       0x84 /tmp/karlk90_yaemk_moonlanderlike.elf.XW0OFi.ltrans1.ltrans.o
                0x000000000800fb48                Vector124
 .text.Vector128
                0x000000000800fbcc       0x84 /tmp/karlk90_yaemk_moonlanderlike.elf.XW0OFi.ltrans1.ltrans.o
                0x000000000800fbcc                Vector128
 .text.Vector12C
                0x000000000800fc50       0x84 /tmp/karlk90_yaemk_moonlanderlike.elf.XW0OFi.ltrans1.ltrans.o
                0x000000000800fc50                Vector12C
 .text.Vector130
                0x000000000800fcd4       0x84 /tmp/karlk90_yaemk_moonlanderlike.elf.XW0OFi.ltrans1.ltrans.o
                0x000000000800fcd4                Vector130
 .text._pal_lld_setgroupmode
                0x000000000800fd58       0xe0 /tmp/karlk90_yaemk_moonlanderlike.elf.XW0OFi.ltrans1.ltrans.o
                0x000000000800fd58                _pal_lld_setgroupmode
 .text.flush.lto_priv.0
                0x000000000800fe38      0x2f4 /tmp/karlk90_yaemk_moonlanderlike.elf.XW0OFi.ltrans1.ltrans.o
                0x000000000800fe38                flush.lto_priv.0
 .text.VectorBC
                0x000000000801012c      0x21c /tmp/karlk90_yaemk_moonlanderlike.elf.XW0OFi.ltrans1.ltrans.o
                0x000000000801012c                VectorBC
 .text.VectorC0
                0x0000000008010348      0x104 /tmp/karlk90_yaemk_moonlanderlike.elf.XW0OFi.ltrans1.ltrans.o
                0x0000000008010348                VectorC0
 .text.VectorB0
                0x000000000801044c      0x10c /tmp/karlk90_yaemk_moonlanderlike.elf.XW0OFi.ltrans1.ltrans.o
                0x000000000801044c                VectorB0
 .text.VectorDC
                0x0000000008010558      0x2f4 /tmp/karlk90_yaemk_moonlanderlike.elf.XW0OFi.ltrans1.ltrans.o
                0x0000000008010558                VectorDC
 .text.Vector16C
                0x000000000801084c      0x504 /tmp/karlk90_yaemk_moonlanderlike.elf.XW0OFi.ltrans1.ltrans.o
                0x000000000801084c                Vector16C
 .text._read_r  0x0000000008010d50        0xc /tmp/karlk90_yaemk_moonlanderlike.elf.XW0OFi.ltrans1.ltrans.o
                0x0000000008010d50                _read_r
 .text._lseek_r
                0x0000000008010d5c        0x4 /tmp/karlk90_yaemk_moonlanderlike.elf.XW0OFi.ltrans1.ltrans.o
                0x0000000008010d5c                _lseek_r
 .text._write_r
                0x0000000008010d60        0x4 /tmp/karlk90_yaemk_moonlanderlike.elf.XW0OFi.ltrans1.ltrans.o
                0x0000000008010d60                _write_r
 .text._close_r
                0x0000000008010d64        0x4 /tmp/karlk90_yaemk_moonlanderlike.elf.XW0OFi.ltrans1.ltrans.o
                0x0000000008010d64                _close_r
 .text._sbrk_r  0x0000000008010d68       0x44 /tmp/karlk90_yaemk_moonlanderlike.elf.XW0OFi.ltrans1.ltrans.o
                0x0000000008010d68                _sbrk_r
 .text._fstat_r
                0x0000000008010dac       0x18 /tmp/karlk90_yaemk_moonlanderlike.elf.XW0OFi.ltrans1.ltrans.o
                0x0000000008010dac                _fstat_r
 .text._isatty_r
                0x0000000008010dc4        0x4 /tmp/karlk90_yaemk_moonlanderlike.elf.XW0OFi.ltrans1.ltrans.o
                0x0000000008010dc4                _isatty_r
 .text._exit    0x0000000008010dc8       0x14 /tmp/karlk90_yaemk_moonlanderlike.elf.XW0OFi.ltrans1.ltrans.o
                0x0000000008010dc8                _exit
 .text._kill    0x0000000008010ddc        0x8 /tmp/karlk90_yaemk_moonlanderlike.elf.XW0OFi.ltrans1.ltrans.o
                0x0000000008010ddc                _kill
 .text._getpid  0x0000000008010de4        0x4 /tmp/karlk90_yaemk_moonlanderlike.elf.XW0OFi.ltrans1.ltrans.o
                0x0000000008010de4                _getpid
 .text._fini    0x0000000008010de8        0x4 /tmp/karlk90_yaemk_moonlanderlike.elf.XW0OFi.ltrans1.ltrans.o
                0x0000000008010de8                _fini
 .text.effect_runner_dx_dy.constprop.0
                0x0000000008010dec      0x214 /tmp/karlk90_yaemk_moonlanderlike.elf.XW0OFi.ltrans1.ltrans.o
                0x0000000008010dec                effect_runner_dx_dy.constprop.0
 .text.effect_runner_dx_dy_dist.constprop.0
                0x0000000008011000      0x140 /tmp/karlk90_yaemk_moonlanderlike.elf.XW0OFi.ltrans1.ltrans.o
                0x0000000008011000                effect_runner_dx_dy_dist.constprop.0
 .text.effect_runner_sin_cos_i.constprop.0
                0x0000000008011140      0x154 /tmp/karlk90_yaemk_moonlanderlike.elf.XW0OFi.ltrans1.ltrans.o
                0x0000000008011140                effect_runner_sin_cos_i.constprop.0
 .text.effect_runner_i.constprop.0
                0x0000000008011294      0x1f4 /tmp/karlk90_yaemk_moonlanderlike.elf.XW0OFi.ltrans1.ltrans.o
                0x0000000008011294                effect_runner_i.constprop.0
 .text.rgb_matrix_set_color.constprop.0
                0x0000000008011488       0xec /tmp/karlk90_yaemk_moonlanderlike.elf.XW0OFi.ltrans1.ltrans.o
                0x0000000008011488                rgb_matrix_set_color.constprop.0
 .text.snprintf_.constprop.0
                0x0000000008011574       0x28 /tmp/karlk90_yaemk_moonlanderlike.elf.XW0OFi.ltrans1.ltrans.o
                0x0000000008011574                snprintf_.constprop.0
 .text.oled_write_ln.constprop.0
                0x000000000801159c      0x128 /tmp/karlk90_yaemk_moonlanderlike.elf.XW0OFi.ltrans1.ltrans.o
                0x000000000801159c                oled_write_ln.constprop.0
 .text._pal_lld_setgroupmode.constprop.0
                0x00000000080116c4       0x98 /tmp/karlk90_yaemk_moonlanderlike.elf.XW0OFi.ltrans1.ltrans.o
                0x00000000080116c4                _pal_lld_setgroupmode.constprop.0
 .text._pal_lld_setgroupmode.constprop.1
                0x000000000801175c       0x78 /tmp/karlk90_yaemk_moonlanderlike.elf.XW0OFi.ltrans1.ltrans.o
                0x000000000801175c                _pal_lld_setgroupmode.constprop.1
 .text._pal_lld_setgroupmode.constprop.2
                0x00000000080117d4       0x78 /tmp/karlk90_yaemk_moonlanderlike.elf.XW0OFi.ltrans1.ltrans.o
                0x00000000080117d4                _pal_lld_setgroupmode.constprop.2
 .text.usbStop.constprop.0
                0x000000000801184c      0x110 /tmp/karlk90_yaemk_moonlanderlike.elf.XW0OFi.ltrans1.ltrans.o
                0x000000000801184c                usbStop.constprop.0
 .text.perform_space_cadet.constprop.0.isra.0
                0x000000000801195c       0xe4 /tmp/karlk90_yaemk_moonlanderlike.elf.XW0OFi.ltrans1.ltrans.o
                0x000000000801195c                perform_space_cadet.constprop.0.isra.0
 .text.get_event_keycode.isra.0
                0x0000000008011a40      0x140 /tmp/karlk90_yaemk_moonlanderlike.elf.XW0OFi.ltrans1.ltrans.o
                0x0000000008011a40                get_event_keycode.isra.0
 .text.rgb_matrix_mode_eeprom_helper.constprop.0
                0x0000000008011b80       0x78 /tmp/karlk90_yaemk_moonlanderlike.elf.XW0OFi.ltrans1.ltrans.o
                0x0000000008011b80                rgb_matrix_mode_eeprom_helper.constprop.0
 .text.rgb_matrix_step
                0x0000000008011bf8       0x70 /tmp/karlk90_yaemk_moonlanderlike.elf.XW0OFi.ltrans1.ltrans.o
                0x0000000008011bf8                rgb_matrix_step
 .text.rgb_matrix_step_reverse
                0x0000000008011c68       0x7c /tmp/karlk90_yaemk_moonlanderlike.elf.XW0OFi.ltrans1.ltrans.o
                0x0000000008011c68                rgb_matrix_step_reverse
 .text.rgb_matrix_increase_hue
                0x0000000008011ce4       0x54 /tmp/karlk90_yaemk_moonlanderlike.elf.XW0OFi.ltrans1.ltrans.o
                0x0000000008011ce4                rgb_matrix_increase_hue
 .text.rgb_matrix_decrease_hue
                0x0000000008011d38       0x54 /tmp/karlk90_yaemk_moonlanderlike.elf.XW0OFi.ltrans1.ltrans.o
                0x0000000008011d38                rgb_matrix_decrease_hue
 .text.rgb_matrix_increase_sat
                0x0000000008011d8c       0x58 /tmp/karlk90_yaemk_moonlanderlike.elf.XW0OFi.ltrans1.ltrans.o
                0x0000000008011d8c                rgb_matrix_increase_sat
 .text.rgb_matrix_decrease_sat
                0x0000000008011de4       0x54 /tmp/karlk90_yaemk_moonlanderlike.elf.XW0OFi.ltrans1.ltrans.o
                0x0000000008011de4                rgb_matrix_decrease_sat
 .text.rgb_matrix_increase_val
                0x0000000008011e38       0x54 /tmp/karlk90_yaemk_moonlanderlike.elf.XW0OFi.ltrans1.ltrans.o
                0x0000000008011e38                rgb_matrix_increase_val
 .text.rgb_matrix_decrease_val
                0x0000000008011e8c       0x50 /tmp/karlk90_yaemk_moonlanderlike.elf.XW0OFi.ltrans1.ltrans.o
                0x0000000008011e8c                rgb_matrix_decrease_val
 .text.rgb_matrix_decrease_speed
                0x0000000008011edc       0x4c /tmp/karlk90_yaemk_moonlanderlike.elf.XW0OFi.ltrans1.ltrans.o
                0x0000000008011edc                rgb_matrix_decrease_speed
 .text.rgb_matrix_increase_speed
                0x0000000008011f28       0x4c /tmp/karlk90_yaemk_moonlanderlike.elf.XW0OFi.ltrans1.ltrans.o
                0x0000000008011f28                rgb_matrix_increase_speed
 .text.oled_render.part.0
                0x0000000008011f74      0x578 /tmp/karlk90_yaemk_moonlanderlike.elf.XW0OFi.ltrans1.ltrans.o
                0x0000000008011f74                oled_render.part.0
 .text.add_key_to_report.constprop.0
                0x00000000080124ec       0xa8 /tmp/karlk90_yaemk_moonlanderlike.elf.XW0OFi.ltrans1.ltrans.o
                0x00000000080124ec                add_key_to_report.constprop.0
 .text.register_code_P.constprop.0
                0x0000000008012594      0x194 /tmp/karlk90_yaemk_moonlanderlike.elf.XW0OFi.ltrans1.ltrans.o
                0x0000000008012594                register_code_P.constprop.0
 .text.unregister_code_P.constprop.0
                0x0000000008012728      0x10c /tmp/karlk90_yaemk_moonlanderlike.elf.XW0OFi.ltrans1.ltrans.o
                0x0000000008012728                unregister_code_P.constprop.0
 .text.i2c_init
                0x0000000008012834       0x4c .build/obj_karlk90_yaemk_moonlanderlike/i2c_master.a(i2c_master.o)
                0x0000000008012834                i2c_init
 .text.i2c_transmit
                0x0000000008012880       0x70 .build/obj_karlk90_yaemk_moonlanderlike/i2c_master.a(i2c_master.o)
                0x0000000008012880                i2c_transmit
 .text.i2c_receive
                0x00000000080128f0       0x60 .build/obj_karlk90_yaemk_moonlanderlike/i2c_master.a(i2c_master.o)
                0x00000000080128f0                i2c_receive
 .text.i2c_writeReg
                0x0000000008012950       0x9c .build/obj_karlk90_yaemk_moonlanderlike/i2c_master.a(i2c_master.o)
                0x0000000008012950                i2c_writeReg
 .text.SlaveThread
                0x00000000080129ec      0x120 .build/obj_karlk90_yaemk_moonlanderlike/serial_usart.a(serial_usart.o)
 .text.usart_init
                0x0000000008012b0c       0x28 .build/obj_karlk90_yaemk_moonlanderlike/serial_usart.a(serial_usart.o)
                0x0000000008012b0c                usart_init
 .text.usart_master_init
                0x0000000008012b34        0x8 .build/obj_karlk90_yaemk_moonlanderlike/serial_usart.a(serial_usart.o)
                0x0000000008012b34                usart_master_init
 .text.usart_slave_init
                0x0000000008012b3c        0x8 .build/obj_karlk90_yaemk_moonlanderlike/serial_usart.a(serial_usart.o)
                0x0000000008012b3c                usart_slave_init
 .text.soft_serial_target_init
                0x0000000008012b44       0x3c .build/obj_karlk90_yaemk_moonlanderlike/serial_usart.a(serial_usart.o)
                0x0000000008012b44                soft_serial_target_init
 .text.soft_serial_initiator_init
                0x0000000008012b80       0x20 .build/obj_karlk90_yaemk_moonlanderlike/serial_usart.a(serial_usart.o)
                0x0000000008012b80                soft_serial_initiator_init
 .text.soft_serial_transaction
                0x0000000008012ba0      0x1a0 .build/obj_karlk90_yaemk_moonlanderlike/serial_usart.a(serial_usart.o)
                0x0000000008012ba0                soft_serial_transaction
 *(.glue_7t)
 .glue_7t       0x0000000008012d40        0x0 linker stubs
 *(.glue_7)
 .glue_7        0x0000000008012d40        0x0 linker stubs
 *(.gcc*)
                0x0000000008012d40                __text_end__ = .

.vfp11_veneer   0x0000000008012d40        0x0
 .vfp11_veneer  0x0000000008012d40        0x0 linker stubs

.v4_bx          0x0000000008012d40        0x0
 .v4_bx         0x0000000008012d40        0x0 linker stubs

.iplt           0x0000000008012d40        0x0
 .iplt          0x0000000008012d40        0x0 .build/obj_karlk90_yaemk_moonlanderlike/i2c_master.a(i2c_master.o)

.rodata         0x0000000008012d40     0x2100
                0x0000000008012d40                __rodata_base__ = .
 *(.rodata)
 .rodata        0x0000000008012d40        0x3 /tmp/karlk90_yaemk_moonlanderlike.elf.XW0OFi.ltrans0.ltrans.o
 *fill*         0x0000000008012d43        0x1 
 .rodata        0x0000000008012d44      0x101 /usr/lib/gcc/arm-none-eabi/10.3.1/../../../arm-none-eabi/lib/thumb/v7e-m+fp/hard/libg_nano.a(lib_a-ctype_.o)
                0x0000000008012d44                _ctype_
 *fill*         0x0000000008012e45        0x3 
 .rodata        0x0000000008012e48        0x4 /usr/lib/gcc/arm-none-eabi/10.3.1/../../../arm-none-eabi/lib/thumb/v7e-m+fp/hard/libg_nano.a(lib_a-impure.o)
                0x0000000008012e48                _global_impure_ptr
 .rodata        0x0000000008012e4c       0x60 /usr/lib/gcc/arm-none-eabi/10.3.1/../../../arm-none-eabi/lib/thumb/v7e-m+fp/hard/libg_nano.a(lib_a-findfp.o)
                0x0000000008012e4c                __sf_fake_stderr
                0x0000000008012e6c                __sf_fake_stdout
                0x0000000008012e8c                __sf_fake_stdin
 *(.rodata.*)
 .rodata.send_keyboard_report_immediate.part.0.str1.4
                0x0000000008012eac       0x1a /tmp/karlk90_yaemk_moonlanderlike.elf.XW0OFi.ltrans0.ltrans.o
                                         0x1e (size before relaxing)
 *fill*         0x0000000008012ec6        0x2 
 .rodata.transaction_handler_master.str1.4
                0x0000000008012ec8       0x16 /tmp/karlk90_yaemk_moonlanderlike.elf.XW0OFi.ltrans0.ltrans.o
 *fill*         0x0000000008012ede        0x2 
 .rodata.matrix_scan.str1.4
                0x0000000008012ee0       0x93 /tmp/karlk90_yaemk_moonlanderlike.elf.XW0OFi.ltrans0.ltrans.o
 *fill*         0x0000000008012f73        0x1 
 .rodata.encoder_handlers_master.str1.4
                0x0000000008012f74       0x2b /tmp/karlk90_yaemk_moonlanderlike.elf.XW0OFi.ltrans0.ltrans.o
 *fill*         0x0000000008012f9f        0x1 
 .rodata.mousekey_send.str1.4
                0x0000000008012fa0       0x43 /tmp/karlk90_yaemk_moonlanderlike.elf.XW0OFi.ltrans0.ltrans.o
                                         0x47 (size before relaxing)
 *fill*         0x0000000008012fe3        0x1 
 .rodata.process_record.str1.4
                0x0000000008012fe4       0x75 /tmp/karlk90_yaemk_moonlanderlike.elf.XW0OFi.ltrans0.ltrans.o
 *fill*         0x0000000008013059        0x3 
 .rodata.eeconfig_update_rgb_matrix_default.str1.4
                0x000000000801305c       0x24 /tmp/karlk90_yaemk_moonlanderlike.elf.XW0OFi.ltrans0.ltrans.o
 .rodata.matrix_init.str1.4
                0x0000000008013080      0x186 /tmp/karlk90_yaemk_moonlanderlike.elf.XW0OFi.ltrans0.ltrans.o
 *fill*         0x0000000008013206        0x2 
 .rodata.main.str1.4
                0x0000000008013208      0x1eb /tmp/karlk90_yaemk_moonlanderlike.elf.XW0OFi.ltrans0.ltrans.o
                                        0x1ef (size before relaxing)
 *fill*         0x00000000080133f3        0x1 
 .rodata.CIE1931_CURVE
                0x00000000080133f4      0x100 /tmp/karlk90_yaemk_moonlanderlike.elf.XW0OFi.ltrans0.ltrans.o
 .rodata.CSWTCH.10.lto_priv.0
                0x00000000080134f4       0x2e /tmp/karlk90_yaemk_moonlanderlike.elf.XW0OFi.ltrans0.ltrans.o
                0x00000000080134f4                CSWTCH.10.lto_priv.0
 *fill*         0x0000000008013522        0x2 
 .rodata._stm32_dma_streams
                0x0000000008013524       0xc0 /tmp/karlk90_yaemk_moonlanderlike.elf.XW0OFi.ltrans0.ltrans.o
                0x0000000008013524                _stm32_dma_streams
 .rodata.ascii_to_altgr_lut
                0x00000000080135e4       0x10 /tmp/karlk90_yaemk_moonlanderlike.elf.XW0OFi.ltrans0.ltrans.o
 .rodata.ascii_to_keycode_lut
                0x00000000080135f4       0x80 /tmp/karlk90_yaemk_moonlanderlike.elf.XW0OFi.ltrans0.ltrans.o
 .rodata.ascii_to_shift_lut
                0x0000000008013674       0x10 /tmp/karlk90_yaemk_moonlanderlike.elf.XW0OFi.ltrans0.ltrans.o
 .rodata.b_m16_interleave.lto_priv.0
                0x0000000008013684        0x8 /tmp/karlk90_yaemk_moonlanderlike.elf.XW0OFi.ltrans0.ltrans.o
                0x0000000008013684                b_m16_interleave.lto_priv.0
 .rodata.col_pins.lto_priv.0
                0x000000000801368c       0x20 /tmp/karlk90_yaemk_moonlanderlike.elf.XW0OFi.ltrans0.ltrans.o
 .rodata.crc_table
                0x00000000080136ac      0x400 /tmp/karlk90_yaemk_moonlanderlike.elf.XW0OFi.ltrans0.ltrans.o
 .rodata.display_flipped.12
                0x0000000008013aac        0x5 /tmp/karlk90_yaemk_moonlanderlike.elf.XW0OFi.ltrans0.ltrans.o
 *fill*         0x0000000008013ab1        0x3 
 .rodata.display_normal.13
                0x0000000008013ab4        0x5 /tmp/karlk90_yaemk_moonlanderlike.elf.XW0OFi.ltrans0.ltrans.o
 *fill*         0x0000000008013ab9        0x3 
 .rodata.display_off.4
                0x0000000008013abc        0x2 /tmp/karlk90_yaemk_moonlanderlike.elf.XW0OFi.ltrans0.ltrans.o
 *fill*         0x0000000008013abe        0x2 
 .rodata.display_on.5.lto_priv.0
                0x0000000008013ac0        0x2 /tmp/karlk90_yaemk_moonlanderlike.elf.XW0OFi.ltrans0.ltrans.o
                0x0000000008013ac0                display_on.5.lto_priv.0
 *fill*         0x0000000008013ac2        0x2 
 .rodata.display_setup1.14
                0x0000000008013ac4        0xb /tmp/karlk90_yaemk_moonlanderlike.elf.XW0OFi.ltrans0.ltrans.o
 *fill*         0x0000000008013acf        0x1 
 .rodata.display_setup2.11
                0x0000000008013ad0        0xd /tmp/karlk90_yaemk_moonlanderlike.elf.XW0OFi.ltrans0.ltrans.o
 *fill*         0x0000000008013add        0x3 
 .rodata.encoder_LUT
                0x0000000008013ae0       0x10 /tmp/karlk90_yaemk_moonlanderlike.elf.XW0OFi.ltrans0.ltrans.o
 .rodata.ep0config.lto_priv.0
                0x0000000008013af0       0x24 /tmp/karlk90_yaemk_moonlanderlike.elf.XW0OFi.ltrans0.ltrans.o
                0x0000000008013af0                ep0config.lto_priv.0
 .rodata.g_led_config
                0x0000000008013b14      0x140 /tmp/karlk90_yaemk_moonlanderlike.elf.XW0OFi.ltrans0.ltrans.o
                0x0000000008013b14                g_led_config
 .rodata.logo   0x0000000008013c54      0x400 /tmp/karlk90_yaemk_moonlanderlike.elf.XW0OFi.ltrans0.ltrans.o
 .rodata.row_pins
                0x0000000008014054       0x14 /tmp/karlk90_yaemk_moonlanderlike.elf.XW0OFi.ltrans0.ltrans.o
 .rodata.split_shmem
                0x0000000008014068        0x4 /tmp/karlk90_yaemk_moonlanderlike.elf.XW0OFi.ltrans0.ltrans.o
                0x0000000008014068                split_shmem
 .rodata.usbcfg
                0x000000000801406c       0x10 /tmp/karlk90_yaemk_moonlanderlike.elf.XW0OFi.ltrans0.ltrans.o
 .rodata.vmt.lto_priv.0
                0x000000000801407c       0x28 /tmp/karlk90_yaemk_moonlanderlike.elf.XW0OFi.ltrans0.ltrans.o
 .rodata.vmt.lto_priv.1
                0x00000000080140a4       0x28 /tmp/karlk90_yaemk_moonlanderlike.elf.XW0OFi.ltrans0.ltrans.o
 .rodata._exit.str1.4
                0x00000000080140cc        0x5 /tmp/karlk90_yaemk_moonlanderlike.elf.XW0OFi.ltrans1.ltrans.o
 *fill*         0x00000000080140d1        0x3 
 .rodata.rgb_matrix_mode_eeprom_helper.constprop.0.str1.4
                0x00000000080140d4       0x1a /tmp/karlk90_yaemk_moonlanderlike.elf.XW0OFi.ltrans1.ltrans.o
                                         0x22 (size before relaxing)
 .rodata.rgb_matrix_increase_hue.str1.4
                0x00000000080140ee       0x23 /tmp/karlk90_yaemk_moonlanderlike.elf.XW0OFi.ltrans1.ltrans.o
 *fill*         0x00000000080140ee        0x2 
 .rodata.rgb_matrix_decrease_speed.str1.4
                0x00000000080140f0       0x1f /tmp/karlk90_yaemk_moonlanderlike.elf.XW0OFi.ltrans1.ltrans.o
 *fill*         0x000000000801410f        0x1 
 .rodata.oled_render.part.0.str1.4
                0x0000000008014110       0x5b /tmp/karlk90_yaemk_moonlanderlike.elf.XW0OFi.ltrans1.ltrans.o
                                         0x70 (size before relaxing)
 *fill*         0x000000000801416b        0x1 
 .rodata.add_key_to_report.constprop.0.str1.4
                0x000000000801416c       0x1e /tmp/karlk90_yaemk_moonlanderlike.elf.XW0OFi.ltrans1.ltrans.o
 *fill*         0x000000000801418a        0x2 
 .rodata.CSWTCH.1
                0x000000000801418c        0xc /tmp/karlk90_yaemk_moonlanderlike.elf.XW0OFi.ltrans1.ltrans.o
 .rodata.CSWTCH.2
                0x0000000008014198       0x10 /tmp/karlk90_yaemk_moonlanderlike.elf.XW0OFi.ltrans1.ltrans.o
 .rodata.CSWTCH.3
                0x00000000080141a8       0x10 /tmp/karlk90_yaemk_moonlanderlike.elf.XW0OFi.ltrans1.ltrans.o
 .rodata.CSWTCH.4
                0x00000000080141b8        0x8 /tmp/karlk90_yaemk_moonlanderlike.elf.XW0OFi.ltrans1.ltrans.o
 .rodata.ConfigurationDescriptor
                0x00000000080141c0       0x7b /tmp/karlk90_yaemk_moonlanderlike.elf.XW0OFi.ltrans1.ltrans.o
 *fill*         0x000000000801423b        0x1 
 .rodata.ConsoleReport
                0x000000000801423c       0x22 /tmp/karlk90_yaemk_moonlanderlike.elf.XW0OFi.ltrans1.ltrans.o
 *fill*         0x000000000801425e        0x2 
 .rodata.DeviceDescriptor
                0x0000000008014260       0x12 /tmp/karlk90_yaemk_moonlanderlike.elf.XW0OFi.ltrans1.ltrans.o
 *fill*         0x0000000008014272        0x2 
 .rodata.KeyboardReport
                0x0000000008014274       0x40 /tmp/karlk90_yaemk_moonlanderlike.elf.XW0OFi.ltrans1.ltrans.o
 .rodata.LanguageString
                0x00000000080142b4        0x4 /tmp/karlk90_yaemk_moonlanderlike.elf.XW0OFi.ltrans1.ltrans.o
 .rodata.ManufacturerString
                0x00000000080142b8       0x12 /tmp/karlk90_yaemk_moonlanderlike.elf.XW0OFi.ltrans1.ltrans.o
 *fill*         0x00000000080142ca        0x2 
 .rodata.ProductString
                0x00000000080142cc       0x1e /tmp/karlk90_yaemk_moonlanderlike.elf.XW0OFi.ltrans1.ltrans.o
 *fill*         0x00000000080142ea        0x2 
 .rodata.RawReport
                0x00000000080142ec       0x22 /tmp/karlk90_yaemk_moonlanderlike.elf.XW0OFi.ltrans1.ltrans.o
 *fill*         0x000000000801430e        0x2 
 .rodata.SharedReport
                0x0000000008014310       0xb6 /tmp/karlk90_yaemk_moonlanderlike.elf.XW0OFi.ltrans1.ltrans.o
 *fill*         0x00000000080143c6        0x2 
 .rodata.active_status
                0x00000000080143c8        0x2 /tmp/karlk90_yaemk_moonlanderlike.elf.XW0OFi.ltrans1.ltrans.o
 *fill*         0x00000000080143ca        0x2 
 .rodata.font   0x00000000080143cc      0x540 /tmp/karlk90_yaemk_moonlanderlike.elf.XW0OFi.ltrans1.ltrans.o
 .rodata.halted_status
                0x000000000801490c        0x2 /tmp/karlk90_yaemk_moonlanderlike.elf.XW0OFi.ltrans1.ltrans.o
 *fill*         0x000000000801490e        0x2 
 .rodata.kbd_ep_config
                0x0000000008014910       0x24 /tmp/karlk90_yaemk_moonlanderlike.elf.XW0OFi.ltrans1.ltrans.o
 .rodata.keymaps
                0x0000000008014934      0x280 /tmp/karlk90_yaemk_moonlanderlike.elf.XW0OFi.ltrans1.ltrans.o
 .rodata.ram_areas
                0x0000000008014bb4       0x80 /tmp/karlk90_yaemk_moonlanderlike.elf.XW0OFi.ltrans1.ltrans.o
 .rodata.shared_ep_config
                0x0000000008014c34       0x24 /tmp/karlk90_yaemk_moonlanderlike.elf.XW0OFi.ltrans1.ltrans.o
 .rodata.source_map.8
                0x0000000008014c58        0x8 /tmp/karlk90_yaemk_moonlanderlike.elf.XW0OFi.ltrans1.ltrans.o
 .rodata.target_map.7
                0x0000000008014c60        0x8 /tmp/karlk90_yaemk_moonlanderlike.elf.XW0OFi.ltrans1.ltrans.o
 .rodata.ws2812_pwm_config.1
                0x0000000008014c68       0x44 /tmp/karlk90_yaemk_moonlanderlike.elf.XW0OFi.ltrans1.ltrans.o
 .rodata.zero_status
                0x0000000008014cac        0x2 /tmp/karlk90_yaemk_moonlanderlike.elf.XW0OFi.ltrans1.ltrans.o
 *fill*         0x0000000008014cae        0x2 
 .rodata.i2cconfig
                0x0000000008014cb0        0xc .build/obj_karlk90_yaemk_moonlanderlike/i2c_master.a(i2c_master.o)
 .rodata.soft_serial_transaction.str1.4
                0x0000000008014cbc       0xb9 .build/obj_karlk90_yaemk_moonlanderlike/serial_usart.a(serial_usart.o)
 *fill*         0x0000000008014d75        0x3 
 .rodata.str1.4
                0x0000000008014d78       0x4a /usr/lib/gcc/arm-none-eabi/10.3.1/../../../arm-none-eabi/lib/thumb/v7e-m+fp/hard/libg_nano.a(lib_a-rand.o)
 *fill*         0x0000000008014dc2        0x2 
 .rodata.str1.4
                0x0000000008014dc4       0x3f /usr/lib/gcc/arm-none-eabi/10.3.1/../../../arm-none-eabi/lib/thumb/v7e-m+fp/hard/libg_nano.a(lib_a-assert.o)
                                         0x43 (size before relaxing)
 *fill*         0x0000000008014e03        0x1 
 .rodata.str1.4
                0x0000000008014e04       0x13 /usr/lib/gcc/arm-none-eabi/10.3.1/../../../arm-none-eabi/lib/thumb/v7e-m+fp/hard/libg_nano.a(lib_a-nano-vfprintf.o)
 *fill*         0x0000000008014e17        0x1 
 .rodata.str1.4
                0x0000000008014e18       0x25 /usr/lib/gcc/arm-none-eabi/10.3.1/../../../arm-none-eabi/lib/thumb/v7e-m+fp/hard/libg_nano.a(lib_a-nano-vfprintf_i.o)
                0x0000000008014e40                . = ALIGN (0x4)
 *fill*         0x0000000008014e3d        0x3 
                0x0000000008014e40                __rodata_end__ = .

.ARM.extab
 *(.ARM.extab* .gnu.linkonce.armextab.*)

.ARM.exidx      0x0000000008014e40        0x8
                0x0000000008014e40                __exidx_base__ = .
                0x0000000008014e40                __exidx_start = .
 *(.ARM.exidx* .gnu.linkonce.armexidx.*)
 .ARM.exidx     0x0000000008014e40        0x8 /usr/lib/gcc/arm-none-eabi/10.3.1/thumb/v7e-m+fp/hard/libgcc.a(_udivmoddi4.o)
                0x0000000008014e48                __exidx_end__ = .
                0x0000000008014e48                __exidx_end = .

.rel.dyn        0x0000000008014e48        0x0
 .rel.iplt      0x0000000008014e48        0x0 .build/obj_karlk90_yaemk_moonlanderlike/i2c_master.a(i2c_master.o)

.eh_frame_hdr
 *(.eh_frame_hdr)

.eh_frame
 *(.eh_frame)

.data           0x0000000020000c00      0x3f0 load address 0x0000000008014e48
                [!provide]                        PROVIDE (_textdata = LOADADDR (.data))
                [!provide]                        PROVIDE (_data = .)
                0x0000000008014e48                __textdata_base__ = LOADADDR (.data)
                0x0000000020000c00                __data_base__ = .
 *(.data)
 .data          0x0000000020000c00       0x64 /usr/lib/gcc/arm-none-eabi/10.3.1/../../../arm-none-eabi/lib/thumb/v7e-m+fp/hard/libg_nano.a(lib_a-impure.o)
                0x0000000020000c00                _impure_ptr
 *(.data.*)
 .data.chibios_driver
                0x0000000020000c64       0x18 /tmp/karlk90_yaemk_moonlanderlike.elf.XW0OFi.ltrans0.ltrans.o
 *fill*         0x0000000020000c7c        0x4 
 .data.drivers.lto_priv.0
                0x0000000020000c80      0x2a8 /tmp/karlk90_yaemk_moonlanderlike.elf.XW0OFi.ltrans0.ltrans.o
                0x0000000020000c80                drivers.lto_priv.0
 .data.encoders_pad_a
                0x0000000020000f28        0x4 /tmp/karlk90_yaemk_moonlanderlike.elf.XW0OFi.ltrans0.ltrans.o
 .data.encoders_pad_b
                0x0000000020000f2c        0x4 /tmp/karlk90_yaemk_moonlanderlike.elf.XW0OFi.ltrans0.ltrans.o
 .data.func     0x0000000020000f30        0x4 /tmp/karlk90_yaemk_moonlanderlike.elf.XW0OFi.ltrans0.ltrans.o
 .data.isLeftHand
                0x0000000020000f34        0x1 /tmp/karlk90_yaemk_moonlanderlike.elf.XW0OFi.ltrans0.ltrans.o
 *fill*         0x0000000020000f35        0x1 
 .data.keyboard_protocol
                0x0000000020000f36        0x1 /tmp/karlk90_yaemk_moonlanderlike.elf.XW0OFi.ltrans0.ltrans.o
                0x0000000020000f36                keyboard_protocol
 .data.last_state.0
                0x0000000020000f37        0x1 /tmp/karlk90_yaemk_moonlanderlike.elf.XW0OFi.ltrans0.ltrans.o
 .data.rgb_effect_params.lto_priv.0
                0x0000000020000f38        0x3 /tmp/karlk90_yaemk_moonlanderlike.elf.XW0OFi.ltrans0.ltrans.o
                0x0000000020000f38                rgb_effect_params.lto_priv.0
 .data.rgb_last_effect
                0x0000000020000f3b        0x1 /tmp/karlk90_yaemk_moonlanderlike.elf.XW0OFi.ltrans0.ltrans.o
 .data.rgb_last_enable
                0x0000000020000f3c        0x1 /tmp/karlk90_yaemk_moonlanderlike.elf.XW0OFi.ltrans0.ltrans.o
 .data.rgb_task_state.lto_priv.0
                0x0000000020000f3d        0x1 /tmp/karlk90_yaemk_moonlanderlike.elf.XW0OFi.ltrans0.ltrans.o
                0x0000000020000f3d                rgb_task_state.lto_priv.0
 *fill*         0x0000000020000f3e        0x2 
 .data.split_transaction_table
                0x0000000020000f40       0x90 /tmp/karlk90_yaemk_moonlanderlike.elf.XW0OFi.ltrans0.ltrans.o
                0x0000000020000f40                split_transaction_table
 .data.display_start.10
                0x0000000020000fd0        0x4 /tmp/karlk90_yaemk_moonlanderlike.elf.XW0OFi.ltrans1.ltrans.o
 .data.linecoding
                0x0000000020000fd4        0x7 /tmp/karlk90_yaemk_moonlanderlike.elf.XW0OFi.ltrans1.ltrans.o
 *fill*         0x0000000020000fdb        0x1 
 .data.serial_config
                0x0000000020000fdc       0x10 .build/obj_karlk90_yaemk_moonlanderlike/serial_usart.a(serial_usart.o)
 .data.serial_driver
                0x0000000020000fec        0x4 .build/obj_karlk90_yaemk_moonlanderlike/serial_usart.a(serial_usart.o)
 *(.ramtext)
                0x0000000020000ff0                . = ALIGN (0x4)
                [!provide]                        PROVIDE (_edata = .)
                0x0000000020000ff0                __data_end__ = .

.igot.plt       0x0000000020000ff0        0x0 load address 0x0000000008015238
 .igot.plt      0x0000000020000ff0        0x0 .build/obj_karlk90_yaemk_moonlanderlike/i2c_master.a(i2c_master.o)

.bss            0x0000000020000ff0     0x32b4 load address 0x0000000008015238
                0x0000000020000ff0                __bss_base__ = .
 *(.bss)
 .bss           0x0000000020000ff0        0x8 /usr/lib/gcc/arm-none-eabi/10.3.1/../../../arm-none-eabi/lib/thumb/v7e-m+fp/hard/libg_nano.a(lib_a-nano-mallocr.o)
                0x0000000020000ff0                __malloc_free_list
                0x0000000020000ff4                __malloc_sbrk_start
 .bss           0x0000000020000ff8        0x4 /usr/lib/gcc/arm-none-eabi/10.3.1/../../../arm-none-eabi/lib/thumb/v7e-m+fp/hard/libg_nano.a(lib_a-reent.o)
                0x0000000020000ff8                errno
 *(.bss.*)
 .bss.PWMD1     0x0000000020000ffc       0x1c /tmp/karlk90_yaemk_moonlanderlike.elf.XW0OFi.ltrans0.ltrans.o
                0x0000000020000ffc                PWMD1
 .bss.USBD1     0x0000000020001018       0x88 /tmp/karlk90_yaemk_moonlanderlike.elf.XW0OFi.ltrans0.ltrans.o
                0x0000000020001018                USBD1
 .bss.__compound_literal.0
                0x00000000200010a0       0x90 /tmp/karlk90_yaemk_moonlanderlike.elf.XW0OFi.ltrans0.ltrans.o
 .bss.__compound_literal.1
                0x0000000020001130       0x90 /tmp/karlk90_yaemk_moonlanderlike.elf.XW0OFi.ltrans0.ltrans.o
 .bss.__compound_literal.2
                0x00000000200011c0       0x90 /tmp/karlk90_yaemk_moonlanderlike.elf.XW0OFi.ltrans0.ltrans.o
 .bss.__compound_literal.3
                0x0000000020001250       0x90 /tmp/karlk90_yaemk_moonlanderlike.elf.XW0OFi.ltrans0.ltrans.o
 .bss.ch        0x00000000200012e0       0x4c /tmp/karlk90_yaemk_moonlanderlike.elf.XW0OFi.ltrans0.ltrans.o
                0x00000000200012e0                ch
 *fill*         0x000000002000132c        0x4 
 .bss.ch_idle_thread_wa
                0x0000000020001330      0x140 /tmp/karlk90_yaemk_moonlanderlike.elf.XW0OFi.ltrans0.ltrans.o
 .bss.ch_memcore
                0x0000000020001470        0x8 /tmp/karlk90_yaemk_moonlanderlike.elf.XW0OFi.ltrans0.ltrans.o
                0x0000000020001470                ch_memcore
 .bss.connection_check_timer.0
                0x0000000020001478        0x2 /tmp/karlk90_yaemk_moonlanderlike.elf.XW0OFi.ltrans0.ltrans.o
 .bss.connection_errors
                0x000000002000147a        0x1 /tmp/karlk90_yaemk_moonlanderlike.elf.XW0OFi.ltrans0.ltrans.o
 .bss.counters_need_update
                0x000000002000147b        0x1 /tmp/karlk90_yaemk_moonlanderlike.elf.XW0OFi.ltrans0.ltrans.o
 .bss.debounce_counters
                0x000000002000147c        0x4 /tmp/karlk90_yaemk_moonlanderlike.elf.XW0OFi.ltrans0.ltrans.o
 .bss.debug_config
                0x0000000020001480        0x1 /tmp/karlk90_yaemk_moonlanderlike.elf.XW0OFi.ltrans0.ltrans.o
                0x0000000020001480                debug_config
 .bss.decrease_heatmap_values
                0x0000000020001481        0x1 /tmp/karlk90_yaemk_moonlanderlike.elf.XW0OFi.ltrans0.ltrans.o
 .bss.default_layer_state
                0x0000000020001482        0x1 /tmp/karlk90_yaemk_moonlanderlike.elf.XW0OFi.ltrans0.ltrans.o
 .bss.determined.2
                0x0000000020001483        0x1 /tmp/karlk90_yaemk_moonlanderlike.elf.XW0OFi.ltrans0.ltrans.o
 .bss.dirty_rgb_matrix.lto_priv.0
                0x0000000020001484        0x1 /tmp/karlk90_yaemk_moonlanderlike.elf.XW0OFi.ltrans0.ltrans.o
                0x0000000020001484                dirty_rgb_matrix.lto_priv.0
 *fill*         0x0000000020001485        0x3 
 .bss.dma.lto_priv.0
                0x0000000020001488       0x68 /tmp/karlk90_yaemk_moonlanderlike.elf.XW0OFi.ltrans0.ltrans.o
                0x0000000020001488                dma.lto_priv.0
 .bss.driver.lto_priv.0
                0x00000000200014f0        0x4 /tmp/karlk90_yaemk_moonlanderlike.elf.XW0OFi.ltrans0.ltrans.o
                0x00000000200014f0                driver.lto_priv.0
 .bss.drop.0    0x00000000200014f4        0x1 /tmp/karlk90_yaemk_moonlanderlike.elf.XW0OFi.ltrans0.ltrans.o
 .bss.dummy     0x00000000200014f5        0x1 /tmp/karlk90_yaemk_moonlanderlike.elf.XW0OFi.ltrans0.ltrans.o
 *fill*         0x00000000200014f6        0x2 
 .bss.encoder_pulses
                0x00000000200014f8        0x1 /tmp/karlk90_yaemk_moonlanderlike.elf.XW0OFi.ltrans0.ltrans.o
 *fill*         0x00000000200014f9        0x3 
 .bss.encoder_state
                0x00000000200014fc        0x1 /tmp/karlk90_yaemk_moonlanderlike.elf.XW0OFi.ltrans0.ltrans.o
 *fill*         0x00000000200014fd        0x3 
 .bss.encoder_value
                0x0000000020001500        0x2 /tmp/karlk90_yaemk_moonlanderlike.elf.XW0OFi.ltrans0.ltrans.o
 *fill*         0x0000000020001502        0x2 
 .bss.ep0_state.lto_priv.0
                0x0000000020001504       0x14 /tmp/karlk90_yaemk_moonlanderlike.elf.XW0OFi.ltrans0.ltrans.o
                0x0000000020001504                ep0_state.lto_priv.0
 .bss.ep0setup_buffer.lto_priv.0
                0x0000000020001518        0x8 /tmp/karlk90_yaemk_moonlanderlike.elf.XW0OFi.ltrans0.ltrans.o
                0x0000000020001518                ep0setup_buffer.lto_priv.0
 .bss.event_queue
                0x0000000020001520       0x10 /tmp/karlk90_yaemk_moonlanderlike.elf.XW0OFi.ltrans0.ltrans.o
                0x0000000020001520                event_queue
 .bss.event_queue_head
                0x0000000020001530        0x1 /tmp/karlk90_yaemk_moonlanderlike.elf.XW0OFi.ltrans0.ltrans.o
                0x0000000020001530                event_queue_head
 .bss.event_queue_tail
                0x0000000020001531        0x1 /tmp/karlk90_yaemk_moonlanderlike.elf.XW0OFi.ltrans0.ltrans.o
                0x0000000020001531                event_queue_tail
 *fill*         0x0000000020001532        0x2 
 .bss.g_rgb_frame_buffer
                0x0000000020001534       0x50 /tmp/karlk90_yaemk_moonlanderlike.elf.XW0OFi.ltrans0.ltrans.o
 .bss.g_rgb_timer
                0x0000000020001584        0x4 /tmp/karlk90_yaemk_moonlanderlike.elf.XW0OFi.ltrans0.ltrans.o
                0x0000000020001584                g_rgb_timer
 .bss.grave_esc_was_shifted
                0x0000000020001588        0x1 /tmp/karlk90_yaemk_moonlanderlike.elf.XW0OFi.ltrans0.ltrans.o
 *fill*         0x0000000020001589        0x1 
 .bss.heatmap_decrease_timer
                0x000000002000158a        0x2 /tmp/karlk90_yaemk_moonlanderlike.elf.XW0OFi.ltrans0.ltrans.o
 .bss.is_master.1
                0x000000002000158c        0x1 /tmp/karlk90_yaemk_moonlanderlike.elf.XW0OFi.ltrans0.ltrans.o
 *fill*         0x000000002000158d        0x3 
 .bss.keyboard_idle_timer.lto_priv.0
                0x0000000020001590       0x14 /tmp/karlk90_yaemk_moonlanderlike.elf.XW0OFi.ltrans0.ltrans.o
                0x0000000020001590                keyboard_idle_timer.lto_priv.0
 .bss.keyboard_report
                0x00000000200015a4       0x20 /tmp/karlk90_yaemk_moonlanderlike.elf.XW0OFi.ltrans0.ltrans.o
                0x00000000200015a4                keyboard_report
 .bss.keyboard_report_has_deferred_keycodes
                0x00000000200015c4        0x1 /tmp/karlk90_yaemk_moonlanderlike.elf.XW0OFi.ltrans0.ltrans.o
 *fill*         0x00000000200015c5        0x3 
 .bss.keymap_config
                0x00000000200015c8        0x2 /tmp/karlk90_yaemk_moonlanderlike.elf.XW0OFi.ltrans0.ltrans.o
                0x00000000200015c8                keymap_config
 .bss.last_connected.0
                0x00000000200015ca        0x1 /tmp/karlk90_yaemk_moonlanderlike.elf.XW0OFi.ltrans0.ltrans.o
 *fill*         0x00000000200015cb        0x1 
 .bss.last_consumer_report.lto_priv.0
                0x00000000200015cc        0x2 /tmp/karlk90_yaemk_moonlanderlike.elf.XW0OFi.ltrans0.ltrans.o
                0x00000000200015cc                last_consumer_report.lto_priv.0
 *fill*         0x00000000200015ce        0x2 
 .bss.last_default_layer_state_update.5
                0x00000000200015d0        0x4 /tmp/karlk90_yaemk_moonlanderlike.elf.XW0OFi.ltrans0.ltrans.o
 .bss.last_keyboard_report
                0x00000000200015d4       0x20 /tmp/karlk90_yaemk_moonlanderlike.elf.XW0OFi.ltrans0.ltrans.o
 .bss.last_layer_state_update.6
                0x00000000200015f4        0x4 /tmp/karlk90_yaemk_moonlanderlike.elf.XW0OFi.ltrans0.ltrans.o
 .bss.last_matrix.1
                0x00000000200015f8        0x5 /tmp/karlk90_yaemk_moonlanderlike.elf.XW0OFi.ltrans0.ltrans.o
 .bss.last_suspend_state
                0x00000000200015fd        0x1 /tmp/karlk90_yaemk_moonlanderlike.elf.XW0OFi.ltrans0.ltrans.o
                0x00000000200015fd                last_suspend_state
 *fill*         0x00000000200015fe        0x2 
 .bss.last_sync_timer.0
                0x0000000020001600        0x4 /tmp/karlk90_yaemk_moonlanderlike.elf.XW0OFi.ltrans0.ltrans.o
 .bss.last_system_report.lto_priv.0
                0x0000000020001604        0x2 /tmp/karlk90_yaemk_moonlanderlike.elf.XW0OFi.ltrans0.ltrans.o
                0x0000000020001604                last_system_report.lto_priv.0
 *fill*         0x0000000020001606        0x2 
 .bss.last_systime.lto_priv.0
                0x0000000020001608        0x4 /tmp/karlk90_yaemk_moonlanderlike.elf.XW0OFi.ltrans0.ltrans.o
                0x0000000020001608                last_systime.lto_priv.0
 .bss.last_time
                0x000000002000160c        0x4 /tmp/karlk90_yaemk_moonlanderlike.elf.XW0OFi.ltrans0.ltrans.o
 .bss.last_timer_c
                0x0000000020001610        0x2 /tmp/karlk90_yaemk_moonlanderlike.elf.XW0OFi.ltrans0.ltrans.o
 .bss.last_timer_w
                0x0000000020001612        0x2 /tmp/karlk90_yaemk_moonlanderlike.elf.XW0OFi.ltrans0.ltrans.o
 .bss.last_update.2
                0x0000000020001614        0x4 /tmp/karlk90_yaemk_moonlanderlike.elf.XW0OFi.ltrans0.ltrans.o
 .bss.last_update.3
                0x0000000020001618        0x4 /tmp/karlk90_yaemk_moonlanderlike.elf.XW0OFi.ltrans0.ltrans.o
 .bss.last_update.4
                0x000000002000161c        0x4 /tmp/karlk90_yaemk_moonlanderlike.elf.XW0OFi.ltrans0.ltrans.o
 .bss.last_update.7
                0x0000000020001620        0x4 /tmp/karlk90_yaemk_moonlanderlike.elf.XW0OFi.ltrans0.ltrans.o
 .bss.last_update.8
                0x0000000020001624        0x4 /tmp/karlk90_yaemk_moonlanderlike.elf.XW0OFi.ltrans0.ltrans.o
 .bss.layer_state
                0x0000000020001628        0x1 /tmp/karlk90_yaemk_moonlanderlike.elf.XW0OFi.ltrans0.ltrans.o
 .bss.led_status.0
                0x0000000020001629        0x1 /tmp/karlk90_yaemk_moonlanderlike.elf.XW0OFi.ltrans0.ltrans.o
 .bss.macro_mods
                0x000000002000162a        0x1 /tmp/karlk90_yaemk_moonlanderlike.elf.XW0OFi.ltrans0.ltrans.o
 *fill*         0x000000002000162b        0x1 
 .bss.matrix    0x000000002000162c        0xa /tmp/karlk90_yaemk_moonlanderlike.elf.XW0OFi.ltrans0.ltrans.o
 .bss.matrix_need_update
                0x0000000020001636        0x1 /tmp/karlk90_yaemk_moonlanderlike.elf.XW0OFi.ltrans0.ltrans.o
 *fill*         0x0000000020001637        0x1 
 .bss.matrix_prev.1
                0x0000000020001638        0xa /tmp/karlk90_yaemk_moonlanderlike.elf.XW0OFi.ltrans0.ltrans.o
 *fill*         0x0000000020001642        0x2 
 .bss.matrix_scan_count
                0x0000000020001644        0x4 /tmp/karlk90_yaemk_moonlanderlike.elf.XW0OFi.ltrans0.ltrans.o
 .bss.matrix_timer
                0x0000000020001648        0x4 /tmp/karlk90_yaemk_moonlanderlike.elf.XW0OFi.ltrans0.ltrans.o
 .bss.mod_state
                0x000000002000164c        0x1 /tmp/karlk90_yaemk_moonlanderlike.elf.XW0OFi.ltrans0.ltrans.o
 *fill*         0x000000002000164d        0x3 
 .bss.mouse_report
                0x0000000020001650        0x6 /tmp/karlk90_yaemk_moonlanderlike.elf.XW0OFi.ltrans0.ltrans.o
 .bss.mousekey_accel
                0x0000000020001656        0x1 /tmp/karlk90_yaemk_moonlanderlike.elf.XW0OFi.ltrans0.ltrans.o
 .bss.mousekey_repeat
                0x0000000020001657        0x1 /tmp/karlk90_yaemk_moonlanderlike.elf.XW0OFi.ltrans0.ltrans.o
 .bss.mousekey_wheel_repeat
                0x0000000020001658        0x1 /tmp/karlk90_yaemk_moonlanderlike.elf.XW0OFi.ltrans0.ltrans.o
 .bss.oled_active
                0x0000000020001659        0x1 /tmp/karlk90_yaemk_moonlanderlike.elf.XW0OFi.ltrans0.ltrans.o
                0x0000000020001659                oled_active
 *fill*         0x000000002000165a        0x2 
 .bss.oled_buffer
                0x000000002000165c      0x400 /tmp/karlk90_yaemk_moonlanderlike.elf.XW0OFi.ltrans0.ltrans.o
                0x000000002000165c                oled_buffer
 .bss.oled_cursor
                0x0000000020001a5c        0x4 /tmp/karlk90_yaemk_moonlanderlike.elf.XW0OFi.ltrans0.ltrans.o
                0x0000000020001a5c                oled_cursor
 .bss.oled_dirty
                0x0000000020001a60        0x2 /tmp/karlk90_yaemk_moonlanderlike.elf.XW0OFi.ltrans0.ltrans.o
                0x0000000020001a60                oled_dirty
 .bss.oled_initialized
                0x0000000020001a62        0x1 /tmp/karlk90_yaemk_moonlanderlike.elf.XW0OFi.ltrans0.ltrans.o
                0x0000000020001a62                oled_initialized
 .bss.oled_rotation
                0x0000000020001a63        0x1 /tmp/karlk90_yaemk_moonlanderlike.elf.XW0OFi.ltrans0.ltrans.o
                0x0000000020001a63                oled_rotation
 .bss.oled_rotation_width
                0x0000000020001a64        0x1 /tmp/karlk90_yaemk_moonlanderlike.elf.XW0OFi.ltrans0.ltrans.o
                0x0000000020001a64                oled_rotation_width
 .bss.oled_scrolling
                0x0000000020001a65        0x1 /tmp/karlk90_yaemk_moonlanderlike.elf.XW0OFi.ltrans0.ltrans.o
                0x0000000020001a65                oled_scrolling
 *fill*         0x0000000020001a66        0x2 
 .bss.oled_timeout
                0x0000000020001a68        0x4 /tmp/karlk90_yaemk_moonlanderlike.elf.XW0OFi.ltrans0.ltrans.o
                0x0000000020001a68                oled_timeout
 .bss.oled_update_timeout
                0x0000000020001a6c        0x2 /tmp/karlk90_yaemk_moonlanderlike.elf.XW0OFi.ltrans0.ltrans.o
 .bss.oneshot_layer_data
                0x0000000020001a6e        0x1 /tmp/karlk90_yaemk_moonlanderlike.elf.XW0OFi.ltrans0.ltrans.o
 .bss.oneshot_mods
                0x0000000020001a6f        0x1 /tmp/karlk90_yaemk_moonlanderlike.elf.XW0OFi.ltrans0.ltrans.o
 .bss.overflow.lto_priv.0
                0x0000000020001a70        0x4 /tmp/karlk90_yaemk_moonlanderlike.elf.XW0OFi.ltrans0.ltrans.o
                0x0000000020001a70                overflow.lto_priv.0
 .bss.raw_matrix
                0x0000000020001a74        0xa /tmp/karlk90_yaemk_moonlanderlike.elf.XW0OFi.ltrans0.ltrans.o
 .bss.real_mods.lto_priv.0
                0x0000000020001a7e        0x1 /tmp/karlk90_yaemk_moonlanderlike.elf.XW0OFi.ltrans0.ltrans.o
                0x0000000020001a7e                real_mods.lto_priv.0
 .bss.render_state.0
                0x0000000020001a7f        0x1 /tmp/karlk90_yaemk_moonlanderlike.elf.XW0OFi.ltrans0.ltrans.o
 .bss.reset_point.lto_priv.0
                0x0000000020001a80        0x4 /tmp/karlk90_yaemk_moonlanderlike.elf.XW0OFi.ltrans0.ltrans.o
                0x0000000020001a80                reset_point.lto_priv.0
 .bss.rgb_matrix_config
                0x0000000020001a84        0x8 /tmp/karlk90_yaemk_moonlanderlike.elf.XW0OFi.ltrans0.ltrans.o
                0x0000000020001a84                rgb_matrix_config
 .bss.sc_last.lto_priv.0
                0x0000000020001a8c        0x1 /tmp/karlk90_yaemk_moonlanderlike.elf.XW0OFi.ltrans0.ltrans.o
                0x0000000020001a8c                sc_last.lto_priv.0
 *fill*         0x0000000020001a8d        0x3 
 .bss.sd_in_buf3
                0x0000000020001a90       0x80 /tmp/karlk90_yaemk_moonlanderlike.elf.XW0OFi.ltrans0.ltrans.o
 .bss.sd_out_buf3
                0x0000000020001b10       0x80 /tmp/karlk90_yaemk_moonlanderlike.elf.XW0OFi.ltrans0.ltrans.o
 .bss.shared_memory
                0x0000000020001b90       0x1c /tmp/karlk90_yaemk_moonlanderlike.elf.XW0OFi.ltrans0.ltrans.o
 .bss.source_layers_cache
                0x0000000020001bac       0x1e /tmp/karlk90_yaemk_moonlanderlike.elf.XW0OFi.ltrans0.ltrans.o
                0x0000000020001bac                source_layers_cache
 .bss.split_led_state
                0x0000000020001bca        0x1 /tmp/karlk90_yaemk_moonlanderlike.elf.XW0OFi.ltrans0.ltrans.o
 *fill*         0x0000000020001bcb        0x1 
 .bss.sync_timer_ms
                0x0000000020001bcc        0x4 /tmp/karlk90_yaemk_moonlanderlike.elf.XW0OFi.ltrans0.ltrans.o
 .bss.tapping_key
                0x0000000020001bd0        0x8 /tmp/karlk90_yaemk_moonlanderlike.elf.XW0OFi.ltrans0.ltrans.o
 .bss.thatHand  0x0000000020001bd8        0x1 /tmp/karlk90_yaemk_moonlanderlike.elf.XW0OFi.ltrans0.ltrans.o
 .bss.thatHand.lto_priv.0
                0x0000000020001bd9        0x1 /tmp/karlk90_yaemk_moonlanderlike.elf.XW0OFi.ltrans0.ltrans.o
 .bss.thisHand  0x0000000020001bda        0x1 /tmp/karlk90_yaemk_moonlanderlike.elf.XW0OFi.ltrans0.ltrans.o
 .bss.thisHand.lto_priv.0
                0x0000000020001bdb        0x1 /tmp/karlk90_yaemk_moonlanderlike.elf.XW0OFi.ltrans0.ltrans.o
 .bss.unregister_keycodes
                0x0000000020001bdc       0x18 /tmp/karlk90_yaemk_moonlanderlike.elf.XW0OFi.ltrans0.ltrans.o
 .bss.waiting_buffer
                0x0000000020001bf4       0x40 /tmp/karlk90_yaemk_moonlanderlike.elf.XW0OFi.ltrans0.ltrans.o
 .bss.waiting_buffer_head
                0x0000000020001c34        0x1 /tmp/karlk90_yaemk_moonlanderlike.elf.XW0OFi.ltrans0.ltrans.o
 .bss.waiting_buffer_tail
                0x0000000020001c35        0x1 /tmp/karlk90_yaemk_moonlanderlike.elf.XW0OFi.ltrans0.ltrans.o
 .bss.weak_mods
                0x0000000020001c36        0x1 /tmp/karlk90_yaemk_moonlanderlike.elf.XW0OFi.ltrans0.ltrans.o
 *fill*         0x0000000020001c37        0x1 
 .bss.desc.2    0x0000000020001c38        0x8 /tmp/karlk90_yaemk_moonlanderlike.elf.XW0OFi.ltrans1.ltrans.o
 .bss.kbd_ep_state
                0x0000000020001c40       0x14 /tmp/karlk90_yaemk_moonlanderlike.elf.XW0OFi.ltrans1.ltrans.o
 .bss.keyboard_idle
                0x0000000020001c54        0x1 /tmp/karlk90_yaemk_moonlanderlike.elf.XW0OFi.ltrans1.ltrans.o
 .bss.keyboard_led_state
                0x0000000020001c55        0x1 /tmp/karlk90_yaemk_moonlanderlike.elf.XW0OFi.ltrans1.ltrans.o
 *fill*         0x0000000020001c56        0x2 
 .bss.keyboard_report_sent
                0x0000000020001c58       0x20 /tmp/karlk90_yaemk_moonlanderlike.elf.XW0OFi.ltrans1.ltrans.o
 .bss.oled_temp_buffer.6
                0x0000000020001c78        0x6 /tmp/karlk90_yaemk_moonlanderlike.elf.XW0OFi.ltrans1.ltrans.o
 *fill*         0x0000000020001c7e        0x2 
 .bss.report.1  0x0000000020001c80        0x3 /tmp/karlk90_yaemk_moonlanderlike.elf.XW0OFi.ltrans1.ltrans.o
 *fill*         0x0000000020001c83        0x1 
 .bss.rgb_matrix_ws2812_array
                0x0000000020001c84       0xf0 /tmp/karlk90_yaemk_moonlanderlike.elf.XW0OFi.ltrans1.ltrans.o
 .bss.s_init.0  0x0000000020001d74        0x1 /tmp/karlk90_yaemk_moonlanderlike.elf.XW0OFi.ltrans1.ltrans.o
 *fill*         0x0000000020001d75        0x1 
 .bss.sc_timer  0x0000000020001d76        0x2 /tmp/karlk90_yaemk_moonlanderlike.elf.XW0OFi.ltrans1.ltrans.o
 .bss.set_report_buf
                0x0000000020001d78        0x2 /tmp/karlk90_yaemk_moonlanderlike.elf.XW0OFi.ltrans1.ltrans.o
 *fill*         0x0000000020001d7a        0x2 
 .bss.shared_ep_state
                0x0000000020001d7c       0x14 /tmp/karlk90_yaemk_moonlanderlike.elf.XW0OFi.ltrans1.ltrans.o
 .bss.temp_buffer.9
                0x0000000020001d90       0x40 /tmp/karlk90_yaemk_moonlanderlike.elf.XW0OFi.ltrans1.ltrans.o
 .bss.timed_out.0
                0x0000000020001dd0        0x1 /tmp/karlk90_yaemk_moonlanderlike.elf.XW0OFi.ltrans1.ltrans.o
 *fill*         0x0000000020001dd1        0x7 
 .bss.ws2812_frame_buffer
                0x0000000020001dd8     0x1f04 /tmp/karlk90_yaemk_moonlanderlike.elf.XW0OFi.ltrans1.ltrans.o
 .bss.i2c_address
                0x0000000020003cdc        0x1 .build/obj_karlk90_yaemk_moonlanderlike/i2c_master.a(i2c_master.o)
 .bss.is_initialised.0
                0x0000000020003cdd        0x1 .build/obj_karlk90_yaemk_moonlanderlike/i2c_master.a(i2c_master.o)
 *fill*         0x0000000020003cde        0x2 
 .bss.waSlaveThread
                0x0000000020003ce0      0x530 .build/obj_karlk90_yaemk_moonlanderlike/serial_usart.a(serial_usart.o)
 *(COMMON)
 COMMON         0x0000000020004210       0x94 /tmp/karlk90_yaemk_moonlanderlike.elf.XW0OFi.ltrans0.ltrans.o
                0x0000000020004210                I2CD1
                0x0000000020004244                SD3
                0x00000000200042a4                . = ALIGN (0x4)
                0x00000000200042a4                __bss_end__ = .
                [!provide]                        PROVIDE (end = .)
                0x0000000020000000                __ram0_base__ = ORIGIN (ram0)
                0x000000000000a000                __ram0_size__ = LENGTH (ram0)
                0x000000002000a000                __ram0_end__ = (__ram0_base__ + __ram0_size__)
                0x0000000000000000                __ram1_base__ = ORIGIN (ram1)
                0x0000000000000000                __ram1_size__ = LENGTH (ram1)
                0x0000000000000000                __ram1_end__ = (__ram1_base__ + __ram1_size__)
                0x0000000000000000                __ram2_base__ = ORIGIN (ram2)
                0x0000000000000000                __ram2_size__ = LENGTH (ram2)
                0x0000000000000000                __ram2_end__ = (__ram2_base__ + __ram2_size__)
                0x0000000000000000                __ram3_base__ = ORIGIN (ram3)
                0x0000000000000000                __ram3_size__ = LENGTH (ram3)
                0x0000000000000000                __ram3_end__ = (__ram3_base__ + __ram3_size__)
                0x0000000010000000                __ram4_base__ = ORIGIN (ram4)
                0x0000000000002000                __ram4_size__ = LENGTH (ram4)
                0x0000000010002000                __ram4_end__ = (__ram4_base__ + __ram4_size__)
                0x0000000000000000                __ram5_base__ = ORIGIN (ram5)
                0x0000000000000000                __ram5_size__ = LENGTH (ram5)
                0x0000000000000000                __ram5_end__ = (__ram5_base__ + __ram5_size__)
                0x0000000000000000                __ram6_base__ = ORIGIN (ram6)
                0x0000000000000000                __ram6_size__ = LENGTH (ram6)
                0x0000000000000000                __ram6_end__ = (__ram6_base__ + __ram6_size__)
                0x0000000000000000                __ram7_base__ = ORIGIN (ram7)
                0x0000000000000000                __ram7_size__ = LENGTH (ram7)
                0x0000000000000000                __ram7_end__ = (__ram7_base__ + __ram7_size__)
                0x0000000008000000                __flash0_base__ = ORIGIN (flash0)
                0x0000000000040000                __flash0_size__ = LENGTH (flash0)
                0x0000000008040000                __flash0_end__ = (__flash0_base__ + __flash0_size__)
                0x0000000000000000                __flash1_base__ = ORIGIN (flash1)
                0x0000000000000000                __flash1_size__ = LENGTH (flash1)
                0x0000000000000000                __flash1_end__ = (__flash1_base__ + __flash1_size__)
                0x0000000000000000                __flash2_base__ = ORIGIN (flash2)
                0x0000000000000000                __flash2_size__ = LENGTH (flash2)
                0x0000000000000000                __flash2_end__ = (__flash2_base__ + __flash2_size__)
                0x0000000000000000                __flash3_base__ = ORIGIN (flash3)
                0x0000000000000000                __flash3_size__ = LENGTH (flash3)
                0x0000000000000000                __flash3_end__ = (__flash3_base__ + __flash3_size__)
                0x0000000000000000                __flash4_base__ = ORIGIN (flash4)
                0x0000000000000000                __flash4_size__ = LENGTH (flash4)
                0x0000000000000000                __flash4_end__ = (__flash4_base__ + __flash4_size__)
                0x0000000000000000                __flash5_base__ = ORIGIN (flash5)
                0x0000000000000000                __flash5_size__ = LENGTH (flash5)
                0x0000000000000000                __flash5_end__ = (__flash5_base__ + __flash5_size__)
                0x0000000000000000                __flash6_base__ = ORIGIN (flash6)
                0x0000000000000000                __flash6_size__ = LENGTH (flash6)
                0x0000000000000000                __flash6_end__ = (__flash6_base__ + __flash6_size__)
                0x0000000000000000                __flash7_base__ = ORIGIN (flash7)
                0x0000000000000000                __flash7_size__ = LENGTH (flash7)
                0x0000000000000000                __flash7_end__ = (__flash7_base__ + __flash7_size__)

.ram0_init      0x00000000200042a4        0x0 load address 0x0000000008015238
                0x0000000008015238                __ram0_init_text__ = LOADADDR (.ram0_init)
                0x00000000200042a4                __ram0_init__ = .
 *(.ram0_init)
 *(.ram0_init.*)
                0x00000000200042a4                . = ALIGN (0x4)

.ram0           0x00000000200042a4        0x0 load address 0x0000000008015238
                0x00000000200042a4                __ram0_clear__ = .
 *(.ram0_clear)
 *(.ram0_clear.*)
                0x00000000200042a4                . = ALIGN (0x4)
                0x00000000200042a4                __ram0_noinit__ = .
 *(.ram0)
 *(.ram0.*)
                0x00000000200042a4                . = ALIGN (0x4)
                0x00000000200042a4                __ram0_free__ = .

.ram1_init      0x0000000000000000        0x0 load address 0x0000000008015238
                0x0000000008015238                __ram1_init_text__ = LOADADDR (.ram1_init)
                0x0000000000000000                __ram1_init__ = .
 *(.ram1_init)
 *(.ram1_init.*)
                0x0000000000000000                . = ALIGN (0x4)

.ram1           0x0000000000000000        0x0 load address 0x0000000008015238
                0x0000000000000000                __ram1_clear__ = .
 *(.ram1_clear)
 *(.ram1_clear.*)
                0x0000000000000000                . = ALIGN (0x4)
                0x0000000000000000                __ram1_noinit__ = .
 *(.ram1)
 *(.ram1.*)
                0x0000000000000000                . = ALIGN (0x4)
                0x0000000000000000                __ram1_free__ = .

.ram2_init      0x0000000000000000        0x0 load address 0x0000000008015238
                0x0000000008015238                __ram2_init_text__ = LOADADDR (.ram2_init)
                0x0000000000000000                __ram2_init__ = .
 *(.ram2_init)
 *(.ram2_init.*)
                0x0000000000000000                . = ALIGN (0x4)

.ram2           0x0000000000000000        0x0 load address 0x0000000008015238
                0x0000000000000000                __ram2_clear__ = .
 *(.ram2_clear)
 *(.ram2_clear.*)
                0x0000000000000000                . = ALIGN (0x4)
                0x0000000000000000                __ram2_noinit__ = .
 *(.ram2)
 *(.ram2.*)
                0x0000000000000000                . = ALIGN (0x4)
                0x0000000000000000                __ram2_free__ = .

.ram3_init      0x0000000000000000        0x0 load address 0x0000000008015238
                0x0000000008015238                __ram3_init_text__ = LOADADDR (.ram3_init)
                0x0000000000000000                __ram3_init__ = .
 *(.ram3_init)
 *(.ram3_init.*)
                0x0000000000000000                . = ALIGN (0x4)

.ram3           0x0000000000000000        0x0 load address 0x0000000008015238
                0x0000000000000000                __ram3_clear__ = .
 *(.ram3_clear)
 *(.ram3_clear.*)
                0x0000000000000000                . = ALIGN (0x4)
                0x0000000000000000                __ram3_noinit__ = .
 *(.ram3)
 *(.ram3.*)
                0x0000000000000000                . = ALIGN (0x4)
                0x0000000000000000                __ram3_free__ = .

.ram4_init      0x0000000010000000        0x0 load address 0x0000000008015238
                0x0000000008015238                __ram4_init_text__ = LOADADDR (.ram4_init)
                0x0000000010000000                __ram4_init__ = .
 *(.ram4_init)
 *(.ram4_init.*)
                0x0000000010000000                . = ALIGN (0x4)

.ram4           0x0000000010000000        0x0 load address 0x0000000008015238
                0x0000000010000000                __ram4_clear__ = .
 *(.ram4_clear)
 *(.ram4_clear.*)
                0x0000000010000000                . = ALIGN (0x4)
                0x0000000010000000                __ram4_noinit__ = .
 *(.ram4)
 *(.ram4.*)
                0x0000000010000000                . = ALIGN (0x4)
                0x0000000010000000                __ram4_free__ = .

.ram5_init      0x0000000000000000        0x0 load address 0x0000000008015238
                0x0000000008015238                __ram5_init_text__ = LOADADDR (.ram5_init)
                0x0000000000000000                __ram5_init__ = .
 *(.ram5_init)
 *(.ram5_init.*)
                0x0000000000000000                . = ALIGN (0x4)

.ram5           0x0000000000000000        0x0 load address 0x0000000008015238
                0x0000000000000000                __ram5_clear__ = .
 *(.ram5_clear)
 *(.ram5_clear.*)
                0x0000000000000000                . = ALIGN (0x4)
                0x0000000000000000                __ram5_noinit__ = .
 *(.ram5)
 *(.ram5.*)
                0x0000000000000000                . = ALIGN (0x4)
                0x0000000000000000                __ram5_free__ = .

.ram6_init      0x0000000000000000        0x0 load address 0x0000000008015238
                0x0000000008015238                __ram6_init_text__ = LOADADDR (.ram6_init)
                0x0000000000000000                __ram6_init__ = .
 *(.ram6_init)
 *(.ram6_init.*)
                0x0000000000000000                . = ALIGN (0x4)

.ram6           0x0000000000000000        0x0 load address 0x0000000008015238
                0x0000000000000000                __ram6_clear__ = .
 *(.ram6_clear)
 *(.ram6_clear.*)
                0x0000000000000000                . = ALIGN (0x4)
                0x0000000000000000                __ram6_noinit__ = .
 *(.ram6)
 *(.ram6.*)
                0x0000000000000000                . = ALIGN (0x4)
                0x0000000000000000                __ram6_free__ = .

.ram7_init      0x0000000000000000        0x0 load address 0x0000000008015238
                0x0000000008015238                __ram7_init_text__ = LOADADDR (.ram7_init)
                0x0000000000000000                __ram7_init__ = .
 *(.ram7_init)
 *(.ram7_init.*)
                0x0000000000000000                . = ALIGN (0x4)

.ram7           0x0000000000000000        0x0 load address 0x0000000008015238
                0x0000000000000000                __ram7_clear__ = .
 *(.ram7_clear)
 *(.ram7_clear.*)
                0x0000000000000000                . = ALIGN (0x4)
                0x0000000000000000                __ram7_noinit__ = .
 *(.ram7)
 *(.ram7.*)
                0x0000000000000000                . = ALIGN (0x4)
                0x0000000000000000                __ram7_free__ = .

.flash0         0x0000000008015238        0x0
                0x0000000008015238                __flash0_init__ = .
 *(.flash0_init)
 *(.flash0_init.*)
                0x0000000008015238                __flash0_free__ = .

.flash1         0x0000000000000000        0x0
                0x0000000000000000                __flash1_init__ = .
 *(.flash1_init)
 *(.flash1_init.*)
                0x0000000000000000                __flash1_free__ = .

.flash2         0x0000000000000000        0x0
                0x0000000000000000                __flash2_init__ = .
 *(.flash2_init)
 *(.flash2_init.*)
                0x0000000000000000                __flash2_free__ = .

.flash3         0x0000000000000000        0x0
                0x0000000000000000                __flash3_init__ = .
 *(.flash3_init)
 *(.flash3_init.*)
                0x0000000000000000                __flash3_free__ = .

.flash4         0x0000000000000000        0x0
                0x0000000000000000                __flash4_init__ = .
 *(.flash4_init)
 *(.flash4_init.*)
                0x0000000000000000                __flash4_free__ = .

.flash5         0x0000000000000000        0x0
                0x0000000000000000                __flash5_init__ = .
 *(.flash5_init)
 *(.flash5_init.*)
                0x0000000000000000                __flash5_free__ = .

.flash6         0x0000000000000000        0x0
                0x0000000000000000                __flash6_init__ = .
 *(.flash6_init)
 *(.flash6_init.*)
                0x0000000000000000                __flash6_free__ = .

.flash7         0x0000000000000000        0x0
                0x0000000000000000                __flash7_init__ = .
 *(.flash7_init)
 *(.flash7_init.*)
                0x0000000000000000                __flash7_free__ = .

.heap           0x00000000200042a4     0x5d5c
                0x00000000200042a8                . = ALIGN (0x8)
 *fill*         0x00000000200042a4        0x4 
                0x00000000200042a8                __heap_base__ = .
                0x000000002000a000                . = (ORIGIN (HEAP_RAM) + LENGTH (HEAP_RAM))
 *fill*         0x00000000200042a8     0x5d58 
                0x000000002000a000                __heap_end__ = .
OUTPUT(.build/karlk90_yaemk_moonlanderlike.elf elf32-littlearm)
LOAD linker stubs

.debug_info     0x0000000000000000    0x67750
 .debug_info    0x0000000000000000    0x15042 /tmp/karlk90_yaemk_moonlanderlike.elf.XW0OFi.ltrans0.ltrans.o
 .debug_info    0x0000000000015042    0x126d2 /tmp/karlk90_yaemk_moonlanderlike.elf.XW0OFi.ltrans1.ltrans.o
 .debug_info    0x0000000000027714      0x17d /tmp/ccfnEjuh.debug.temp.o
                0x0000000000027714                led_config.c.f700350a
 .debug_info    0x0000000000027891      0x2ff /tmp/cc0I4f7X.debug.temp.o
                0x0000000000027891                custom_color.c.73c89579
 .debug_info    0x0000000000027b90     0x1a9f /tmp/cclModur.debug.temp.o
                0x0000000000027b90                yaemk.c.30016a56
 .debug_info    0x000000000002962f     0x172a /tmp/cctRlNqi.debug.temp.o
                0x000000000002962f                keymap.c.9ff24497
 .debug_info    0x000000000002ad59     0x1601 /tmp/ccW91Jhp.debug.temp.o
                0x000000000002ad59                quantum.c.9481e5d3
 .debug_info    0x000000000002c35a      0x7f0 /tmp/cc1n2tj8.debug.temp.o
                0x000000000002c35a                send_string.c.84c44033
 .debug_info    0x000000000002cb4a      0x1c5 /tmp/ccQek5tM.debug.temp.o
                0x000000000002cb4a                bitwise.c.da0ae9cf
 .debug_info    0x000000000002cd0f      0x1a4 /tmp/ccy2zO6v.debug.temp.o
                0x000000000002cd0f                led.c.920d4487
 .debug_info    0x000000000002ceb3     0x1415 /tmp/ccOBaQrD.debug.temp.o
                0x000000000002ceb3                action.c.515ef8bf
 .debug_info    0x000000000002e2c8      0x717 /tmp/ccByYric.debug.temp.o
                0x000000000002e2c8                action_layer.c.74da6ff9
 .debug_info    0x000000000002e9df      0xa66 /tmp/cc90lmnB.debug.temp.o
                0x000000000002e9df                action_tapping.c.308fe8ae
 .debug_info    0x000000000002f445      0x7c7 /tmp/ccGI6wID.debug.temp.o
                0x000000000002f445                action_util.c.05bcf618
 .debug_info    0x000000000002fc0c      0x240 /tmp/ccncmTqY.debug.temp.o
                0x000000000002fc0c                eeconfig.c.6c5dd725
 .debug_info    0x000000000002fe4c      0x524 /tmp/cc14VErq.debug.temp.o
                0x000000000002fe4c                keyboard.c.6b8a3a84
 .debug_info    0x0000000000030370     0x1b2f /tmp/ccJHiYPW.debug.temp.o
                0x0000000000030370                keymap_common.c.e49aa754
 .debug_info    0x0000000000031e9f      0x60a /tmp/ccs3fqN1.debug.temp.o
                0x0000000000031e9f                keycode_config.c.3a338e3f
 .debug_info    0x00000000000324a9      0x17c /tmp/ccQRN3Wo.debug.temp.o
                0x00000000000324a9                usb_device_state.c.5d0e8db5
 .debug_info    0x0000000000032625      0x113 /tmp/ccmAVrlH.debug.temp.o
                0x0000000000032625                debug.c.0120a514
 .debug_info    0x0000000000032738       0xf9 /tmp/ccKbKh4E.debug.temp.o
                0x0000000000032738                print.c.7d04cfd6
 .debug_info    0x0000000000032831       0xe3 /tmp/ccKwh0z5.debug.temp.o
                0x0000000000032831                bootmagic_lite.c.25c71b3b
 .debug_info    0x0000000000032914      0x290 /tmp/cckzIpwo.debug.temp.o
                0x0000000000032914                magic.c.10c91b4f
 .debug_info    0x0000000000032ba4      0x2e6 /tmp/ccGzjP0w.debug.temp.o
                0x0000000000032ba4                matrix_common.c.422f86c8
 .debug_info    0x0000000000032e8a      0x5c0 /tmp/ccXB4Az0.debug.temp.o
                0x0000000000032e8a                matrix.c.ea9321bf
 .debug_info    0x000000000003344a      0x311 /tmp/ccS614w6.debug.temp.o
                0x000000000003344a                asym_eager_defer_pk.c.6035907f
 .debug_info    0x000000000003375b      0x3b0 /tmp/cc7Z7BLY.debug.temp.o
                0x000000000003375b                split_util.c.83ca5e1a
 .debug_info    0x0000000000033b0b      0x63b /tmp/cc1oeOTg.debug.temp.o
                0x0000000000033b0b                transport.c.16fb7002
 .debug_info    0x0000000000034146      0xc88 /tmp/cclqFKnx.debug.temp.o
                0x0000000000034146                transactions.c.986870f9
 .debug_info    0x0000000000034dce       0x77 /tmp/ccV71jLk.debug.temp.o
                0x0000000000034dce                main.c.72672af8
 .debug_info    0x0000000000034e45      0x7a0 /tmp/ccSb3YlV.debug.temp.o
                0x0000000000034e45                printf.c.7b41b9fb
 .debug_info    0x00000000000355e5      0x3bc /tmp/ccLgSN5x.debug.temp.o
                0x00000000000355e5                mousekey.c.f85c371c
 .debug_info    0x00000000000359a1      0x2ab /tmp/ccYm6amU.debug.temp.o
                0x00000000000359a1                eeprom_driver.c.5238bfca
 .debug_info    0x0000000000035c4c      0x223 /tmp/ccV2JrjB.debug.temp.o
                0x0000000000035c4c                eeprom_i2c.c.3c034042
 .debug_info    0x0000000000035e6f      0x1e8 /tmp/ccQzfpqF.debug.temp.o
                0x0000000000035e6f                color.c.a70627cf
 .debug_info    0x0000000000036057     0x1e5c /tmp/ccvrKOHP.debug.temp.o
                0x0000000000036057                rgb_matrix.c.a758d829
 .debug_info    0x0000000000037eb3      0x24f /tmp/ccvsftI7.debug.temp.o
                0x0000000000037eb3                rgb_matrix_drivers.c.899dc6b1
 .debug_info    0x0000000000038102     0x132c /tmp/ccS4oibQ.debug.temp.o
                0x0000000000038102                process_rgb.c.c71ca151
 .debug_info    0x000000000003942e      0x7a0 /tmp/cc9usVWf.debug.temp.o
                0x000000000003942e                ws2812_pwm.c.beea14dd
 .debug_info    0x0000000000039bce       0xb9 /tmp/ccDQrsNj.debug.temp.o
                0x0000000000039bce                led_tables.c.ba9772a6
 .debug_info    0x0000000000039c87      0x43f /tmp/cc4TrJZZ.debug.temp.o
                0x0000000000039c87                encoder.c.a36b5429
 .debug_info    0x000000000003a0c6      0x5a2 /tmp/ccnqM8Lz.debug.temp.o
                0x000000000003a0c6                via.c.3d895214
 .debug_info    0x000000000003a668      0x838 /tmp/ccXHZlTu.debug.temp.o
                0x000000000003a668                dynamic_keymap.c.d9b61d0c
 .debug_info    0x000000000003aea0      0x178 /tmp/cc2w2gDW.debug.temp.o
                0x000000000003aea0                crc.c.7176c176
 .debug_info    0x000000000003b018      0x96e /tmp/ccf7tNaY.debug.temp.o
                0x000000000003b018                ssd1306_sh1106.c.632d8ca2
 .debug_info    0x000000000003b986     0x12a5 /tmp/ccEP9BKn.debug.temp.o
                0x000000000003b986                process_space_cadet.c.f56fe32b
 .debug_info    0x000000000003cc2b      0xec9 /tmp/ccm3qksS.debug.temp.o
                0x000000000003cc2b                process_magic.c.e4911d64
 .debug_info    0x000000000003daf4     0x1376 /tmp/ccN3fR2P.debug.temp.o
                0x000000000003daf4                process_grave_esc.c.cf5f436c
 .debug_info    0x000000000003ee6a      0x779 /tmp/ccp41CVD.debug.temp.o
                0x000000000003ee6a                host.c.f82c5aa1
 .debug_info    0x000000000003f5e3      0x8c8 /tmp/ccam8VBf.debug.temp.o
                0x000000000003f5e3                report.c.db18f922
 .debug_info    0x000000000003feab      0x11f /tmp/ccNdgF9w.debug.temp.o
                0x000000000003feab                sync_timer.c.2f097f37
 .debug_info    0x000000000003ffca       0x7a /tmp/ccu1coHQ.debug.temp.o
                0x000000000003ffca                platform.c.0e37f174
 .debug_info    0x0000000000040044      0x1f1 /tmp/cczSDEhq.debug.temp.o
                0x0000000000040044                suspend.c.86a662df
 .debug_info    0x0000000000040235      0x1ee /tmp/ccEcDonF.debug.temp.o
                0x0000000000040235                timer.c.e97d8982
 .debug_info    0x0000000000040423      0x2ec /tmp/ccCQ8m0z.debug.temp.o
                0x0000000000040423                bootloader.c.0577e950
 .debug_info    0x000000000004070f     0x1c67 /tmp/ccZjDjB6.debug.temp.o
                0x000000000004070f                usb_main.c.2c2e8300
 .debug_info    0x0000000000042376      0xc4b /tmp/ccQxHeRz.debug.temp.o
                0x0000000000042376                chibios.c.8916702a
 .debug_info    0x0000000000042fc1      0x778 /tmp/ccJefRjC.debug.temp.o
                0x0000000000042fc1                usb_descriptor.c.7eb00694
 .debug_info    0x0000000000043739     0x1439 /tmp/ccfphpFF.debug.temp.o
                0x0000000000043739                usb_driver.c.420341f3
 .debug_info    0x0000000000044b72      0x2ca /tmp/ccpJSHAY.debug.temp.o
                0x0000000000044b72                chmemcore.c.047cf026
 .debug_info    0x0000000000044e3c      0x2bc /tmp/ccnMlElZ.debug.temp.o
                0x0000000000044e3c                crt1.c.44019e53
 .debug_info    0x00000000000450f8      0xb46 /tmp/ccQytxMT.debug.temp.o
                0x00000000000450f8                chsys.c.d7353a55
 .debug_info    0x0000000000045c3e      0x9e1 /tmp/ccl8lVpT.debug.temp.o
                0x0000000000045c3e                chvt.c.baff7889
 .debug_info    0x000000000004661f      0x9dc /tmp/cczusIdJ.debug.temp.o
                0x000000000004661f                chschd.c.6ae568cf
 .debug_info    0x0000000000046ffb      0xdb7 /tmp/ccQHHhYP.debug.temp.o
                0x0000000000046ffb                chthreads.c.5ae5b348
 .debug_info    0x0000000000047db2      0x98e /tmp/ccFBVBaf.debug.temp.o
                0x0000000000047db2                chmtx.c.678348f4
 .debug_info    0x0000000000048740      0xb91 /tmp/ccqpTBta.debug.temp.o
                0x0000000000048740                chevents.c.b3c94cac
 .debug_info    0x00000000000492d1      0xa33 /tmp/ccC350TJ.debug.temp.o
                0x00000000000492d1                chcore_v7m.c.f14f15d3
 .debug_info    0x0000000000049d04       0x83 /tmp/ccTJ2Y4W.debug.temp.o
                0x0000000000049d04                hal.c.c250fa7e
 .debug_info    0x0000000000049d87      0x30e /tmp/ccwq0AC1.debug.temp.o
                0x0000000000049d87                hal_st.c.887968c9
 .debug_info    0x000000000004a095      0x906 /tmp/ccbaU3nc.debug.temp.o
                0x000000000004a095                hal_buffers.c.f0c27d3a
 .debug_info    0x000000000004a99b      0x7dc /tmp/cc5jXrRB.debug.temp.o
                0x000000000004a99b                hal_queues.c.46bb5f47
 .debug_info    0x000000000004b177      0xb0f /tmp/ccah7oE4.debug.temp.o
                0x000000000004b177                hal_i2c.c.164f0def
 .debug_info    0x000000000004bc86      0x673 /tmp/ccX6H7ct.debug.temp.o
                0x000000000004bc86                hal_pwm.c.b5f8ac66
 .debug_info    0x000000000004c2f9      0xe73 /tmp/ccz6s2Yh.debug.temp.o
                0x000000000004c2f9                hal_serial.c.d1a1686e
 .debug_info    0x000000000004d16c     0x10a3 /tmp/ccPOKm0t.debug.temp.o
                0x000000000004d16c                hal_usb.c.29293440
 .debug_info    0x000000000004e20f      0x411 /tmp/cc8lT2nY.debug.temp.o
                0x000000000004e20f                nvic.c.e1293086
 .debug_info    0x000000000004e620      0x5bb /tmp/ccLjXG4Y.debug.temp.o
                0x000000000004e620                stm32_isr.c.0f3dad5d
 .debug_info    0x000000000004ebdb      0x2a7 /tmp/cc5XnyZZ.debug.temp.o
                0x000000000004ebdb                hal_lld.c.383fb434
 .debug_info    0x000000000004ee82      0x5c1 /tmp/ccVjpK5C.debug.temp.o
                0x000000000004ee82                stm32_dma.c.2af44791
 .debug_info    0x000000000004f443      0x248 /tmp/cck1LmA3.debug.temp.o
                0x000000000004f443                hal_pal_lld.c.2b6a0ffb
 .debug_info    0x000000000004f68b      0xe0e /tmp/cc1Cuw1k.debug.temp.o
                0x000000000004f68b                hal_i2c_lld.c.0983ea69
 .debug_info    0x0000000000050499      0x39e /tmp/ccW0mz4b.debug.temp.o
                0x0000000000050499                hal_st_lld.c.a843edce
 .debug_info    0x0000000000050837      0x649 /tmp/ccc4Etus.debug.temp.o
                0x0000000000050837                hal_pwm_lld.c.cc646a68
 .debug_info    0x0000000000050e80      0xd0b /tmp/cckFgdT0.debug.temp.o
                0x0000000000050e80                hal_serial_lld.c.61c0df5f
 .debug_info    0x0000000000051b8b     0x1143 /tmp/ccbZtz5z.debug.temp.o
                0x0000000000051b8b                hal_usb_lld.c.cefd01bf
 .debug_info    0x0000000000052cce      0x370 /tmp/ccLirZFJ.debug.temp.o
                0x0000000000052cce                board.c.0f5a9339
 .debug_info    0x000000000005303e      0xcc7 /tmp/ccu3Li40.debug.temp.o
                0x000000000005303e                syscalls.c.8a178e8a
 .debug_info    0x0000000000053d05      0xe04 /tmp/cciJ5IA3.debug.temp.o
                0x0000000000053d05                syscall_fallbacks.c.e3d5965a
 .debug_info    0x0000000000054b09     0x1212 .build/obj_karlk90_yaemk_moonlanderlike/i2c_master.a(i2c_master.o)
 .debug_info    0x0000000000055d1b     0x1be9 .build/obj_karlk90_yaemk_moonlanderlike/serial_usart.a(serial_usart.o)
 .debug_info    0x0000000000057904       0x26 /usr/lib/gcc/arm-none-eabi/10.3.1/thumb/v7e-m+fp/hard/libgcc.a(_aeabi_uldivmod.o)
 .debug_info    0x000000000005792a      0x717 /usr/lib/gcc/arm-none-eabi/10.3.1/thumb/v7e-m+fp/hard/libgcc.a(_udivmoddi4.o)
 .debug_info    0x0000000000058041       0x26 /usr/lib/gcc/arm-none-eabi/10.3.1/thumb/v7e-m+fp/hard/libgcc.a(_dvmd_tls.o)
 .debug_info    0x0000000000058067       0xb8 /usr/lib/gcc/arm-none-eabi/10.3.1/../../../arm-none-eabi/lib/thumb/v7e-m+fp/hard/libg_nano.a(lib_a-ctype_.o)
 .debug_info    0x000000000005811f      0x863 /usr/lib/gcc/arm-none-eabi/10.3.1/../../../arm-none-eabi/lib/thumb/v7e-m+fp/hard/libg_nano.a(lib_a-impure.o)
 .debug_info    0x0000000000058982       0x26 /usr/lib/gcc/arm-none-eabi/10.3.1/../../../arm-none-eabi/lib/thumb/v7e-m+fp/hard/libg_nano.a(lib_a-memcpy.o)
 .debug_info    0x00000000000589a8      0x8f2 /usr/lib/gcc/arm-none-eabi/10.3.1/../../../arm-none-eabi/lib/thumb/v7e-m+fp/hard/libg_nano.a(lib_a-rand.o)
 .debug_info    0x000000000005929a      0x8bd /usr/lib/gcc/arm-none-eabi/10.3.1/../../../arm-none-eabi/lib/thumb/v7e-m+fp/hard/libg_nano.a(lib_a-assert.o)
 .debug_info    0x0000000000059b57      0x902 /usr/lib/gcc/arm-none-eabi/10.3.1/../../../arm-none-eabi/lib/thumb/v7e-m+fp/hard/libg_nano.a(lib_a-fprintf.o)
 .debug_info    0x000000000005a459      0x832 /usr/lib/gcc/arm-none-eabi/10.3.1/../../../arm-none-eabi/lib/thumb/v7e-m+fp/hard/libg_nano.a(lib_a-malloc.o)
 .debug_info    0x000000000005ac8b      0x903 /usr/lib/gcc/arm-none-eabi/10.3.1/../../../arm-none-eabi/lib/thumb/v7e-m+fp/hard/libg_nano.a(lib_a-nano-freer.o)
 .debug_info    0x000000000005b58e      0xa0c /usr/lib/gcc/arm-none-eabi/10.3.1/../../../arm-none-eabi/lib/thumb/v7e-m+fp/hard/libg_nano.a(lib_a-nano-mallocr.o)
 .debug_info    0x000000000005bf9a     0x115f /usr/lib/gcc/arm-none-eabi/10.3.1/../../../arm-none-eabi/lib/thumb/v7e-m+fp/hard/libg_nano.a(lib_a-nano-vfprintf.o)
 .debug_info    0x000000000005d0f9      0xe9e /usr/lib/gcc/arm-none-eabi/10.3.1/../../../arm-none-eabi/lib/thumb/v7e-m+fp/hard/libg_nano.a(lib_a-nano-vfprintf_i.o)
 .debug_info    0x000000000005df97      0x998 /usr/lib/gcc/arm-none-eabi/10.3.1/../../../arm-none-eabi/lib/thumb/v7e-m+fp/hard/libg_nano.a(lib_a-wbuf.o)
 .debug_info    0x000000000005e92f      0x902 /usr/lib/gcc/arm-none-eabi/10.3.1/../../../arm-none-eabi/lib/thumb/v7e-m+fp/hard/libg_nano.a(lib_a-wsetup.o)
 .debug_info    0x000000000005f231       0xcb /usr/lib/gcc/arm-none-eabi/10.3.1/../../../arm-none-eabi/lib/thumb/v7e-m+fp/hard/libg_nano.a(lib_a-abort.o)
 .debug_info    0x000000000005f2fc      0xb0d /usr/lib/gcc/arm-none-eabi/10.3.1/../../../arm-none-eabi/lib/thumb/v7e-m+fp/hard/libg_nano.a(lib_a-fflush.o)
 .debug_info    0x000000000005fe09      0xfae /usr/lib/gcc/arm-none-eabi/10.3.1/../../../arm-none-eabi/lib/thumb/v7e-m+fp/hard/libg_nano.a(lib_a-findfp.o)
 .debug_info    0x0000000000060db7      0xb5e /usr/lib/gcc/arm-none-eabi/10.3.1/../../../arm-none-eabi/lib/thumb/v7e-m+fp/hard/libg_nano.a(lib_a-fvwrite.o)
 .debug_info    0x0000000000061915      0x900 /usr/lib/gcc/arm-none-eabi/10.3.1/../../../arm-none-eabi/lib/thumb/v7e-m+fp/hard/libg_nano.a(lib_a-fwalk.o)
 .debug_info    0x0000000000062215      0xc8a /usr/lib/gcc/arm-none-eabi/10.3.1/../../../arm-none-eabi/lib/thumb/v7e-m+fp/hard/libg_nano.a(lib_a-makebuf.o)
 .debug_info    0x0000000000062e9f       0x26 /usr/lib/gcc/arm-none-eabi/10.3.1/../../../arm-none-eabi/lib/thumb/v7e-m+fp/hard/libg_nano.a(lib_a-memchr.o)
 .debug_info    0x0000000000062ec5      0x152 /usr/lib/gcc/arm-none-eabi/10.3.1/../../../arm-none-eabi/lib/thumb/v7e-m+fp/hard/libg_nano.a(lib_a-memmove.o)
 .debug_info    0x0000000000063017      0x137 /usr/lib/gcc/arm-none-eabi/10.3.1/../../../arm-none-eabi/lib/thumb/v7e-m+fp/hard/libg_nano.a(lib_a-memset.o)
 .debug_info    0x000000000006314e      0x7dc /usr/lib/gcc/arm-none-eabi/10.3.1/../../../arm-none-eabi/lib/thumb/v7e-m+fp/hard/libg_nano.a(lib_a-mlock.o)
 .debug_info    0x000000000006392a      0x911 /usr/lib/gcc/arm-none-eabi/10.3.1/../../../arm-none-eabi/lib/thumb/v7e-m+fp/hard/libg_nano.a(lib_a-nano-reallocr.o)
 .debug_info    0x000000000006423b      0xdcc /usr/lib/gcc/arm-none-eabi/10.3.1/../../../arm-none-eabi/lib/thumb/v7e-m+fp/hard/libg_nano.a(lib_a-signal.o)
 .debug_info    0x0000000000065007      0x871 /usr/lib/gcc/arm-none-eabi/10.3.1/../../../arm-none-eabi/lib/thumb/v7e-m+fp/hard/libg_nano.a(lib_a-signalr.o)
 .debug_info    0x0000000000065878      0xabc /usr/lib/gcc/arm-none-eabi/10.3.1/../../../arm-none-eabi/lib/thumb/v7e-m+fp/hard/libg_nano.a(lib_a-stdio.o)
 .debug_info    0x0000000000066334      0x840 /usr/lib/gcc/arm-none-eabi/10.3.1/../../../arm-none-eabi/lib/thumb/v7e-m+fp/hard/libg_nano.a(lib_a-nano-msizer.o)
 .debug_info    0x0000000000066b74      0xa7e /usr/lib/gcc/arm-none-eabi/10.3.1/../../../arm-none-eabi/lib/thumb/v7e-m+fp/hard/libg_nano.a(lib_a-reent.o)
 .debug_info    0x00000000000675f2      0x138 /usr/lib/gcc/arm-none-eabi/10.3.1/../../../arm-none-eabi/lib/thumb/v7e-m+fp/hard/libg_nano.a(lib_a-memcmp.o)
 .debug_info    0x000000000006772a       0x26 /usr/lib/gcc/arm-none-eabi/10.3.1/../../../arm-none-eabi/lib/thumb/v7e-m+fp/hard/libg_nano.a(lib_a-strlen.o)

.debug_abbrev   0x0000000000000000     0xc7e5
 .debug_abbrev  0x0000000000000000      0x3d9 /tmp/karlk90_yaemk_moonlanderlike.elf.XW0OFi.ltrans0.ltrans.o
 .debug_abbrev  0x00000000000003d9      0x3f3 /tmp/karlk90_yaemk_moonlanderlike.elf.XW0OFi.ltrans1.ltrans.o
 .debug_abbrev  0x00000000000007cc       0xc3 /tmp/ccfnEjuh.debug.temp.o
 .debug_abbrev  0x000000000000088f      0x12d /tmp/cc0I4f7X.debug.temp.o
 .debug_abbrev  0x00000000000009bc      0x25d /tmp/cclModur.debug.temp.o
 .debug_abbrev  0x0000000000000c19      0x1d7 /tmp/cctRlNqi.debug.temp.o
 .debug_abbrev  0x0000000000000df0      0x1db /tmp/ccW91Jhp.debug.temp.o
 .debug_abbrev  0x0000000000000fcb      0x14a /tmp/cc1n2tj8.debug.temp.o
 .debug_abbrev  0x0000000000001115       0x7b /tmp/ccQek5tM.debug.temp.o
 .debug_abbrev  0x0000000000001190       0xe8 /tmp/ccy2zO6v.debug.temp.o
 .debug_abbrev  0x0000000000001278      0x29e /tmp/ccOBaQrD.debug.temp.o
 .debug_abbrev  0x0000000000001516      0x1dc /tmp/ccByYric.debug.temp.o
 .debug_abbrev  0x00000000000016f2      0x1cb /tmp/cc90lmnB.debug.temp.o
 .debug_abbrev  0x00000000000018bd      0x1f4 /tmp/ccGI6wID.debug.temp.o
 .debug_abbrev  0x0000000000001ab1       0xb2 /tmp/ccncmTqY.debug.temp.o
 .debug_abbrev  0x0000000000001b63      0x1ae /tmp/cc14VErq.debug.temp.o
 .debug_abbrev  0x0000000000001d11      0x1fb /tmp/ccJHiYPW.debug.temp.o
 .debug_abbrev  0x0000000000001f0c       0xf7 /tmp/ccs3fqN1.debug.temp.o
 .debug_abbrev  0x0000000000002003       0xc8 /tmp/ccQRN3Wo.debug.temp.o
 .debug_abbrev  0x00000000000020cb       0xa0 /tmp/ccmAVrlH.debug.temp.o
 .debug_abbrev  0x000000000000216b       0xa1 /tmp/ccKbKh4E.debug.temp.o
 .debug_abbrev  0x000000000000220c       0x68 /tmp/ccKwh0z5.debug.temp.o
 .debug_abbrev  0x0000000000002274       0xef /tmp/cckzIpwo.debug.temp.o
 .debug_abbrev  0x0000000000002363      0x119 /tmp/ccGzjP0w.debug.temp.o
 .debug_abbrev  0x000000000000247c      0x218 /tmp/ccXB4Az0.debug.temp.o
 .debug_abbrev  0x0000000000002694      0x109 /tmp/ccS614w6.debug.temp.o
 .debug_abbrev  0x000000000000279d      0x171 /tmp/cc7Z7BLY.debug.temp.o
 .debug_abbrev  0x000000000000290e      0x1d9 /tmp/cc1oeOTg.debug.temp.o
 .debug_abbrev  0x0000000000002ae7      0x297 /tmp/cclqFKnx.debug.temp.o
 .debug_abbrev  0x0000000000002d7e       0x39 /tmp/ccV71jLk.debug.temp.o
 .debug_abbrev  0x0000000000002db7      0x18e /tmp/ccSb3YlV.debug.temp.o
 .debug_abbrev  0x0000000000002f45      0x1b3 /tmp/ccLgSN5x.debug.temp.o
 .debug_abbrev  0x00000000000030f8       0xd0 /tmp/ccYm6amU.debug.temp.o
 .debug_abbrev  0x00000000000031c8       0xd0 /tmp/ccV2JrjB.debug.temp.o
 .debug_abbrev  0x0000000000003298       0xdd /tmp/ccQzfpqF.debug.temp.o
 .debug_abbrev  0x0000000000003375      0x2e0 /tmp/ccvrKOHP.debug.temp.o
 .debug_abbrev  0x0000000000003655      0x15e /tmp/ccvsftI7.debug.temp.o
 .debug_abbrev  0x00000000000037b3      0x102 /tmp/ccS4oibQ.debug.temp.o
 .debug_abbrev  0x00000000000038b5      0x1c9 /tmp/cc9usVWf.debug.temp.o
 .debug_abbrev  0x0000000000003a7e       0x75 /tmp/ccDQrsNj.debug.temp.o
 .debug_abbrev  0x0000000000003af3      0x163 /tmp/cc4TrJZZ.debug.temp.o
 .debug_abbrev  0x0000000000003c56      0x148 /tmp/ccnqM8Lz.debug.temp.o
 .debug_abbrev  0x0000000000003d9e      0x130 /tmp/ccXHZlTu.debug.temp.o
 .debug_abbrev  0x0000000000003ece       0xcb /tmp/cc2w2gDW.debug.temp.o
 .debug_abbrev  0x0000000000003f99      0x1a3 /tmp/ccf7tNaY.debug.temp.o
 .debug_abbrev  0x000000000000413c      0x104 /tmp/ccEP9BKn.debug.temp.o
 .debug_abbrev  0x0000000000004240      0x109 /tmp/ccm3qksS.debug.temp.o
 .debug_abbrev  0x0000000000004349      0x19c /tmp/ccN3fR2P.debug.temp.o
 .debug_abbrev  0x00000000000044e5      0x1da /tmp/ccp41CVD.debug.temp.o
 .debug_abbrev  0x00000000000046bf      0x1aa /tmp/ccam8VBf.debug.temp.o
 .debug_abbrev  0x0000000000004869       0xa8 /tmp/ccNdgF9w.debug.temp.o
 .debug_abbrev  0x0000000000004911       0x37 /tmp/ccu1coHQ.debug.temp.o
 .debug_abbrev  0x0000000000004948      0x11b /tmp/cczSDEhq.debug.temp.o
 .debug_abbrev  0x0000000000004a63      0x112 /tmp/ccEcDonF.debug.temp.o
 .debug_abbrev  0x0000000000004b75      0x160 /tmp/ccCQ8m0z.debug.temp.o
 .debug_abbrev  0x0000000000004cd5      0x3be /tmp/ccZjDjB6.debug.temp.o
 .debug_abbrev  0x0000000000005093      0x1e0 /tmp/ccQxHeRz.debug.temp.o
 .debug_abbrev  0x0000000000005273      0x13a /tmp/ccJefRjC.debug.temp.o
 .debug_abbrev  0x00000000000053ad      0x287 /tmp/ccfphpFF.debug.temp.o
 .debug_abbrev  0x0000000000005634      0x154 /tmp/ccpJSHAY.debug.temp.o
 .debug_abbrev  0x0000000000005788       0xe5 /tmp/ccnMlElZ.debug.temp.o
 .debug_abbrev  0x000000000000586d      0x2c7 /tmp/ccQytxMT.debug.temp.o
 .debug_abbrev  0x0000000000005b34      0x262 /tmp/ccl8lVpT.debug.temp.o
 .debug_abbrev  0x0000000000005d96      0x27d /tmp/cczusIdJ.debug.temp.o
 .debug_abbrev  0x0000000000006013      0x26a /tmp/ccQHHhYP.debug.temp.o
 .debug_abbrev  0x000000000000627d      0x236 /tmp/ccFBVBaf.debug.temp.o
 .debug_abbrev  0x00000000000064b3      0x230 /tmp/ccqpTBta.debug.temp.o
 .debug_abbrev  0x00000000000066e3      0x1d9 /tmp/ccC350TJ.debug.temp.o
 .debug_abbrev  0x00000000000068bc       0x46 /tmp/ccTJ2Y4W.debug.temp.o
 .debug_abbrev  0x0000000000006902      0x13b /tmp/ccwq0AC1.debug.temp.o
 .debug_abbrev  0x0000000000006a3d      0x1b3 /tmp/ccbaU3nc.debug.temp.o
 .debug_abbrev  0x0000000000006bf0      0x1b5 /tmp/cc5jXrRB.debug.temp.o
 .debug_abbrev  0x0000000000006da5      0x1e5 /tmp/ccah7oE4.debug.temp.o
 .debug_abbrev  0x0000000000006f8a      0x16a /tmp/ccX6H7ct.debug.temp.o
 .debug_abbrev  0x00000000000070f4      0x22f /tmp/ccz6s2Yh.debug.temp.o
 .debug_abbrev  0x0000000000007323      0x265 /tmp/ccPOKm0t.debug.temp.o
 .debug_abbrev  0x0000000000007588      0x11c /tmp/cc8lT2nY.debug.temp.o
 .debug_abbrev  0x00000000000076a4      0x119 /tmp/ccLjXG4Y.debug.temp.o
 .debug_abbrev  0x00000000000077bd       0xce /tmp/cc5XnyZZ.debug.temp.o
 .debug_abbrev  0x000000000000788b      0x189 /tmp/ccVjpK5C.debug.temp.o
 .debug_abbrev  0x0000000000007a14       0xea /tmp/cck1LmA3.debug.temp.o
 .debug_abbrev  0x0000000000007afe      0x265 /tmp/cc1Cuw1k.debug.temp.o
 .debug_abbrev  0x0000000000007d63      0x106 /tmp/ccW0mz4b.debug.temp.o
 .debug_abbrev  0x0000000000007e69      0x157 /tmp/ccc4Etus.debug.temp.o
 .debug_abbrev  0x0000000000007fc0      0x23b /tmp/cckFgdT0.debug.temp.o
 .debug_abbrev  0x00000000000081fb      0x297 /tmp/ccbZtz5z.debug.temp.o
 .debug_abbrev  0x0000000000008492      0x13b /tmp/ccLirZFJ.debug.temp.o
 .debug_abbrev  0x00000000000085cd      0x214 /tmp/ccu3Li40.debug.temp.o
 .debug_abbrev  0x00000000000087e1      0x21c /tmp/cciJ5IA3.debug.temp.o
 .debug_abbrev  0x00000000000089fd      0x2db .build/obj_karlk90_yaemk_moonlanderlike/i2c_master.a(i2c_master.o)
 .debug_abbrev  0x0000000000008cd8      0x482 .build/obj_karlk90_yaemk_moonlanderlike/serial_usart.a(serial_usart.o)
 .debug_abbrev  0x000000000000915a       0x14 /usr/lib/gcc/arm-none-eabi/10.3.1/thumb/v7e-m+fp/hard/libgcc.a(_aeabi_uldivmod.o)
 .debug_abbrev  0x000000000000916e      0x163 /usr/lib/gcc/arm-none-eabi/10.3.1/thumb/v7e-m+fp/hard/libgcc.a(_udivmoddi4.o)
 .debug_abbrev  0x00000000000092d1       0x14 /usr/lib/gcc/arm-none-eabi/10.3.1/thumb/v7e-m+fp/hard/libgcc.a(_dvmd_tls.o)
 .debug_abbrev  0x00000000000092e5       0x62 /usr/lib/gcc/arm-none-eabi/10.3.1/../../../arm-none-eabi/lib/thumb/v7e-m+fp/hard/libg_nano.a(lib_a-ctype_.o)
 .debug_abbrev  0x0000000000009347      0x151 /usr/lib/gcc/arm-none-eabi/10.3.1/../../../arm-none-eabi/lib/thumb/v7e-m+fp/hard/libg_nano.a(lib_a-impure.o)
 .debug_abbrev  0x0000000000009498       0x14 /usr/lib/gcc/arm-none-eabi/10.3.1/../../../arm-none-eabi/lib/thumb/v7e-m+fp/hard/libg_nano.a(lib_a-memcpy.o)
 .debug_abbrev  0x00000000000094ac      0x203 /usr/lib/gcc/arm-none-eabi/10.3.1/../../../arm-none-eabi/lib/thumb/v7e-m+fp/hard/libg_nano.a(lib_a-rand.o)
 .debug_abbrev  0x00000000000096af      0x1c3 /usr/lib/gcc/arm-none-eabi/10.3.1/../../../arm-none-eabi/lib/thumb/v7e-m+fp/hard/libg_nano.a(lib_a-assert.o)
 .debug_abbrev  0x0000000000009872      0x213 /usr/lib/gcc/arm-none-eabi/10.3.1/../../../arm-none-eabi/lib/thumb/v7e-m+fp/hard/libg_nano.a(lib_a-fprintf.o)
 .debug_abbrev  0x0000000000009a85      0x1b6 /usr/lib/gcc/arm-none-eabi/10.3.1/../../../arm-none-eabi/lib/thumb/v7e-m+fp/hard/libg_nano.a(lib_a-malloc.o)
 .debug_abbrev  0x0000000000009c3b      0x235 /usr/lib/gcc/arm-none-eabi/10.3.1/../../../arm-none-eabi/lib/thumb/v7e-m+fp/hard/libg_nano.a(lib_a-nano-freer.o)
 .debug_abbrev  0x0000000000009e70      0x290 /usr/lib/gcc/arm-none-eabi/10.3.1/../../../arm-none-eabi/lib/thumb/v7e-m+fp/hard/libg_nano.a(lib_a-nano-mallocr.o)
 .debug_abbrev  0x000000000000a100      0x358 /usr/lib/gcc/arm-none-eabi/10.3.1/../../../arm-none-eabi/lib/thumb/v7e-m+fp/hard/libg_nano.a(lib_a-nano-vfprintf.o)
 .debug_abbrev  0x000000000000a458      0x25c /usr/lib/gcc/arm-none-eabi/10.3.1/../../../arm-none-eabi/lib/thumb/v7e-m+fp/hard/libg_nano.a(lib_a-nano-vfprintf_i.o)
 .debug_abbrev  0x000000000000a6b4      0x21f /usr/lib/gcc/arm-none-eabi/10.3.1/../../../arm-none-eabi/lib/thumb/v7e-m+fp/hard/libg_nano.a(lib_a-wbuf.o)
 .debug_abbrev  0x000000000000a8d3      0x1d4 /usr/lib/gcc/arm-none-eabi/10.3.1/../../../arm-none-eabi/lib/thumb/v7e-m+fp/hard/libg_nano.a(lib_a-wsetup.o)
 .debug_abbrev  0x000000000000aaa7       0x80 /usr/lib/gcc/arm-none-eabi/10.3.1/../../../arm-none-eabi/lib/thumb/v7e-m+fp/hard/libg_nano.a(lib_a-abort.o)
 .debug_abbrev  0x000000000000ab27      0x2dd /usr/lib/gcc/arm-none-eabi/10.3.1/../../../arm-none-eabi/lib/thumb/v7e-m+fp/hard/libg_nano.a(lib_a-fflush.o)
 .debug_abbrev  0x000000000000ae04      0x3cd /usr/lib/gcc/arm-none-eabi/10.3.1/../../../arm-none-eabi/lib/thumb/v7e-m+fp/hard/libg_nano.a(lib_a-findfp.o)
 .debug_abbrev  0x000000000000b1d1      0x1f7 /usr/lib/gcc/arm-none-eabi/10.3.1/../../../arm-none-eabi/lib/thumb/v7e-m+fp/hard/libg_nano.a(lib_a-fvwrite.o)
 .debug_abbrev  0x000000000000b3c8      0x197 /usr/lib/gcc/arm-none-eabi/10.3.1/../../../arm-none-eabi/lib/thumb/v7e-m+fp/hard/libg_nano.a(lib_a-fwalk.o)
 .debug_abbrev  0x000000000000b55f      0x278 /usr/lib/gcc/arm-none-eabi/10.3.1/../../../arm-none-eabi/lib/thumb/v7e-m+fp/hard/libg_nano.a(lib_a-makebuf.o)
 .debug_abbrev  0x000000000000b7d7       0x14 /usr/lib/gcc/arm-none-eabi/10.3.1/../../../arm-none-eabi/lib/thumb/v7e-m+fp/hard/libg_nano.a(lib_a-memchr.o)
 .debug_abbrev  0x000000000000b7eb       0xc0 /usr/lib/gcc/arm-none-eabi/10.3.1/../../../arm-none-eabi/lib/thumb/v7e-m+fp/hard/libg_nano.a(lib_a-memmove.o)
 .debug_abbrev  0x000000000000b8ab       0xb4 /usr/lib/gcc/arm-none-eabi/10.3.1/../../../arm-none-eabi/lib/thumb/v7e-m+fp/hard/libg_nano.a(lib_a-memset.o)
 .debug_abbrev  0x000000000000b95f      0x189 /usr/lib/gcc/arm-none-eabi/10.3.1/../../../arm-none-eabi/lib/thumb/v7e-m+fp/hard/libg_nano.a(lib_a-mlock.o)
 .debug_abbrev  0x000000000000bae8      0x1d6 /usr/lib/gcc/arm-none-eabi/10.3.1/../../../arm-none-eabi/lib/thumb/v7e-m+fp/hard/libg_nano.a(lib_a-nano-reallocr.o)
 .debug_abbrev  0x000000000000bcbe      0x2ba /usr/lib/gcc/arm-none-eabi/10.3.1/../../../arm-none-eabi/lib/thumb/v7e-m+fp/hard/libg_nano.a(lib_a-signal.o)
 .debug_abbrev  0x000000000000bf78      0x1db /usr/lib/gcc/arm-none-eabi/10.3.1/../../../arm-none-eabi/lib/thumb/v7e-m+fp/hard/libg_nano.a(lib_a-signalr.o)
 .debug_abbrev  0x000000000000c153      0x1fb /usr/lib/gcc/arm-none-eabi/10.3.1/../../../arm-none-eabi/lib/thumb/v7e-m+fp/hard/libg_nano.a(lib_a-stdio.o)
 .debug_abbrev  0x000000000000c34e      0x191 /usr/lib/gcc/arm-none-eabi/10.3.1/../../../arm-none-eabi/lib/thumb/v7e-m+fp/hard/libg_nano.a(lib_a-nano-msizer.o)
 .debug_abbrev  0x000000000000c4df      0x265 /usr/lib/gcc/arm-none-eabi/10.3.1/../../../arm-none-eabi/lib/thumb/v7e-m+fp/hard/libg_nano.a(lib_a-reent.o)
 .debug_abbrev  0x000000000000c744       0x8d /usr/lib/gcc/arm-none-eabi/10.3.1/../../../arm-none-eabi/lib/thumb/v7e-m+fp/hard/libg_nano.a(lib_a-memcmp.o)
 .debug_abbrev  0x000000000000c7d1       0x14 /usr/lib/gcc/arm-none-eabi/10.3.1/../../../arm-none-eabi/lib/thumb/v7e-m+fp/hard/libg_nano.a(lib_a-strlen.o)

.debug_loc      0x0000000000000000    0x3001d
 .debug_loc     0x0000000000000000    0x189c3 /tmp/karlk90_yaemk_moonlanderlike.elf.XW0OFi.ltrans0.ltrans.o
 .debug_loc     0x00000000000189c3    0x1157c /tmp/karlk90_yaemk_moonlanderlike.elf.XW0OFi.ltrans1.ltrans.o
 .debug_loc     0x0000000000029f3f      0x609 .build/obj_karlk90_yaemk_moonlanderlike/i2c_master.a(i2c_master.o)
 .debug_loc     0x000000000002a548      0x3f2 .build/obj_karlk90_yaemk_moonlanderlike/serial_usart.a(serial_usart.o)
 .debug_loc     0x000000000002a93a     0x100f /usr/lib/gcc/arm-none-eabi/10.3.1/thumb/v7e-m+fp/hard/libgcc.a(_udivmoddi4.o)
 .debug_loc     0x000000000002b949       0xd4 /usr/lib/gcc/arm-none-eabi/10.3.1/../../../arm-none-eabi/lib/thumb/v7e-m+fp/hard/libg_nano.a(lib_a-rand.o)
 .debug_loc     0x000000000002ba1d      0x185 /usr/lib/gcc/arm-none-eabi/10.3.1/../../../arm-none-eabi/lib/thumb/v7e-m+fp/hard/libg_nano.a(lib_a-assert.o)
 .debug_loc     0x000000000002bba2       0xa6 /usr/lib/gcc/arm-none-eabi/10.3.1/../../../arm-none-eabi/lib/thumb/v7e-m+fp/hard/libg_nano.a(lib_a-fprintf.o)
 .debug_loc     0x000000000002bc48       0x64 /usr/lib/gcc/arm-none-eabi/10.3.1/../../../arm-none-eabi/lib/thumb/v7e-m+fp/hard/libg_nano.a(lib_a-malloc.o)
 .debug_loc     0x000000000002bcac      0x203 /usr/lib/gcc/arm-none-eabi/10.3.1/../../../arm-none-eabi/lib/thumb/v7e-m+fp/hard/libg_nano.a(lib_a-nano-freer.o)
 .debug_loc     0x000000000002beaf      0x3cd /usr/lib/gcc/arm-none-eabi/10.3.1/../../../arm-none-eabi/lib/thumb/v7e-m+fp/hard/libg_nano.a(lib_a-nano-mallocr.o)
 .debug_loc     0x000000000002c27c      0x7ae /usr/lib/gcc/arm-none-eabi/10.3.1/../../../arm-none-eabi/lib/thumb/v7e-m+fp/hard/libg_nano.a(lib_a-nano-vfprintf.o)
 .debug_loc     0x000000000002ca2a      0x5dd /usr/lib/gcc/arm-none-eabi/10.3.1/../../../arm-none-eabi/lib/thumb/v7e-m+fp/hard/libg_nano.a(lib_a-nano-vfprintf_i.o)
 .debug_loc     0x000000000002d007      0x193 /usr/lib/gcc/arm-none-eabi/10.3.1/../../../arm-none-eabi/lib/thumb/v7e-m+fp/hard/libg_nano.a(lib_a-wbuf.o)
 .debug_loc     0x000000000002d19a       0xb7 /usr/lib/gcc/arm-none-eabi/10.3.1/../../../arm-none-eabi/lib/thumb/v7e-m+fp/hard/libg_nano.a(lib_a-wsetup.o)
 .debug_loc     0x000000000002d251      0x4ee /usr/lib/gcc/arm-none-eabi/10.3.1/../../../arm-none-eabi/lib/thumb/v7e-m+fp/hard/libg_nano.a(lib_a-fflush.o)
 .debug_loc     0x000000000002d73f      0x3d9 /usr/lib/gcc/arm-none-eabi/10.3.1/../../../arm-none-eabi/lib/thumb/v7e-m+fp/hard/libg_nano.a(lib_a-findfp.o)
 .debug_loc     0x000000000002db18      0x76c /usr/lib/gcc/arm-none-eabi/10.3.1/../../../arm-none-eabi/lib/thumb/v7e-m+fp/hard/libg_nano.a(lib_a-fvwrite.o)
 .debug_loc     0x000000000002e284      0x1bf /usr/lib/gcc/arm-none-eabi/10.3.1/../../../arm-none-eabi/lib/thumb/v7e-m+fp/hard/libg_nano.a(lib_a-fwalk.o)
 .debug_loc     0x000000000002e443      0x327 /usr/lib/gcc/arm-none-eabi/10.3.1/../../../arm-none-eabi/lib/thumb/v7e-m+fp/hard/libg_nano.a(lib_a-makebuf.o)
 .debug_loc     0x000000000002e76a      0x34f /usr/lib/gcc/arm-none-eabi/10.3.1/../../../arm-none-eabi/lib/thumb/v7e-m+fp/hard/libg_nano.a(lib_a-memmove.o)
 .debug_loc     0x000000000002eab9      0x22c /usr/lib/gcc/arm-none-eabi/10.3.1/../../../arm-none-eabi/lib/thumb/v7e-m+fp/hard/libg_nano.a(lib_a-memset.o)
 .debug_loc     0x000000000002ece5      0x133 /usr/lib/gcc/arm-none-eabi/10.3.1/../../../arm-none-eabi/lib/thumb/v7e-m+fp/hard/libg_nano.a(lib_a-nano-reallocr.o)
 .debug_loc     0x000000000002ee18      0x967 /usr/lib/gcc/arm-none-eabi/10.3.1/../../../arm-none-eabi/lib/thumb/v7e-m+fp/hard/libg_nano.a(lib_a-signal.o)
 .debug_loc     0x000000000002f77f       0xd0 /usr/lib/gcc/arm-none-eabi/10.3.1/../../../arm-none-eabi/lib/thumb/v7e-m+fp/hard/libg_nano.a(lib_a-signalr.o)
 .debug_loc     0x000000000002f84f      0x3a0 /usr/lib/gcc/arm-none-eabi/10.3.1/../../../arm-none-eabi/lib/thumb/v7e-m+fp/hard/libg_nano.a(lib_a-stdio.o)
 .debug_loc     0x000000000002fbef       0x86 /usr/lib/gcc/arm-none-eabi/10.3.1/../../../arm-none-eabi/lib/thumb/v7e-m+fp/hard/libg_nano.a(lib_a-nano-msizer.o)
 .debug_loc     0x000000000002fc75      0x1cd /usr/lib/gcc/arm-none-eabi/10.3.1/../../../arm-none-eabi/lib/thumb/v7e-m+fp/hard/libg_nano.a(lib_a-reent.o)
 .debug_loc     0x000000000002fe42      0x1db /usr/lib/gcc/arm-none-eabi/10.3.1/../../../arm-none-eabi/lib/thumb/v7e-m+fp/hard/libg_nano.a(lib_a-memcmp.o)

.debug_aranges  0x0000000000000000      0xbf8
 .debug_aranges
                0x0000000000000000      0x270 /tmp/karlk90_yaemk_moonlanderlike.elf.XW0OFi.ltrans0.ltrans.o
 .debug_aranges
                0x0000000000000270      0x4b0 /tmp/karlk90_yaemk_moonlanderlike.elf.XW0OFi.ltrans1.ltrans.o
 .debug_aranges
                0x0000000000000720       0x60 .build/obj_karlk90_yaemk_moonlanderlike/i2c_master.a(i2c_master.o)
 .debug_aranges
                0x0000000000000780       0x48 .build/obj_karlk90_yaemk_moonlanderlike/serial_usart.a(serial_usart.o)
 .debug_aranges
                0x00000000000007c8       0x20 /usr/lib/gcc/arm-none-eabi/10.3.1/thumb/v7e-m+fp/hard/libgcc.a(_aeabi_uldivmod.o)
 .debug_aranges
                0x00000000000007e8       0x20 /usr/lib/gcc/arm-none-eabi/10.3.1/thumb/v7e-m+fp/hard/libgcc.a(_udivmoddi4.o)
 .debug_aranges
                0x0000000000000808       0x20 /usr/lib/gcc/arm-none-eabi/10.3.1/thumb/v7e-m+fp/hard/libgcc.a(_dvmd_tls.o)
 .debug_aranges
                0x0000000000000828       0x18 /usr/lib/gcc/arm-none-eabi/10.3.1/../../../arm-none-eabi/lib/thumb/v7e-m+fp/hard/libg_nano.a(lib_a-ctype_.o)
 .debug_aranges
                0x0000000000000840       0x18 /usr/lib/gcc/arm-none-eabi/10.3.1/../../../arm-none-eabi/lib/thumb/v7e-m+fp/hard/libg_nano.a(lib_a-impure.o)
 .debug_aranges
                0x0000000000000858       0x20 /usr/lib/gcc/arm-none-eabi/10.3.1/../../../arm-none-eabi/lib/thumb/v7e-m+fp/hard/libg_nano.a(lib_a-memcpy.o)
 .debug_aranges
                0x0000000000000878       0x20 /usr/lib/gcc/arm-none-eabi/10.3.1/../../../arm-none-eabi/lib/thumb/v7e-m+fp/hard/libg_nano.a(lib_a-rand.o)
 .debug_aranges
                0x0000000000000898       0x20 /usr/lib/gcc/arm-none-eabi/10.3.1/../../../arm-none-eabi/lib/thumb/v7e-m+fp/hard/libg_nano.a(lib_a-assert.o)
 .debug_aranges
                0x00000000000008b8       0x20 /usr/lib/gcc/arm-none-eabi/10.3.1/../../../arm-none-eabi/lib/thumb/v7e-m+fp/hard/libg_nano.a(lib_a-fprintf.o)
 .debug_aranges
                0x00000000000008d8       0x20 /usr/lib/gcc/arm-none-eabi/10.3.1/../../../arm-none-eabi/lib/thumb/v7e-m+fp/hard/libg_nano.a(lib_a-malloc.o)
 .debug_aranges
                0x00000000000008f8       0x20 /usr/lib/gcc/arm-none-eabi/10.3.1/../../../arm-none-eabi/lib/thumb/v7e-m+fp/hard/libg_nano.a(lib_a-nano-freer.o)
 .debug_aranges
                0x0000000000000918       0x20 /usr/lib/gcc/arm-none-eabi/10.3.1/../../../arm-none-eabi/lib/thumb/v7e-m+fp/hard/libg_nano.a(lib_a-nano-mallocr.o)
 .debug_aranges
                0x0000000000000938       0x20 /usr/lib/gcc/arm-none-eabi/10.3.1/../../../arm-none-eabi/lib/thumb/v7e-m+fp/hard/libg_nano.a(lib_a-nano-vfprintf.o)
 .debug_aranges
                0x0000000000000958       0x20 /usr/lib/gcc/arm-none-eabi/10.3.1/../../../arm-none-eabi/lib/thumb/v7e-m+fp/hard/libg_nano.a(lib_a-nano-vfprintf_i.o)
 .debug_aranges
                0x0000000000000978       0x20 /usr/lib/gcc/arm-none-eabi/10.3.1/../../../arm-none-eabi/lib/thumb/v7e-m+fp/hard/libg_nano.a(lib_a-wbuf.o)
 .debug_aranges
                0x0000000000000998       0x20 /usr/lib/gcc/arm-none-eabi/10.3.1/../../../arm-none-eabi/lib/thumb/v7e-m+fp/hard/libg_nano.a(lib_a-wsetup.o)
 .debug_aranges
                0x00000000000009b8       0x20 /usr/lib/gcc/arm-none-eabi/10.3.1/../../../arm-none-eabi/lib/thumb/v7e-m+fp/hard/libg_nano.a(lib_a-abort.o)
 .debug_aranges
                0x00000000000009d8       0x20 /usr/lib/gcc/arm-none-eabi/10.3.1/../../../arm-none-eabi/lib/thumb/v7e-m+fp/hard/libg_nano.a(lib_a-fflush.o)
 .debug_aranges
                0x00000000000009f8       0x20 /usr/lib/gcc/arm-none-eabi/10.3.1/../../../arm-none-eabi/lib/thumb/v7e-m+fp/hard/libg_nano.a(lib_a-findfp.o)
 .debug_aranges
                0x0000000000000a18       0x20 /usr/lib/gcc/arm-none-eabi/10.3.1/../../../arm-none-eabi/lib/thumb/v7e-m+fp/hard/libg_nano.a(lib_a-fvwrite.o)
 .debug_aranges
                0x0000000000000a38       0x20 /usr/lib/gcc/arm-none-eabi/10.3.1/../../../arm-none-eabi/lib/thumb/v7e-m+fp/hard/libg_nano.a(lib_a-fwalk.o)
 .debug_aranges
                0x0000000000000a58       0x20 /usr/lib/gcc/arm-none-eabi/10.3.1/../../../arm-none-eabi/lib/thumb/v7e-m+fp/hard/libg_nano.a(lib_a-makebuf.o)
 .debug_aranges
                0x0000000000000a78       0x20 /usr/lib/gcc/arm-none-eabi/10.3.1/../../../arm-none-eabi/lib/thumb/v7e-m+fp/hard/libg_nano.a(lib_a-memchr.o)
 .debug_aranges
                0x0000000000000a98       0x20 /usr/lib/gcc/arm-none-eabi/10.3.1/../../../arm-none-eabi/lib/thumb/v7e-m+fp/hard/libg_nano.a(lib_a-memmove.o)
 .debug_aranges
                0x0000000000000ab8       0x20 /usr/lib/gcc/arm-none-eabi/10.3.1/../../../arm-none-eabi/lib/thumb/v7e-m+fp/hard/libg_nano.a(lib_a-memset.o)
 .debug_aranges
                0x0000000000000ad8       0x20 /usr/lib/gcc/arm-none-eabi/10.3.1/../../../arm-none-eabi/lib/thumb/v7e-m+fp/hard/libg_nano.a(lib_a-mlock.o)
 .debug_aranges
                0x0000000000000af8       0x20 /usr/lib/gcc/arm-none-eabi/10.3.1/../../../arm-none-eabi/lib/thumb/v7e-m+fp/hard/libg_nano.a(lib_a-nano-reallocr.o)
 .debug_aranges
                0x0000000000000b18       0x20 /usr/lib/gcc/arm-none-eabi/10.3.1/../../../arm-none-eabi/lib/thumb/v7e-m+fp/hard/libg_nano.a(lib_a-signal.o)
 .debug_aranges
                0x0000000000000b38       0x20 /usr/lib/gcc/arm-none-eabi/10.3.1/../../../arm-none-eabi/lib/thumb/v7e-m+fp/hard/libg_nano.a(lib_a-signalr.o)
 .debug_aranges
                0x0000000000000b58       0x20 /usr/lib/gcc/arm-none-eabi/10.3.1/../../../arm-none-eabi/lib/thumb/v7e-m+fp/hard/libg_nano.a(lib_a-stdio.o)
 .debug_aranges
                0x0000000000000b78       0x20 /usr/lib/gcc/arm-none-eabi/10.3.1/../../../arm-none-eabi/lib/thumb/v7e-m+fp/hard/libg_nano.a(lib_a-nano-msizer.o)
 .debug_aranges
                0x0000000000000b98       0x20 /usr/lib/gcc/arm-none-eabi/10.3.1/../../../arm-none-eabi/lib/thumb/v7e-m+fp/hard/libg_nano.a(lib_a-reent.o)
 .debug_aranges
                0x0000000000000bb8       0x20 /usr/lib/gcc/arm-none-eabi/10.3.1/../../../arm-none-eabi/lib/thumb/v7e-m+fp/hard/libg_nano.a(lib_a-memcmp.o)
 .debug_aranges
                0x0000000000000bd8       0x20 /usr/lib/gcc/arm-none-eabi/10.3.1/../../../arm-none-eabi/lib/thumb/v7e-m+fp/hard/libg_nano.a(lib_a-strlen.o)

.debug_ranges   0x0000000000000000    0x16b58
 .debug_ranges  0x0000000000000000     0xc598 /tmp/karlk90_yaemk_moonlanderlike.elf.XW0OFi.ltrans0.ltrans.o
 .debug_ranges  0x000000000000c598     0x9ae0 /tmp/karlk90_yaemk_moonlanderlike.elf.XW0OFi.ltrans1.ltrans.o
 .debug_ranges  0x0000000000016078       0x50 .build/obj_karlk90_yaemk_moonlanderlike/i2c_master.a(i2c_master.o)
 .debug_ranges  0x00000000000160c8      0x4c8 .build/obj_karlk90_yaemk_moonlanderlike/serial_usart.a(serial_usart.o)
 .debug_ranges  0x0000000000016590       0xe8 /usr/lib/gcc/arm-none-eabi/10.3.1/thumb/v7e-m+fp/hard/libgcc.a(_udivmoddi4.o)
 .debug_ranges  0x0000000000016678       0x70 /usr/lib/gcc/arm-none-eabi/10.3.1/../../../arm-none-eabi/lib/thumb/v7e-m+fp/hard/libg_nano.a(lib_a-rand.o)
 .debug_ranges  0x00000000000166e8       0x20 /usr/lib/gcc/arm-none-eabi/10.3.1/../../../arm-none-eabi/lib/thumb/v7e-m+fp/hard/libg_nano.a(lib_a-nano-freer.o)
 .debug_ranges  0x0000000000016708       0x38 /usr/lib/gcc/arm-none-eabi/10.3.1/../../../arm-none-eabi/lib/thumb/v7e-m+fp/hard/libg_nano.a(lib_a-nano-mallocr.o)
 .debug_ranges  0x0000000000016740       0x40 /usr/lib/gcc/arm-none-eabi/10.3.1/../../../arm-none-eabi/lib/thumb/v7e-m+fp/hard/libg_nano.a(lib_a-nano-vfprintf.o)
 .debug_ranges  0x0000000000016780       0xa0 /usr/lib/gcc/arm-none-eabi/10.3.1/../../../arm-none-eabi/lib/thumb/v7e-m+fp/hard/libg_nano.a(lib_a-nano-vfprintf_i.o)
 .debug_ranges  0x0000000000016820       0x20 /usr/lib/gcc/arm-none-eabi/10.3.1/../../../arm-none-eabi/lib/thumb/v7e-m+fp/hard/libg_nano.a(lib_a-wbuf.o)
 .debug_ranges  0x0000000000016840       0x30 /usr/lib/gcc/arm-none-eabi/10.3.1/../../../arm-none-eabi/lib/thumb/v7e-m+fp/hard/libg_nano.a(lib_a-wsetup.o)
 .debug_ranges  0x0000000000016870       0xb8 /usr/lib/gcc/arm-none-eabi/10.3.1/../../../arm-none-eabi/lib/thumb/v7e-m+fp/hard/libg_nano.a(lib_a-fflush.o)
 .debug_ranges  0x0000000000016928       0xc8 /usr/lib/gcc/arm-none-eabi/10.3.1/../../../arm-none-eabi/lib/thumb/v7e-m+fp/hard/libg_nano.a(lib_a-findfp.o)
 .debug_ranges  0x00000000000169f0       0x28 /usr/lib/gcc/arm-none-eabi/10.3.1/../../../arm-none-eabi/lib/thumb/v7e-m+fp/hard/libg_nano.a(lib_a-fvwrite.o)
 .debug_ranges  0x0000000000016a18       0x78 /usr/lib/gcc/arm-none-eabi/10.3.1/../../../arm-none-eabi/lib/thumb/v7e-m+fp/hard/libg_nano.a(lib_a-makebuf.o)
 .debug_ranges  0x0000000000016a90       0xc8 /usr/lib/gcc/arm-none-eabi/10.3.1/../../../arm-none-eabi/lib/thumb/v7e-m+fp/hard/libg_nano.a(lib_a-signal.o)

.debug_line     0x0000000000000000    0x2be8a
 .debug_line    0x0000000000000000     0xfc5c /tmp/karlk90_yaemk_moonlanderlike.elf.XW0OFi.ltrans0.ltrans.o
 .debug_line    0x000000000000fc5c     0xef72 /tmp/karlk90_yaemk_moonlanderlike.elf.XW0OFi.ltrans1.ltrans.o
 .debug_line    0x000000000001ebce       0xd6 /tmp/ccfnEjuh.debug.temp.o
 .debug_line    0x000000000001eca4       0xc3 /tmp/cc0I4f7X.debug.temp.o
 .debug_line    0x000000000001ed67      0x2cd /tmp/cclModur.debug.temp.o
 .debug_line    0x000000000001f034      0x168 /tmp/cctRlNqi.debug.temp.o
 .debug_line    0x000000000001f19c       0xf9 /tmp/ccW91Jhp.debug.temp.o
 .debug_line    0x000000000001f295       0xf1 /tmp/cc1n2tj8.debug.temp.o
 .debug_line    0x000000000001f386       0x69 /tmp/ccQek5tM.debug.temp.o
 .debug_line    0x000000000001f3ef       0x6e /tmp/ccy2zO6v.debug.temp.o
 .debug_line    0x000000000001f45d      0x111 /tmp/ccOBaQrD.debug.temp.o
 .debug_line    0x000000000001f56e       0xab /tmp/ccByYric.debug.temp.o
 .debug_line    0x000000000001f619       0xa8 /tmp/cc90lmnB.debug.temp.o
 .debug_line    0x000000000001f6c1       0xfb /tmp/ccGI6wID.debug.temp.o
 .debug_line    0x000000000001f7bc       0x7c /tmp/ccncmTqY.debug.temp.o
 .debug_line    0x000000000001f838       0xf2 /tmp/cc14VErq.debug.temp.o
 .debug_line    0x000000000001f92a      0x118 /tmp/ccJHiYPW.debug.temp.o
 .debug_line    0x000000000001fa42       0xa2 /tmp/ccs3fqN1.debug.temp.o
 .debug_line    0x000000000001fae4       0x88 /tmp/ccQRN3Wo.debug.temp.o
 .debug_line    0x000000000001fb6c       0x7a /tmp/ccmAVrlH.debug.temp.o
 .debug_line    0x000000000001fbe6       0x7d /tmp/ccKbKh4E.debug.temp.o
 .debug_line    0x000000000001fc63       0xa0 /tmp/ccKwh0z5.debug.temp.o
 .debug_line    0x000000000001fd03       0xdb /tmp/cckzIpwo.debug.temp.o
 .debug_line    0x000000000001fdde       0xe5 /tmp/ccGzjP0w.debug.temp.o
 .debug_line    0x000000000001fec3      0x1eb /tmp/ccXB4Az0.debug.temp.o
 .debug_line    0x00000000000200ae       0xce /tmp/ccS614w6.debug.temp.o
 .debug_line    0x000000000002017c      0x16c /tmp/cc7Z7BLY.debug.temp.o
 .debug_line    0x00000000000202e8      0x1a8 /tmp/cc1oeOTg.debug.temp.o
 .debug_line    0x0000000000020490      0x28b /tmp/cclqFKnx.debug.temp.o
 .debug_line    0x000000000002071b       0x30 /tmp/ccV71jLk.debug.temp.o
 .debug_line    0x000000000002074b       0x91 /tmp/ccSb3YlV.debug.temp.o
 .debug_line    0x00000000000207dc       0xbc /tmp/ccLgSN5x.debug.temp.o
 .debug_line    0x0000000000020898       0x82 /tmp/ccYm6amU.debug.temp.o
 .debug_line    0x000000000002091a       0xa5 /tmp/ccV2JrjB.debug.temp.o
 .debug_line    0x00000000000209bf       0x82 /tmp/ccQzfpqF.debug.temp.o
 .debug_line    0x0000000000020a41      0x4b8 /tmp/ccvrKOHP.debug.temp.o
 .debug_line    0x0000000000020ef9       0xc3 /tmp/ccvsftI7.debug.temp.o
 .debug_line    0x0000000000020fbc       0xe5 /tmp/ccS4oibQ.debug.temp.o
 .debug_line    0x00000000000210a1      0x1de /tmp/cc9usVWf.debug.temp.o
 .debug_line    0x000000000002127f       0x7c /tmp/ccDQrsNj.debug.temp.o
 .debug_line    0x00000000000212fb      0x11c /tmp/cc4TrJZZ.debug.temp.o
 .debug_line    0x0000000000021417       0x94 /tmp/ccnqM8Lz.debug.temp.o
 .debug_line    0x00000000000214ab       0x97 /tmp/ccXHZlTu.debug.temp.o
 .debug_line    0x0000000000021542       0x9b /tmp/cc2w2gDW.debug.temp.o
 .debug_line    0x00000000000215dd       0x94 /tmp/ccf7tNaY.debug.temp.o
 .debug_line    0x0000000000021671       0xeb /tmp/ccEP9BKn.debug.temp.o
 .debug_line    0x000000000002175c       0xcb /tmp/ccm3qksS.debug.temp.o
 .debug_line    0x0000000000021827      0x116 /tmp/ccN3fR2P.debug.temp.o
 .debug_line    0x000000000002193d      0x105 /tmp/ccp41CVD.debug.temp.o
 .debug_line    0x0000000000021a42       0xca /tmp/ccam8VBf.debug.temp.o
 .debug_line    0x0000000000021b0c       0x74 /tmp/ccNdgF9w.debug.temp.o
 .debug_line    0x0000000000021b80       0x44 /tmp/ccu1coHQ.debug.temp.o
 .debug_line    0x0000000000021bc4       0xd4 /tmp/cczSDEhq.debug.temp.o
 .debug_line    0x0000000000021c98      0x137 /tmp/ccEcDonF.debug.temp.o
 .debug_line    0x0000000000021dcf       0xca /tmp/ccCQ8m0z.debug.temp.o
 .debug_line    0x0000000000021e99      0x320 /tmp/ccZjDjB6.debug.temp.o
 .debug_line    0x00000000000221b9      0x1ec /tmp/ccQxHeRz.debug.temp.o
 .debug_line    0x00000000000223a5      0x137 /tmp/ccJefRjC.debug.temp.o
 .debug_line    0x00000000000224dc      0x276 /tmp/ccfphpFF.debug.temp.o
 .debug_line    0x0000000000022752      0x14c /tmp/ccpJSHAY.debug.temp.o
 .debug_line    0x000000000002289e       0x91 /tmp/ccnMlElZ.debug.temp.o
 .debug_line    0x000000000002292f      0x1f3 /tmp/ccQytxMT.debug.temp.o
 .debug_line    0x0000000000022b22      0x1b1 /tmp/ccl8lVpT.debug.temp.o
 .debug_line    0x0000000000022cd3      0x1a1 /tmp/cczusIdJ.debug.temp.o
 .debug_line    0x0000000000022e74      0x1dd /tmp/ccQHHhYP.debug.temp.o
 .debug_line    0x0000000000023051      0x1a5 /tmp/ccFBVBaf.debug.temp.o
 .debug_line    0x00000000000231f6      0x1a7 /tmp/ccqpTBta.debug.temp.o
 .debug_line    0x000000000002339d      0x11d /tmp/ccC350TJ.debug.temp.o
 .debug_line    0x00000000000234ba       0x67 /tmp/ccTJ2Y4W.debug.temp.o
 .debug_line    0x0000000000023521       0xe5 /tmp/ccwq0AC1.debug.temp.o
 .debug_line    0x0000000000023606      0x1f7 /tmp/ccbaU3nc.debug.temp.o
 .debug_line    0x00000000000237fd      0x1f5 /tmp/cc5jXrRB.debug.temp.o
 .debug_line    0x00000000000239f2      0x2a0 /tmp/ccah7oE4.debug.temp.o
 .debug_line    0x0000000000023c92      0x1aa /tmp/ccX6H7ct.debug.temp.o
 .debug_line    0x0000000000023e3c      0x291 /tmp/ccz6s2Yh.debug.temp.o
 .debug_line    0x00000000000240cd      0x23f /tmp/ccPOKm0t.debug.temp.o
 .debug_line    0x000000000002430c       0xc4 /tmp/cc8lT2nY.debug.temp.o
 .debug_line    0x00000000000243d0      0x135 /tmp/ccLjXG4Y.debug.temp.o
 .debug_line    0x0000000000024505       0xd8 /tmp/cc5XnyZZ.debug.temp.o
 .debug_line    0x00000000000245dd      0x194 /tmp/ccVjpK5C.debug.temp.o
 .debug_line    0x0000000000024771       0xb0 /tmp/cck1LmA3.debug.temp.o
 .debug_line    0x0000000000024821      0x2a9 /tmp/cc1Cuw1k.debug.temp.o
 .debug_line    0x0000000000024aca      0x195 /tmp/ccW0mz4b.debug.temp.o
 .debug_line    0x0000000000024c5f      0x10e /tmp/ccc4Etus.debug.temp.o
 .debug_line    0x0000000000024d6d      0x27e /tmp/cckFgdT0.debug.temp.o
 .debug_line    0x0000000000024feb      0x258 /tmp/ccbZtz5z.debug.temp.o
 .debug_line    0x0000000000025243      0x100 /tmp/ccLirZFJ.debug.temp.o
 .debug_line    0x0000000000025343      0x114 /tmp/ccu3Li40.debug.temp.o
 .debug_line    0x0000000000025457      0x11e /tmp/cciJ5IA3.debug.temp.o
 .debug_line    0x0000000000025575      0x5b8 .build/obj_karlk90_yaemk_moonlanderlike/i2c_master.a(i2c_master.o)
 .debug_line    0x0000000000025b2d      0xb30 .build/obj_karlk90_yaemk_moonlanderlike/serial_usart.a(serial_usart.o)
 .debug_line    0x000000000002665d       0x60 /usr/lib/gcc/arm-none-eabi/10.3.1/thumb/v7e-m+fp/hard/libgcc.a(_aeabi_uldivmod.o)
 .debug_line    0x00000000000266bd      0x5ae /usr/lib/gcc/arm-none-eabi/10.3.1/thumb/v7e-m+fp/hard/libgcc.a(_udivmoddi4.o)
 .debug_line    0x0000000000026c6b       0x60 /usr/lib/gcc/arm-none-eabi/10.3.1/thumb/v7e-m+fp/hard/libgcc.a(_dvmd_tls.o)
 .debug_line    0x0000000000026ccb       0x5e /usr/lib/gcc/arm-none-eabi/10.3.1/../../../arm-none-eabi/lib/thumb/v7e-m+fp/hard/libg_nano.a(lib_a-ctype_.o)
 .debug_line    0x0000000000026d29       0xe4 /usr/lib/gcc/arm-none-eabi/10.3.1/../../../arm-none-eabi/lib/thumb/v7e-m+fp/hard/libg_nano.a(lib_a-impure.o)
 .debug_line    0x0000000000026e0d       0xbe /usr/lib/gcc/arm-none-eabi/10.3.1/../../../arm-none-eabi/lib/thumb/v7e-m+fp/hard/libg_nano.a(lib_a-memcpy.o)
 .debug_line    0x0000000000026ecb      0x293 /usr/lib/gcc/arm-none-eabi/10.3.1/../../../arm-none-eabi/lib/thumb/v7e-m+fp/hard/libg_nano.a(lib_a-rand.o)
 .debug_line    0x000000000002715e      0x194 /usr/lib/gcc/arm-none-eabi/10.3.1/../../../arm-none-eabi/lib/thumb/v7e-m+fp/hard/libg_nano.a(lib_a-assert.o)
 .debug_line    0x00000000000272f2      0x19e /usr/lib/gcc/arm-none-eabi/10.3.1/../../../arm-none-eabi/lib/thumb/v7e-m+fp/hard/libg_nano.a(lib_a-fprintf.o)
 .debug_line    0x0000000000027490      0x15f /usr/lib/gcc/arm-none-eabi/10.3.1/../../../arm-none-eabi/lib/thumb/v7e-m+fp/hard/libg_nano.a(lib_a-malloc.o)
 .debug_line    0x00000000000275ef      0x2ca /usr/lib/gcc/arm-none-eabi/10.3.1/../../../arm-none-eabi/lib/thumb/v7e-m+fp/hard/libg_nano.a(lib_a-nano-freer.o)
 .debug_line    0x00000000000278b9      0x2d0 /usr/lib/gcc/arm-none-eabi/10.3.1/../../../arm-none-eabi/lib/thumb/v7e-m+fp/hard/libg_nano.a(lib_a-nano-mallocr.o)
 .debug_line    0x0000000000027b89      0x700 /usr/lib/gcc/arm-none-eabi/10.3.1/../../../arm-none-eabi/lib/thumb/v7e-m+fp/hard/libg_nano.a(lib_a-nano-vfprintf.o)
 .debug_line    0x0000000000028289      0x746 /usr/lib/gcc/arm-none-eabi/10.3.1/../../../arm-none-eabi/lib/thumb/v7e-m+fp/hard/libg_nano.a(lib_a-nano-vfprintf_i.o)
 .debug_line    0x00000000000289cf      0x279 /usr/lib/gcc/arm-none-eabi/10.3.1/../../../arm-none-eabi/lib/thumb/v7e-m+fp/hard/libg_nano.a(lib_a-wbuf.o)
 .debug_line    0x0000000000028c48      0x33e /usr/lib/gcc/arm-none-eabi/10.3.1/../../../arm-none-eabi/lib/thumb/v7e-m+fp/hard/libg_nano.a(lib_a-wsetup.o)
 .debug_line    0x0000000000028f86      0x109 /usr/lib/gcc/arm-none-eabi/10.3.1/../../../arm-none-eabi/lib/thumb/v7e-m+fp/hard/libg_nano.a(lib_a-abort.o)
 .debug_line    0x000000000002908f      0x46d /usr/lib/gcc/arm-none-eabi/10.3.1/../../../arm-none-eabi/lib/thumb/v7e-m+fp/hard/libg_nano.a(lib_a-fflush.o)
 .debug_line    0x00000000000294fc      0x589 /usr/lib/gcc/arm-none-eabi/10.3.1/../../../arm-none-eabi/lib/thumb/v7e-m+fp/hard/libg_nano.a(lib_a-findfp.o)
 .debug_line    0x0000000000029a85      0x5e4 /usr/lib/gcc/arm-none-eabi/10.3.1/../../../arm-none-eabi/lib/thumb/v7e-m+fp/hard/libg_nano.a(lib_a-fvwrite.o)
 .debug_line    0x000000000002a069      0x29e /usr/lib/gcc/arm-none-eabi/10.3.1/../../../arm-none-eabi/lib/thumb/v7e-m+fp/hard/libg_nano.a(lib_a-fwalk.o)
 .debug_line    0x000000000002a307      0x3b2 /usr/lib/gcc/arm-none-eabi/10.3.1/../../../arm-none-eabi/lib/thumb/v7e-m+fp/hard/libg_nano.a(lib_a-makebuf.o)
 .debug_line    0x000000000002a6b9       0xa4 /usr/lib/gcc/arm-none-eabi/10.3.1/../../../arm-none-eabi/lib/thumb/v7e-m+fp/hard/libg_nano.a(lib_a-memchr.o)
 .debug_line    0x000000000002a75d      0x1ee /usr/lib/gcc/arm-none-eabi/10.3.1/../../../arm-none-eabi/lib/thumb/v7e-m+fp/hard/libg_nano.a(lib_a-memmove.o)
 .debug_line    0x000000000002a94b      0x1bf /usr/lib/gcc/arm-none-eabi/10.3.1/../../../arm-none-eabi/lib/thumb/v7e-m+fp/hard/libg_nano.a(lib_a-memset.o)
 .debug_line    0x000000000002ab0a      0x13e /usr/lib/gcc/arm-none-eabi/10.3.1/../../../arm-none-eabi/lib/thumb/v7e-m+fp/hard/libg_nano.a(lib_a-mlock.o)
 .debug_line    0x000000000002ac48      0x1c5 /usr/lib/gcc/arm-none-eabi/10.3.1/../../../arm-none-eabi/lib/thumb/v7e-m+fp/hard/libg_nano.a(lib_a-nano-reallocr.o)
 .debug_line    0x000000000002ae0d      0x652 /usr/lib/gcc/arm-none-eabi/10.3.1/../../../arm-none-eabi/lib/thumb/v7e-m+fp/hard/libg_nano.a(lib_a-signal.o)
 .debug_line    0x000000000002b45f      0x1aa /usr/lib/gcc/arm-none-eabi/10.3.1/../../../arm-none-eabi/lib/thumb/v7e-m+fp/hard/libg_nano.a(lib_a-signalr.o)
 .debug_line    0x000000000002b609      0x231 /usr/lib/gcc/arm-none-eabi/10.3.1/../../../arm-none-eabi/lib/thumb/v7e-m+fp/hard/libg_nano.a(lib_a-stdio.o)
 .debug_line    0x000000000002b83a      0x160 /usr/lib/gcc/arm-none-eabi/10.3.1/../../../arm-none-eabi/lib/thumb/v7e-m+fp/hard/libg_nano.a(lib_a-nano-msizer.o)
 .debug_line    0x000000000002b99a      0x2c7 /usr/lib/gcc/arm-none-eabi/10.3.1/../../../arm-none-eabi/lib/thumb/v7e-m+fp/hard/libg_nano.a(lib_a-reent.o)
 .debug_line    0x000000000002bc61      0x17a /usr/lib/gcc/arm-none-eabi/10.3.1/../../../arm-none-eabi/lib/thumb/v7e-m+fp/hard/libg_nano.a(lib_a-memcmp.o)
 .debug_line    0x000000000002bddb       0xaf /usr/lib/gcc/arm-none-eabi/10.3.1/../../../arm-none-eabi/lib/thumb/v7e-m+fp/hard/libg_nano.a(lib_a-strlen.o)

.debug_str      0x0000000000000000     0xdb8a
 .debug_str     0x0000000000000000      0x45f /tmp/karlk90_yaemk_moonlanderlike.elf.XW0OFi.ltrans0.ltrans.o
                                        0x552 (size before relaxing)
 .debug_str     0x000000000000045f       0x97 /tmp/karlk90_yaemk_moonlanderlike.elf.XW0OFi.ltrans1.ltrans.o
                                        0x4b3 (size before relaxing)
 .debug_str     0x00000000000004f6      0x17e /tmp/ccfnEjuh.debug.temp.o
                                        0x2bd (size before relaxing)
 .debug_str     0x0000000000000674       0xee /tmp/cc0I4f7X.debug.temp.o
                                        0x2ec (size before relaxing)
 .debug_str     0x0000000000000762     0x189c /tmp/cclModur.debug.temp.o
                                       0x1e33 (size before relaxing)
 .debug_str     0x0000000000001ffe      0xaf0 /tmp/cctRlNqi.debug.temp.o
                                       0x22a7 (size before relaxing)
 .debug_str     0x0000000000002aee      0x27b /tmp/ccW91Jhp.debug.temp.o
                                       0x1fe7 (size before relaxing)
 .debug_str     0x0000000000002d69      0x11d /tmp/cc1n2tj8.debug.temp.o
                                        0x98a (size before relaxing)
 .debug_str     0x0000000000002e86       0x5a /tmp/ccQek5tM.debug.temp.o
                                        0x254 (size before relaxing)
 .debug_str     0x0000000000002ee0       0x95 /tmp/ccy2zO6v.debug.temp.o
                                        0x296 (size before relaxing)
 .debug_str     0x0000000000002f75      0x7ff /tmp/ccOBaQrD.debug.temp.o
                                       0x15df (size before relaxing)
 .debug_str     0x0000000000003774      0x1cd /tmp/ccByYric.debug.temp.o
                                        0x587 (size before relaxing)
 .debug_str     0x0000000000003941      0x106 /tmp/cc90lmnB.debug.temp.o
                                        0xb2d (size before relaxing)
 .debug_str     0x0000000000003a47      0x4c8 /tmp/ccGI6wID.debug.temp.o
                                        0x880 (size before relaxing)
 .debug_str     0x0000000000003f0f      0x230 /tmp/ccncmTqY.debug.temp.o
                                        0x452 (size before relaxing)
 .debug_str     0x000000000000413f      0x360 /tmp/cc14VErq.debug.temp.o
                                        0x735 (size before relaxing)
 .debug_str     0x000000000000449f       0xb9 /tmp/ccJHiYPW.debug.temp.o
                                       0x26da (size before relaxing)
 .debug_str     0x0000000000004558       0x33 /tmp/ccs3fqN1.debug.temp.o
                                        0x902 (size before relaxing)
 .debug_str     0x000000000000458b      0x1a3 /tmp/ccQRN3Wo.debug.temp.o
                                        0x38c (size before relaxing)
 .debug_str     0x000000000000472e       0x18 /tmp/ccmAVrlH.debug.temp.o
                                        0x248 (size before relaxing)
 .debug_str     0x0000000000004746       0x61 /tmp/ccKbKh4E.debug.temp.o
                                        0x25a (size before relaxing)
 .debug_str     0x00000000000047a7       0x58 /tmp/ccKwh0z5.debug.temp.o
                                        0x272 (size before relaxing)
 .debug_str     0x00000000000047ff       0x1a /tmp/cckzIpwo.debug.temp.o
                                        0x3c1 (size before relaxing)
 .debug_str     0x0000000000004819      0x170 /tmp/ccGzjP0w.debug.temp.o
                                        0x446 (size before relaxing)
 .debug_str     0x0000000000004989      0x171 /tmp/ccXB4Az0.debug.temp.o
                                        0x617 (size before relaxing)
 .debug_str     0x0000000000004afa      0x153 /tmp/ccS614w6.debug.temp.o
                                        0x3f2 (size before relaxing)
 .debug_str     0x0000000000004c4d       0xcc /tmp/cc7Z7BLY.debug.temp.o
                                        0x471 (size before relaxing)
 .debug_str     0x0000000000004d19       0xf3 /tmp/cc1oeOTg.debug.temp.o
                                        0x766 (size before relaxing)
 .debug_str     0x0000000000004e0c      0x2ef /tmp/cclqFKnx.debug.temp.o
                                        0xa83 (size before relaxing)
 .debug_str     0x00000000000050fb        0xf /tmp/ccV71jLk.debug.temp.o
                                        0x1f5 (size before relaxing)
 .debug_str     0x000000000000510a      0x105 /tmp/ccSb3YlV.debug.temp.o
                                        0x372 (size before relaxing)
 .debug_str     0x000000000000520f      0x18a /tmp/ccLgSN5x.debug.temp.o
                                        0x4d7 (size before relaxing)
 .debug_str     0x0000000000005399       0xe6 /tmp/ccYm6amU.debug.temp.o
                                        0x2f2 (size before relaxing)
 .debug_str     0x000000000000547f       0xa1 /tmp/ccV2JrjB.debug.temp.o
                                        0x2f1 (size before relaxing)
 .debug_str     0x0000000000005520       0x58 /tmp/ccQzfpqF.debug.temp.o
                                        0x25f (size before relaxing)
 .debug_str     0x0000000000005578     0x106c /tmp/ccvrKOHP.debug.temp.o
                                       0x161e (size before relaxing)
 .debug_str     0x00000000000065e4       0x52 /tmp/ccvsftI7.debug.temp.o
                                        0x2fc (size before relaxing)
 .debug_str     0x0000000000006636       0x66 /tmp/ccS4oibQ.debug.temp.o
                                       0x200c (size before relaxing)
 .debug_str     0x000000000000669c      0x1a6 /tmp/cc9usVWf.debug.temp.o
                                        0x513 (size before relaxing)
 .debug_str     0x0000000000006842       0x15 /tmp/ccDQrsNj.debug.temp.o
                                        0x20b (size before relaxing)
 .debug_str     0x0000000000006857       0xfa /tmp/cc4TrJZZ.debug.temp.o
                                        0x431 (size before relaxing)
 .debug_str     0x0000000000006951      0x3ef /tmp/ccnqM8Lz.debug.temp.o
                                        0x6aa (size before relaxing)
 .debug_str     0x0000000000006d40       0x73 /tmp/ccXHZlTu.debug.temp.o
                                        0x9c6 (size before relaxing)
 .debug_str     0x0000000000006db3       0x4a /tmp/cc2w2gDW.debug.temp.o
                                        0x2b2 (size before relaxing)
 .debug_str     0x0000000000006dfd      0x536 /tmp/ccf7tNaY.debug.temp.o
                                        0x802 (size before relaxing)
 .debug_str     0x0000000000007333       0x81 /tmp/ccEP9BKn.debug.temp.o
                                       0x1d67 (size before relaxing)
 .debug_str     0x00000000000073b4       0x36 /tmp/ccm3qksS.debug.temp.o
                                       0x17ba (size before relaxing)
 .debug_str     0x00000000000073ea       0x54 /tmp/ccN3fR2P.debug.temp.o
                                       0x1da7 (size before relaxing)
 .debug_str     0x000000000000743e      0x27e /tmp/ccp41CVD.debug.temp.o
                                        0x73e (size before relaxing)
 .debug_str     0x00000000000076bc       0xb0 /tmp/ccam8VBf.debug.temp.o
                                        0x9d8 (size before relaxing)
 .debug_str     0x000000000000776c       0x97 /tmp/ccNdgF9w.debug.temp.o
                                        0x2a4 (size before relaxing)
 .debug_str     0x0000000000007803       0x32 /tmp/ccu1coHQ.debug.temp.o
                                        0x218 (size before relaxing)
 .debug_str     0x0000000000007835       0x91 /tmp/cczSDEhq.debug.temp.o
                                        0x340 (size before relaxing)
 .debug_str     0x00000000000078c6       0x9e /tmp/ccEcDonF.debug.temp.o
                                        0x346 (size before relaxing)
 .debug_str     0x0000000000007964      0x11b /tmp/ccCQ8m0z.debug.temp.o
                                        0x32a (size before relaxing)
 .debug_str     0x0000000000007a7f      0x6ea /tmp/ccZjDjB6.debug.temp.o
                                       0x1271 (size before relaxing)
 .debug_str     0x0000000000008169       0xcc /tmp/ccQxHeRz.debug.temp.o
                                        0x8fa (size before relaxing)
 .debug_str     0x0000000000008235      0x76c /tmp/ccJefRjC.debug.temp.o
                                        0xb39 (size before relaxing)
 .debug_str     0x00000000000089a1      0x1fb /tmp/ccfphpFF.debug.temp.o
                                        0xc01 (size before relaxing)
 .debug_str     0x0000000000008b9c       0xcb /tmp/ccpJSHAY.debug.temp.o
                                        0x32f (size before relaxing)
 .debug_str     0x0000000000008c67      0x2a9 /tmp/ccnMlElZ.debug.temp.o
                                        0x4ae (size before relaxing)
 .debug_str     0x0000000000008f10      0x32f /tmp/ccQytxMT.debug.temp.o
                                        0x7cb (size before relaxing)
 .debug_str     0x000000000000923f      0x107 /tmp/ccl8lVpT.debug.temp.o
                                        0x657 (size before relaxing)
 .debug_str     0x0000000000009346      0x18b /tmp/cczusIdJ.debug.temp.o
                                        0x6a7 (size before relaxing)
 .debug_str     0x00000000000094d1      0x20a /tmp/ccQHHhYP.debug.temp.o
                                        0x78a (size before relaxing)
 .debug_str     0x00000000000096db       0xd2 /tmp/ccFBVBaf.debug.temp.o
                                        0x5bb (size before relaxing)
 .debug_str     0x00000000000097ad      0x1a0 /tmp/ccqpTBta.debug.temp.o
                                        0x69d (size before relaxing)
 .debug_str     0x000000000000994d      0x5f9 /tmp/ccC350TJ.debug.temp.o
                                        0x972 (size before relaxing)
 .debug_str     0x0000000000009f46       0x2e /tmp/ccTJ2Y4W.debug.temp.o
                                        0x214 (size before relaxing)
 .debug_str     0x0000000000009f74       0xec /tmp/ccwq0AC1.debug.temp.o
                                        0x333 (size before relaxing)
 .debug_str     0x000000000000a060      0x225 /tmp/ccbaU3nc.debug.temp.o
                                        0x5be (size before relaxing)
 .debug_str     0x000000000000a285       0x92 /tmp/cc5jXrRB.debug.temp.o
                                        0x4ac (size before relaxing)
 .debug_str     0x000000000000a317       0xb1 /tmp/ccah7oE4.debug.temp.o
                                        0x642 (size before relaxing)
 .debug_str     0x000000000000a3c8       0xf8 /tmp/ccX6H7ct.debug.temp.o
                                        0x46e (size before relaxing)
 .debug_str     0x000000000000a4c0       0x8d /tmp/ccz6s2Yh.debug.temp.o
                                        0x6e3 (size before relaxing)
 .debug_str     0x000000000000a54d      0x1bf /tmp/ccPOKm0t.debug.temp.o
                                        0xa16 (size before relaxing)
 .debug_str     0x000000000000a70c       0x7f /tmp/cc8lT2nY.debug.temp.o
                                        0x343 (size before relaxing)
 .debug_str     0x000000000000a78b       0x6b /tmp/ccLjXG4Y.debug.temp.o
                                        0x7a6 (size before relaxing)
 .debug_str     0x000000000000a7f6      0x11b /tmp/cc5XnyZZ.debug.temp.o
                                        0x30f (size before relaxing)
 .debug_str     0x000000000000a911      0x138 /tmp/ccVjpK5C.debug.temp.o
                                        0x494 (size before relaxing)
 .debug_str     0x000000000000aa49       0x83 /tmp/cck1LmA3.debug.temp.o
                                        0x2f0 (size before relaxing)
 .debug_str     0x000000000000aacc      0x182 /tmp/cc1Cuw1k.debug.temp.o
                                        0x867 (size before relaxing)
 .debug_str     0x000000000000ac4e       0x9f /tmp/ccW0mz4b.debug.temp.o
                                        0x3bd (size before relaxing)
 .debug_str     0x000000000000aced      0x13f /tmp/ccc4Etus.debug.temp.o
                                        0x4b7 (size before relaxing)
 .debug_str     0x000000000000ae2c       0xb7 /tmp/cckFgdT0.debug.temp.o
                                        0x73c (size before relaxing)
 .debug_str     0x000000000000aee3      0x25b /tmp/ccbZtz5z.debug.temp.o
                                        0xad1 (size before relaxing)
 .debug_str     0x000000000000b13e       0xb0 /tmp/ccLirZFJ.debug.temp.o
                                        0x3a7 (size before relaxing)
 .debug_str     0x000000000000b1ee       0x9c /tmp/ccu3Li40.debug.temp.o
                                        0x782 (size before relaxing)
 .debug_str     0x000000000000b28a       0xc8 /tmp/cciJ5IA3.debug.temp.o
                                        0x828 (size before relaxing)
 .debug_str     0x000000000000b352      0x698 .build/obj_karlk90_yaemk_moonlanderlike/i2c_master.a(i2c_master.o)
                                        0x769 (size before relaxing)
 .debug_str     0x000000000000b9ea      0x667 .build/obj_karlk90_yaemk_moonlanderlike/serial_usart.a(serial_usart.o)
                                        0xc48 (size before relaxing)
 .debug_str     0x000000000000c051       0xa6 /usr/lib/gcc/arm-none-eabi/10.3.1/thumb/v7e-m+fp/hard/libgcc.a(_aeabi_uldivmod.o)
 .debug_str     0x000000000000c0f7      0x550 /usr/lib/gcc/arm-none-eabi/10.3.1/thumb/v7e-m+fp/hard/libgcc.a(_udivmoddi4.o)
                                        0x647 (size before relaxing)
 .debug_str     0x000000000000c647       0x30 /usr/lib/gcc/arm-none-eabi/10.3.1/thumb/v7e-m+fp/hard/libgcc.a(_dvmd_tls.o)
                                         0xaa (size before relaxing)
 .debug_str     0x000000000000c677      0x10f /usr/lib/gcc/arm-none-eabi/10.3.1/../../../arm-none-eabi/lib/thumb/v7e-m+fp/hard/libg_nano.a(lib_a-ctype_.o)
                                        0x1a4 (size before relaxing)
 .debug_str     0x000000000000c786      0x3c9 /usr/lib/gcc/arm-none-eabi/10.3.1/../../../arm-none-eabi/lib/thumb/v7e-m+fp/hard/libg_nano.a(lib_a-impure.o)
                                        0x55e (size before relaxing)
 .debug_str     0x000000000000cb4f       0xaa /usr/lib/gcc/arm-none-eabi/10.3.1/../../../arm-none-eabi/lib/thumb/v7e-m+fp/hard/libg_nano.a(lib_a-memcpy.o)
                                         0xb6 (size before relaxing)
 .debug_str     0x000000000000cbf9       0xa8 /usr/lib/gcc/arm-none-eabi/10.3.1/../../../arm-none-eabi/lib/thumb/v7e-m+fp/hard/libg_nano.a(lib_a-rand.o)
                                        0x52b (size before relaxing)
 .debug_str     0x000000000000cca1       0x57 /usr/lib/gcc/arm-none-eabi/10.3.1/../../../arm-none-eabi/lib/thumb/v7e-m+fp/hard/libg_nano.a(lib_a-assert.o)
                                        0x542 (size before relaxing)
 .debug_str     0x000000000000ccf8       0xca /usr/lib/gcc/arm-none-eabi/10.3.1/../../../arm-none-eabi/lib/thumb/v7e-m+fp/hard/libg_nano.a(lib_a-fprintf.o)
                                        0x54b (size before relaxing)
 .debug_str     0x000000000000cdc2       0x52 /usr/lib/gcc/arm-none-eabi/10.3.1/../../../arm-none-eabi/lib/thumb/v7e-m+fp/hard/libg_nano.a(lib_a-malloc.o)
                                        0x533 (size before relaxing)
 .debug_str     0x000000000000ce14       0xb4 /usr/lib/gcc/arm-none-eabi/10.3.1/../../../arm-none-eabi/lib/thumb/v7e-m+fp/hard/libg_nano.a(lib_a-nano-freer.o)
                                        0x595 (size before relaxing)
 .debug_str     0x000000000000cec8       0x46 /usr/lib/gcc/arm-none-eabi/10.3.1/../../../arm-none-eabi/lib/thumb/v7e-m+fp/hard/libg_nano.a(lib_a-nano-mallocr.o)
                                        0x5c0 (size before relaxing)
 .debug_str     0x000000000000cf0e      0x29c /usr/lib/gcc/arm-none-eabi/10.3.1/../../../arm-none-eabi/lib/thumb/v7e-m+fp/hard/libg_nano.a(lib_a-nano-vfprintf.o)
                                        0x8b9 (size before relaxing)
 .debug_str     0x000000000000d1aa       0x8d /usr/lib/gcc/arm-none-eabi/10.3.1/../../../arm-none-eabi/lib/thumb/v7e-m+fp/hard/libg_nano.a(lib_a-nano-vfprintf_i.o)
                                        0x7ec (size before relaxing)
 .debug_str     0x000000000000d237       0x43 /usr/lib/gcc/arm-none-eabi/10.3.1/../../../arm-none-eabi/lib/thumb/v7e-m+fp/hard/libg_nano.a(lib_a-wbuf.o)
                                        0x582 (size before relaxing)
 .debug_str     0x000000000000d27a       0x40 /usr/lib/gcc/arm-none-eabi/10.3.1/../../../arm-none-eabi/lib/thumb/v7e-m+fp/hard/libg_nano.a(lib_a-wsetup.o)
                                        0x57d (size before relaxing)
 .debug_str     0x000000000000d2ba       0x39 /usr/lib/gcc/arm-none-eabi/10.3.1/../../../arm-none-eabi/lib/thumb/v7e-m+fp/hard/libg_nano.a(lib_a-abort.o)
                                        0x1af (size before relaxing)
 .debug_str     0x000000000000d2f3       0x63 /usr/lib/gcc/arm-none-eabi/10.3.1/../../../arm-none-eabi/lib/thumb/v7e-m+fp/hard/libg_nano.a(lib_a-fflush.o)
                                        0x5be (size before relaxing)
 .debug_str     0x000000000000d356      0x1c4 /usr/lib/gcc/arm-none-eabi/10.3.1/../../../arm-none-eabi/lib/thumb/v7e-m+fp/hard/libg_nano.a(lib_a-findfp.o)
                                        0x737 (size before relaxing)
 .debug_str     0x000000000000d51a       0x65 /usr/lib/gcc/arm-none-eabi/10.3.1/../../../arm-none-eabi/lib/thumb/v7e-m+fp/hard/libg_nano.a(lib_a-fvwrite.o)
                                        0x5b1 (size before relaxing)
 .debug_str     0x000000000000d57f       0x41 /usr/lib/gcc/arm-none-eabi/10.3.1/../../../arm-none-eabi/lib/thumb/v7e-m+fp/hard/libg_nano.a(lib_a-fwalk.o)
                                        0x524 (size before relaxing)
 .debug_str     0x000000000000d5c0      0x16a /usr/lib/gcc/arm-none-eabi/10.3.1/../../../arm-none-eabi/lib/thumb/v7e-m+fp/hard/libg_nano.a(lib_a-makebuf.o)
                                        0x6a0 (size before relaxing)
 .debug_str     0x000000000000d72a       0x3c /usr/lib/gcc/arm-none-eabi/10.3.1/../../../arm-none-eabi/lib/thumb/v7e-m+fp/hard/libg_nano.a(lib_a-memchr.o)
                                         0xaf (size before relaxing)
 .debug_str     0x000000000000d766       0xc1 /usr/lib/gcc/arm-none-eabi/10.3.1/../../../arm-none-eabi/lib/thumb/v7e-m+fp/hard/libg_nano.a(lib_a-memmove.o)
                                        0x1df (size before relaxing)
 .debug_str     0x000000000000d827       0x41 /usr/lib/gcc/arm-none-eabi/10.3.1/../../../arm-none-eabi/lib/thumb/v7e-m+fp/hard/libg_nano.a(lib_a-memset.o)
                                        0x1c0 (size before relaxing)
 .debug_str     0x000000000000d868       0x4c /usr/lib/gcc/arm-none-eabi/10.3.1/../../../arm-none-eabi/lib/thumb/v7e-m+fp/hard/libg_nano.a(lib_a-mlock.o)
                                        0x52c (size before relaxing)
 .debug_str     0x000000000000d8b4       0x23 /usr/lib/gcc/arm-none-eabi/10.3.1/../../../arm-none-eabi/lib/thumb/v7e-m+fp/hard/libg_nano.a(lib_a-nano-reallocr.o)
                                        0x57f (size before relaxing)
 .debug_str     0x000000000000d8d7       0xfc /usr/lib/gcc/arm-none-eabi/10.3.1/../../../arm-none-eabi/lib/thumb/v7e-m+fp/hard/libg_nano.a(lib_a-signal.o)
                                        0x58e (size before relaxing)
 .debug_str     0x000000000000d9d3       0x42 /usr/lib/gcc/arm-none-eabi/10.3.1/../../../arm-none-eabi/lib/thumb/v7e-m+fp/hard/libg_nano.a(lib_a-signalr.o)
                                        0x51b (size before relaxing)
 .debug_str     0x000000000000da15       0x92 /usr/lib/gcc/arm-none-eabi/10.3.1/../../../arm-none-eabi/lib/thumb/v7e-m+fp/hard/libg_nano.a(lib_a-stdio.o)
                                        0x573 (size before relaxing)
 .debug_str     0x000000000000daa7        0xf /usr/lib/gcc/arm-none-eabi/10.3.1/../../../arm-none-eabi/lib/thumb/v7e-m+fp/hard/libg_nano.a(lib_a-nano-msizer.o)
                                        0x55d (size before relaxing)
 .debug_str     0x000000000000dab6       0x5e /usr/lib/gcc/arm-none-eabi/10.3.1/../../../arm-none-eabi/lib/thumb/v7e-m+fp/hard/libg_nano.a(lib_a-reent.o)
                                        0x53e (size before relaxing)
 .debug_str     0x000000000000db14       0x34 /usr/lib/gcc/arm-none-eabi/10.3.1/../../../arm-none-eabi/lib/thumb/v7e-m+fp/hard/libg_nano.a(lib_a-memcmp.o)
                                        0x1ac (size before relaxing)
 .debug_str     0x000000000000db48       0x42 /usr/lib/gcc/arm-none-eabi/10.3.1/../../../arm-none-eabi/lib/thumb/v7e-m+fp/hard/libg_nano.a(lib_a-strlen.o)
                                         0xb5 (size before relaxing)

.comment        0x0000000000000000       0x33
 .comment       0x0000000000000000       0x34 /tmp/karlk90_yaemk_moonlanderlike.elf.XW0OFi.ltrans0.ltrans.o
 .comment       0x0000000000000000       0x34 /tmp/karlk90_yaemk_moonlanderlike.elf.XW0OFi.ltrans1.ltrans.o
 .comment       0x0000000000000000       0x33 .build/obj_karlk90_yaemk_moonlanderlike/i2c_master.a(i2c_master.o)
                                         0x34 (size before relaxing)
 .comment       0x0000000000000033       0x34 .build/obj_karlk90_yaemk_moonlanderlike/serial_usart.a(serial_usart.o)
 .comment       0x0000000000000033       0x34 /usr/lib/gcc/arm-none-eabi/10.3.1/thumb/v7e-m+fp/hard/libgcc.a(_udivmoddi4.o)
 .comment       0x0000000000000033       0x34 /usr/lib/gcc/arm-none-eabi/10.3.1/../../../arm-none-eabi/lib/thumb/v7e-m+fp/hard/libg_nano.a(lib_a-ctype_.o)
 .comment       0x0000000000000033       0x34 /usr/lib/gcc/arm-none-eabi/10.3.1/../../../arm-none-eabi/lib/thumb/v7e-m+fp/hard/libg_nano.a(lib_a-impure.o)
 .comment       0x0000000000000033       0x34 /usr/lib/gcc/arm-none-eabi/10.3.1/../../../arm-none-eabi/lib/thumb/v7e-m+fp/hard/libg_nano.a(lib_a-rand.o)
 .comment       0x0000000000000033       0x34 /usr/lib/gcc/arm-none-eabi/10.3.1/../../../arm-none-eabi/lib/thumb/v7e-m+fp/hard/libg_nano.a(lib_a-assert.o)
 .comment       0x0000000000000033       0x34 /usr/lib/gcc/arm-none-eabi/10.3.1/../../../arm-none-eabi/lib/thumb/v7e-m+fp/hard/libg_nano.a(lib_a-fprintf.o)
 .comment       0x0000000000000033       0x34 /usr/lib/gcc/arm-none-eabi/10.3.1/../../../arm-none-eabi/lib/thumb/v7e-m+fp/hard/libg_nano.a(lib_a-malloc.o)
 .comment       0x0000000000000033       0x34 /usr/lib/gcc/arm-none-eabi/10.3.1/../../../arm-none-eabi/lib/thumb/v7e-m+fp/hard/libg_nano.a(lib_a-nano-freer.o)
 .comment       0x0000000000000033       0x34 /usr/lib/gcc/arm-none-eabi/10.3.1/../../../arm-none-eabi/lib/thumb/v7e-m+fp/hard/libg_nano.a(lib_a-nano-mallocr.o)
 .comment       0x0000000000000033       0x34 /usr/lib/gcc/arm-none-eabi/10.3.1/../../../arm-none-eabi/lib/thumb/v7e-m+fp/hard/libg_nano.a(lib_a-nano-vfprintf.o)
 .comment       0x0000000000000033       0x34 /usr/lib/gcc/arm-none-eabi/10.3.1/../../../arm-none-eabi/lib/thumb/v7e-m+fp/hard/libg_nano.a(lib_a-nano-vfprintf_i.o)
 .comment       0x0000000000000033       0x34 /usr/lib/gcc/arm-none-eabi/10.3.1/../../../arm-none-eabi/lib/thumb/v7e-m+fp/hard/libg_nano.a(lib_a-wbuf.o)
 .comment       0x0000000000000033       0x34 /usr/lib/gcc/arm-none-eabi/10.3.1/../../../arm-none-eabi/lib/thumb/v7e-m+fp/hard/libg_nano.a(lib_a-wsetup.o)
 .comment       0x0000000000000033       0x34 /usr/lib/gcc/arm-none-eabi/10.3.1/../../../arm-none-eabi/lib/thumb/v7e-m+fp/hard/libg_nano.a(lib_a-abort.o)
 .comment       0x0000000000000033       0x34 /usr/lib/gcc/arm-none-eabi/10.3.1/../../../arm-none-eabi/lib/thumb/v7e-m+fp/hard/libg_nano.a(lib_a-fflush.o)
 .comment       0x0000000000000033       0x34 /usr/lib/gcc/arm-none-eabi/10.3.1/../../../arm-none-eabi/lib/thumb/v7e-m+fp/hard/libg_nano.a(lib_a-findfp.o)
 .comment       0x0000000000000033       0x34 /usr/lib/gcc/arm-none-eabi/10.3.1/../../../arm-none-eabi/lib/thumb/v7e-m+fp/hard/libg_nano.a(lib_a-fvwrite.o)
 .comment       0x0000000000000033       0x34 /usr/lib/gcc/arm-none-eabi/10.3.1/../../../arm-none-eabi/lib/thumb/v7e-m+fp/hard/libg_nano.a(lib_a-fwalk.o)
 .comment       0x0000000000000033       0x34 /usr/lib/gcc/arm-none-eabi/10.3.1/../../../arm-none-eabi/lib/thumb/v7e-m+fp/hard/libg_nano.a(lib_a-makebuf.o)
 .comment       0x0000000000000033       0x34 /usr/lib/gcc/arm-none-eabi/10.3.1/../../../arm-none-eabi/lib/thumb/v7e-m+fp/hard/libg_nano.a(lib_a-memmove.o)
 .comment       0x0000000000000033       0x34 /usr/lib/gcc/arm-none-eabi/10.3.1/../../../arm-none-eabi/lib/thumb/v7e-m+fp/hard/libg_nano.a(lib_a-memset.o)
 .comment       0x0000000000000033       0x34 /usr/lib/gcc/arm-none-eabi/10.3.1/../../../arm-none-eabi/lib/thumb/v7e-m+fp/hard/libg_nano.a(lib_a-mlock.o)
 .comment       0x0000000000000033       0x34 /usr/lib/gcc/arm-none-eabi/10.3.1/../../../arm-none-eabi/lib/thumb/v7e-m+fp/hard/libg_nano.a(lib_a-nano-reallocr.o)
 .comment       0x0000000000000033       0x34 /usr/lib/gcc/arm-none-eabi/10.3.1/../../../arm-none-eabi/lib/thumb/v7e-m+fp/hard/libg_nano.a(lib_a-signal.o)
 .comment       0x0000000000000033       0x34 /usr/lib/gcc/arm-none-eabi/10.3.1/../../../arm-none-eabi/lib/thumb/v7e-m+fp/hard/libg_nano.a(lib_a-signalr.o)
 .comment       0x0000000000000033       0x34 /usr/lib/gcc/arm-none-eabi/10.3.1/../../../arm-none-eabi/lib/thumb/v7e-m+fp/hard/libg_nano.a(lib_a-stdio.o)
 .comment       0x0000000000000033       0x34 /usr/lib/gcc/arm-none-eabi/10.3.1/../../../arm-none-eabi/lib/thumb/v7e-m+fp/hard/libg_nano.a(lib_a-nano-msizer.o)
 .comment       0x0000000000000033       0x34 /usr/lib/gcc/arm-none-eabi/10.3.1/../../../arm-none-eabi/lib/thumb/v7e-m+fp/hard/libg_nano.a(lib_a-reent.o)
 .comment       0x0000000000000033       0x34 /usr/lib/gcc/arm-none-eabi/10.3.1/../../../arm-none-eabi/lib/thumb/v7e-m+fp/hard/libg_nano.a(lib_a-memcmp.o)

.ARM.attributes
                0x0000000000000000       0x32
 .ARM.attributes
                0x0000000000000000       0x2c /tmp/karlk90_yaemk_moonlanderlike.elf.XW0OFi.ltrans0.ltrans.o
 .ARM.attributes
                0x000000000000002c       0x2c /tmp/karlk90_yaemk_moonlanderlike.elf.XW0OFi.ltrans1.ltrans.o
 .ARM.attributes
                0x0000000000000058       0x2e .build/obj_karlk90_yaemk_moonlanderlike/i2c_master.a(i2c_master.o)
 .ARM.attributes
                0x0000000000000086       0x2e .build/obj_karlk90_yaemk_moonlanderlike/serial_usart.a(serial_usart.o)
 .ARM.attributes
                0x00000000000000b4       0x25 .build/obj_karlk90_yaemk_moonlanderlike/./lib/chibios/os/common/startup/ARMCMx/compilers/GCC/crt0_v7m.o
 .ARM.attributes
                0x00000000000000d9       0x25 .build/obj_karlk90_yaemk_moonlanderlike/./lib/chibios/os/common/startup/ARMCMx/compilers/GCC/vectors.o
 .ARM.attributes
                0x00000000000000fe       0x25 .build/obj_karlk90_yaemk_moonlanderlike/./lib/chibios/os/common/ports/ARMCMx/compilers/GCC/chcoreasm_v7m.o
 .ARM.attributes
                0x0000000000000123       0x1e /usr/lib/gcc/arm-none-eabi/10.3.1/thumb/v7e-m+fp/hard/libgcc.a(_aeabi_uldivmod.o)
 .ARM.attributes
                0x0000000000000141       0x34 /usr/lib/gcc/arm-none-eabi/10.3.1/thumb/v7e-m+fp/hard/libgcc.a(_udivmoddi4.o)
 .ARM.attributes
                0x0000000000000175       0x1e /usr/lib/gcc/arm-none-eabi/10.3.1/thumb/v7e-m+fp/hard/libgcc.a(_dvmd_tls.o)
 .ARM.attributes
                0x0000000000000193       0x32 /usr/lib/gcc/arm-none-eabi/10.3.1/../../../arm-none-eabi/lib/thumb/v7e-m+fp/hard/libg_nano.a(lib_a-ctype_.o)
 .ARM.attributes
                0x00000000000001c5       0x32 /usr/lib/gcc/arm-none-eabi/10.3.1/../../../arm-none-eabi/lib/thumb/v7e-m+fp/hard/libg_nano.a(lib_a-impure.o)
 .ARM.attributes
                0x00000000000001f7       0x1c /usr/lib/gcc/arm-none-eabi/10.3.1/../../../arm-none-eabi/lib/thumb/v7e-m+fp/hard/libg_nano.a(lib_a-memcpy.o)
 .ARM.attributes
                0x0000000000000213       0x34 /usr/lib/gcc/arm-none-eabi/10.3.1/../../../arm-none-eabi/lib/thumb/v7e-m+fp/hard/libg_nano.a(lib_a-rand.o)
 .ARM.attributes
                0x0000000000000247       0x34 /usr/lib/gcc/arm-none-eabi/10.3.1/../../../arm-none-eabi/lib/thumb/v7e-m+fp/hard/libg_nano.a(lib_a-assert.o)
 .ARM.attributes
                0x000000000000027b       0x34 /usr/lib/gcc/arm-none-eabi/10.3.1/../../../arm-none-eabi/lib/thumb/v7e-m+fp/hard/libg_nano.a(lib_a-fprintf.o)
 .ARM.attributes
                0x00000000000002af       0x34 /usr/lib/gcc/arm-none-eabi/10.3.1/../../../arm-none-eabi/lib/thumb/v7e-m+fp/hard/libg_nano.a(lib_a-malloc.o)
 .ARM.attributes
                0x00000000000002e3       0x34 /usr/lib/gcc/arm-none-eabi/10.3.1/../../../arm-none-eabi/lib/thumb/v7e-m+fp/hard/libg_nano.a(lib_a-nano-freer.o)
 .ARM.attributes
                0x0000000000000317       0x34 /usr/lib/gcc/arm-none-eabi/10.3.1/../../../arm-none-eabi/lib/thumb/v7e-m+fp/hard/libg_nano.a(lib_a-nano-mallocr.o)
 .ARM.attributes
                0x000000000000034b       0x34 /usr/lib/gcc/arm-none-eabi/10.3.1/../../../arm-none-eabi/lib/thumb/v7e-m+fp/hard/libg_nano.a(lib_a-nano-vfprintf.o)
 .ARM.attributes
                0x000000000000037f       0x34 /usr/lib/gcc/arm-none-eabi/10.3.1/../../../arm-none-eabi/lib/thumb/v7e-m+fp/hard/libg_nano.a(lib_a-nano-vfprintf_i.o)
 .ARM.attributes
                0x00000000000003b3       0x34 /usr/lib/gcc/arm-none-eabi/10.3.1/../../../arm-none-eabi/lib/thumb/v7e-m+fp/hard/libg_nano.a(lib_a-wbuf.o)
 .ARM.attributes
                0x00000000000003e7       0x34 /usr/lib/gcc/arm-none-eabi/10.3.1/../../../arm-none-eabi/lib/thumb/v7e-m+fp/hard/libg_nano.a(lib_a-wsetup.o)
 .ARM.attributes
                0x000000000000041b       0x34 /usr/lib/gcc/arm-none-eabi/10.3.1/../../../arm-none-eabi/lib/thumb/v7e-m+fp/hard/libg_nano.a(lib_a-abort.o)
 .ARM.attributes
                0x000000000000044f       0x34 /usr/lib/gcc/arm-none-eabi/10.3.1/../../../arm-none-eabi/lib/thumb/v7e-m+fp/hard/libg_nano.a(lib_a-fflush.o)
 .ARM.attributes
                0x0000000000000483       0x34 /usr/lib/gcc/arm-none-eabi/10.3.1/../../../arm-none-eabi/lib/thumb/v7e-m+fp/hard/libg_nano.a(lib_a-findfp.o)
 .ARM.attributes
                0x00000000000004b7       0x34 /usr/lib/gcc/arm-none-eabi/10.3.1/../../../arm-none-eabi/lib/thumb/v7e-m+fp/hard/libg_nano.a(lib_a-fvwrite.o)
 .ARM.attributes
                0x00000000000004eb       0x34 /usr/lib/gcc/arm-none-eabi/10.3.1/../../../arm-none-eabi/lib/thumb/v7e-m+fp/hard/libg_nano.a(lib_a-fwalk.o)
 .ARM.attributes
                0x000000000000051f       0x34 /usr/lib/gcc/arm-none-eabi/10.3.1/../../../arm-none-eabi/lib/thumb/v7e-m+fp/hard/libg_nano.a(lib_a-makebuf.o)
 .ARM.attributes
                0x0000000000000553       0x1c /usr/lib/gcc/arm-none-eabi/10.3.1/../../../arm-none-eabi/lib/thumb/v7e-m+fp/hard/libg_nano.a(lib_a-memchr.o)
 .ARM.attributes
                0x000000000000056f       0x34 /usr/lib/gcc/arm-none-eabi/10.3.1/../../../arm-none-eabi/lib/thumb/v7e-m+fp/hard/libg_nano.a(lib_a-memmove.o)
 .ARM.attributes
                0x00000000000005a3       0x34 /usr/lib/gcc/arm-none-eabi/10.3.1/../../../arm-none-eabi/lib/thumb/v7e-m+fp/hard/libg_nano.a(lib_a-memset.o)
 .ARM.attributes
                0x00000000000005d7       0x34 /usr/lib/gcc/arm-none-eabi/10.3.1/../../../arm-none-eabi/lib/thumb/v7e-m+fp/hard/libg_nano.a(lib_a-mlock.o)
 .ARM.attributes
                0x000000000000060b       0x34 /usr/lib/gcc/arm-none-eabi/10.3.1/../../../arm-none-eabi/lib/thumb/v7e-m+fp/hard/libg_nano.a(lib_a-nano-reallocr.o)
 .ARM.attributes
                0x000000000000063f       0x34 /usr/lib/gcc/arm-none-eabi/10.3.1/../../../arm-none-eabi/lib/thumb/v7e-m+fp/hard/libg_nano.a(lib_a-signal.o)
 .ARM.attributes
                0x0000000000000673       0x34 /usr/lib/gcc/arm-none-eabi/10.3.1/../../../arm-none-eabi/lib/thumb/v7e-m+fp/hard/libg_nano.a(lib_a-signalr.o)
 .ARM.attributes
                0x00000000000006a7       0x34 /usr/lib/gcc/arm-none-eabi/10.3.1/../../../arm-none-eabi/lib/thumb/v7e-m+fp/hard/libg_nano.a(lib_a-stdio.o)
 .ARM.attributes
                0x00000000000006db       0x34 /usr/lib/gcc/arm-none-eabi/10.3.1/../../../arm-none-eabi/lib/thumb/v7e-m+fp/hard/libg_nano.a(lib_a-nano-msizer.o)
 .ARM.attributes
                0x000000000000070f       0x34 /usr/lib/gcc/arm-none-eabi/10.3.1/../../../arm-none-eabi/lib/thumb/v7e-m+fp/hard/libg_nano.a(lib_a-reent.o)
 .ARM.attributes
                0x0000000000000743       0x34 /usr/lib/gcc/arm-none-eabi/10.3.1/../../../arm-none-eabi/lib/thumb/v7e-m+fp/hard/libg_nano.a(lib_a-memcmp.o)
 .ARM.attributes
                0x0000000000000777       0x1c /usr/lib/gcc/arm-none-eabi/10.3.1/../../../arm-none-eabi/lib/thumb/v7e-m+fp/hard/libg_nano.a(lib_a-strlen.o)

.debug_frame    0x0000000000000000     0x2948
 .debug_frame   0x0000000000000000      0xa88 /tmp/karlk90_yaemk_moonlanderlike.elf.XW0OFi.ltrans0.ltrans.o
 .debug_frame   0x0000000000000a88     0x1278 /tmp/karlk90_yaemk_moonlanderlike.elf.XW0OFi.ltrans1.ltrans.o
 .debug_frame   0x0000000000001d00      0x154 .build/obj_karlk90_yaemk_moonlanderlike/i2c_master.a(i2c_master.o)
 .debug_frame   0x0000000000001e54       0xec .build/obj_karlk90_yaemk_moonlanderlike/serial_usart.a(serial_usart.o)
 .debug_frame   0x0000000000001f40       0x2c /usr/lib/gcc/arm-none-eabi/10.3.1/thumb/v7e-m+fp/hard/libgcc.a(_aeabi_uldivmod.o)
 .debug_frame   0x0000000000001f6c       0x34 /usr/lib/gcc/arm-none-eabi/10.3.1/thumb/v7e-m+fp/hard/libgcc.a(_udivmoddi4.o)
 .debug_frame   0x0000000000001fa0       0x44 /usr/lib/gcc/arm-none-eabi/10.3.1/../../../arm-none-eabi/lib/thumb/v7e-m+fp/hard/libg_nano.a(lib_a-rand.o)
 .debug_frame   0x0000000000001fe4       0x40 /usr/lib/gcc/arm-none-eabi/10.3.1/../../../arm-none-eabi/lib/thumb/v7e-m+fp/hard/libg_nano.a(lib_a-assert.o)
 .debug_frame   0x0000000000002024       0x70 /usr/lib/gcc/arm-none-eabi/10.3.1/../../../arm-none-eabi/lib/thumb/v7e-m+fp/hard/libg_nano.a(lib_a-fprintf.o)
 .debug_frame   0x0000000000002094       0x30 /usr/lib/gcc/arm-none-eabi/10.3.1/../../../arm-none-eabi/lib/thumb/v7e-m+fp/hard/libg_nano.a(lib_a-malloc.o)
 .debug_frame   0x00000000000020c4       0x54 /usr/lib/gcc/arm-none-eabi/10.3.1/../../../arm-none-eabi/lib/thumb/v7e-m+fp/hard/libg_nano.a(lib_a-nano-freer.o)
 .debug_frame   0x0000000000002118       0x30 /usr/lib/gcc/arm-none-eabi/10.3.1/../../../arm-none-eabi/lib/thumb/v7e-m+fp/hard/libg_nano.a(lib_a-nano-mallocr.o)
 .debug_frame   0x0000000000002148       0xbc /usr/lib/gcc/arm-none-eabi/10.3.1/../../../arm-none-eabi/lib/thumb/v7e-m+fp/hard/libg_nano.a(lib_a-nano-vfprintf.o)
 .debug_frame   0x0000000000002204       0x6c /usr/lib/gcc/arm-none-eabi/10.3.1/../../../arm-none-eabi/lib/thumb/v7e-m+fp/hard/libg_nano.a(lib_a-nano-vfprintf_i.o)
 .debug_frame   0x0000000000002270       0x4c /usr/lib/gcc/arm-none-eabi/10.3.1/../../../arm-none-eabi/lib/thumb/v7e-m+fp/hard/libg_nano.a(lib_a-wbuf.o)
 .debug_frame   0x00000000000022bc       0x2c /usr/lib/gcc/arm-none-eabi/10.3.1/../../../arm-none-eabi/lib/thumb/v7e-m+fp/hard/libg_nano.a(lib_a-wsetup.o)
 .debug_frame   0x00000000000022e8       0x28 /usr/lib/gcc/arm-none-eabi/10.3.1/../../../arm-none-eabi/lib/thumb/v7e-m+fp/hard/libg_nano.a(lib_a-abort.o)
 .debug_frame   0x0000000000002310       0x88 /usr/lib/gcc/arm-none-eabi/10.3.1/../../../arm-none-eabi/lib/thumb/v7e-m+fp/hard/libg_nano.a(lib_a-fflush.o)
 .debug_frame   0x0000000000002398      0x124 /usr/lib/gcc/arm-none-eabi/10.3.1/../../../arm-none-eabi/lib/thumb/v7e-m+fp/hard/libg_nano.a(lib_a-findfp.o)
 .debug_frame   0x00000000000024bc       0x64 /usr/lib/gcc/arm-none-eabi/10.3.1/../../../arm-none-eabi/lib/thumb/v7e-m+fp/hard/libg_nano.a(lib_a-fvwrite.o)
 .debug_frame   0x0000000000002520       0x54 /usr/lib/gcc/arm-none-eabi/10.3.1/../../../arm-none-eabi/lib/thumb/v7e-m+fp/hard/libg_nano.a(lib_a-fwalk.o)
 .debug_frame   0x0000000000002574       0x68 /usr/lib/gcc/arm-none-eabi/10.3.1/../../../arm-none-eabi/lib/thumb/v7e-m+fp/hard/libg_nano.a(lib_a-makebuf.o)
 .debug_frame   0x00000000000025dc       0x40 /usr/lib/gcc/arm-none-eabi/10.3.1/../../../arm-none-eabi/lib/thumb/v7e-m+fp/hard/libg_nano.a(lib_a-memmove.o)
 .debug_frame   0x000000000000261c       0x2c /usr/lib/gcc/arm-none-eabi/10.3.1/../../../arm-none-eabi/lib/thumb/v7e-m+fp/hard/libg_nano.a(lib_a-memset.o)
 .debug_frame   0x0000000000002648       0x30 /usr/lib/gcc/arm-none-eabi/10.3.1/../../../arm-none-eabi/lib/thumb/v7e-m+fp/hard/libg_nano.a(lib_a-mlock.o)
 .debug_frame   0x0000000000002678       0x38 /usr/lib/gcc/arm-none-eabi/10.3.1/../../../arm-none-eabi/lib/thumb/v7e-m+fp/hard/libg_nano.a(lib_a-nano-reallocr.o)
 .debug_frame   0x00000000000026b0      0x114 /usr/lib/gcc/arm-none-eabi/10.3.1/../../../arm-none-eabi/lib/thumb/v7e-m+fp/hard/libg_nano.a(lib_a-signal.o)
 .debug_frame   0x00000000000027c4       0x3c /usr/lib/gcc/arm-none-eabi/10.3.1/../../../arm-none-eabi/lib/thumb/v7e-m+fp/hard/libg_nano.a(lib_a-signalr.o)
 .debug_frame   0x0000000000002800       0x8c /usr/lib/gcc/arm-none-eabi/10.3.1/../../../arm-none-eabi/lib/thumb/v7e-m+fp/hard/libg_nano.a(lib_a-stdio.o)
 .debug_frame   0x000000000000288c       0x20 /usr/lib/gcc/arm-none-eabi/10.3.1/../../../arm-none-eabi/lib/thumb/v7e-m+fp/hard/libg_nano.a(lib_a-nano-msizer.o)
 .debug_frame   0x00000000000028ac       0x70 /usr/lib/gcc/arm-none-eabi/10.3.1/../../../arm-none-eabi/lib/thumb/v7e-m+fp/hard/libg_nano.a(lib_a-reent.o)
 .debug_frame   0x000000000000291c       0x2c /usr/lib/gcc/arm-none-eabi/10.3.1/../../../arm-none-eabi/lib/thumb/v7e-m+fp/hard/libg_nano.a(lib_a-memcmp.o)

.stab           0x0000000000000000      0x4f8
 .stab          0x0000000000000000      0x3d8 .build/obj_karlk90_yaemk_moonlanderlike/./lib/chibios/os/common/startup/ARMCMx/compilers/GCC/crt0_v7m.o
 .stab          0x00000000000003d8       0x3c .build/obj_karlk90_yaemk_moonlanderlike/./lib/chibios/os/common/startup/ARMCMx/compilers/GCC/vectors.o
                                         0x48 (size before relaxing)
 .stab          0x0000000000000414       0xe4 .build/obj_karlk90_yaemk_moonlanderlike/./lib/chibios/os/common/ports/ARMCMx/compilers/GCC/chcoreasm_v7m.o
                                         0xf0 (size before relaxing)

.stabstr        0x0000000000000000       0xed
 .stabstr       0x0000000000000000       0xed .build/obj_karlk90_yaemk_moonlanderlike/./lib/chibios/os/common/startup/ARMCMx/compilers/GCC/crt0_v7m.o

Cross Reference Table

Symbol                                            File
ALPHAS_MODS                                       .build/obj_karlk90_yaemk_moonlanderlike/quantum/rgb_matrix/rgb_matrix.o (symbol from plugin)
BAND_PINWHEEL_SAT                                 .build/obj_karlk90_yaemk_moonlanderlike/quantum/rgb_matrix/rgb_matrix.o (symbol from plugin)
BAND_PINWHEEL_VAL                                 .build/obj_karlk90_yaemk_moonlanderlike/quantum/rgb_matrix/rgb_matrix.o (symbol from plugin)
BAND_SAT                                          .build/obj_karlk90_yaemk_moonlanderlike/quantum/rgb_matrix/rgb_matrix.o (symbol from plugin)
BAND_SPIRAL_SAT                                   .build/obj_karlk90_yaemk_moonlanderlike/quantum/rgb_matrix/rgb_matrix.o (symbol from plugin)
BAND_SPIRAL_VAL                                   .build/obj_karlk90_yaemk_moonlanderlike/quantum/rgb_matrix/rgb_matrix.o (symbol from plugin)
BAND_VAL                                          .build/obj_karlk90_yaemk_moonlanderlike/quantum/rgb_matrix/rgb_matrix.o (symbol from plugin)
BREATHING                                         .build/obj_karlk90_yaemk_moonlanderlike/quantum/rgb_matrix/rgb_matrix.o (symbol from plugin)
BusFault_Handler                                  .build/obj_karlk90_yaemk_moonlanderlike/./lib/chibios/os/common/startup/ARMCMx/compilers/GCC/vectors.o
CIE1931_CURVE                                     .build/obj_karlk90_yaemk_moonlanderlike/quantum/led_tables.o (symbol from plugin)
                                                  .build/obj_karlk90_yaemk_moonlanderlike/quantum/color.o (symbol from plugin)
CSWTCH.10.lto_priv.0                              /tmp/karlk90_yaemk_moonlanderlike.elf.XW0OFi.ltrans0.ltrans.o
                                                  /tmp/karlk90_yaemk_moonlanderlike.elf.XW0OFi.ltrans1.ltrans.o
CYCLE_ALL                                         .build/obj_karlk90_yaemk_moonlanderlike/quantum/rgb_matrix/rgb_matrix.o (symbol from plugin)
CYCLE_LEFT_RIGHT                                  .build/obj_karlk90_yaemk_moonlanderlike/quantum/rgb_matrix/rgb_matrix.o (symbol from plugin)
CYCLE_OUT_IN                                      .build/obj_karlk90_yaemk_moonlanderlike/quantum/rgb_matrix/rgb_matrix.o (symbol from plugin)
CYCLE_OUT_IN_DUAL                                 .build/obj_karlk90_yaemk_moonlanderlike/quantum/rgb_matrix/rgb_matrix.o (symbol from plugin)
CYCLE_PINWHEEL                                    .build/obj_karlk90_yaemk_moonlanderlike/quantum/rgb_matrix/rgb_matrix.o (symbol from plugin)
CYCLE_SPIRAL                                      .build/obj_karlk90_yaemk_moonlanderlike/quantum/rgb_matrix/rgb_matrix.o (symbol from plugin)
CYCLE_UP_DOWN                                     .build/obj_karlk90_yaemk_moonlanderlike/quantum/rgb_matrix/rgb_matrix.o (symbol from plugin)
ConfigurationDescriptor                           .build/obj_karlk90_yaemk_moonlanderlike/usb_descriptor.o (symbol from plugin)
ConsoleReport                                     .build/obj_karlk90_yaemk_moonlanderlike/usb_descriptor.o (symbol from plugin)
DIGITAL_RAIN                                      .build/obj_karlk90_yaemk_moonlanderlike/quantum/rgb_matrix/rgb_matrix.o (symbol from plugin)
DUAL_BEACON                                       .build/obj_karlk90_yaemk_moonlanderlike/quantum/rgb_matrix/rgb_matrix.o (symbol from plugin)
DebugMon_Handler                                  .build/obj_karlk90_yaemk_moonlanderlike/./lib/chibios/os/common/startup/ARMCMx/compilers/GCC/vectors.o
DeviceDescriptor                                  .build/obj_karlk90_yaemk_moonlanderlike/usb_descriptor.o (symbol from plugin)
GRADIENT_LEFT_RIGHT                               .build/obj_karlk90_yaemk_moonlanderlike/quantum/rgb_matrix/rgb_matrix.o (symbol from plugin)
GRADIENT_UP_DOWN                                  .build/obj_karlk90_yaemk_moonlanderlike/quantum/rgb_matrix/rgb_matrix.o (symbol from plugin)
HUE_BREATHING                                     .build/obj_karlk90_yaemk_moonlanderlike/quantum/rgb_matrix/rgb_matrix.o (symbol from plugin)
HUE_PENDULUM                                      .build/obj_karlk90_yaemk_moonlanderlike/quantum/rgb_matrix/rgb_matrix.o (symbol from plugin)
HUE_WAVE                                          .build/obj_karlk90_yaemk_moonlanderlike/quantum/rgb_matrix/rgb_matrix.o (symbol from plugin)
HardFault_Handler                                 .build/obj_karlk90_yaemk_moonlanderlike/./lib/chibios/os/common/startup/ARMCMx/compilers/GCC/vectors.o
I2CD1                                             /tmp/karlk90_yaemk_moonlanderlike.elf.XW0OFi.ltrans0.ltrans.o
                                                  .build/obj_karlk90_yaemk/lib/chibios/os/hal/ports/STM32/LLD/I2Cv2/hal_i2c_lld.o (symbol from plugin)
                                                  /tmp/karlk90_yaemk_moonlanderlike.elf.XW0OFi.ltrans1.ltrans.o
                                                  .build/obj_karlk90_yaemk_moonlanderlike/i2c_master.a(i2c_master.o)
JELLYBEAN_RAINDROPS                               .build/obj_karlk90_yaemk_moonlanderlike/quantum/rgb_matrix/rgb_matrix.o (symbol from plugin)
KeyboardReport                                    .build/obj_karlk90_yaemk_moonlanderlike/usb_descriptor.o (symbol from plugin)
LanguageString                                    .build/obj_karlk90_yaemk_moonlanderlike/usb_descriptor.o (symbol from plugin)
ManufacturerString                                .build/obj_karlk90_yaemk_moonlanderlike/usb_descriptor.o (symbol from plugin)
MemManage_Handler                                 .build/obj_karlk90_yaemk_moonlanderlike/./lib/chibios/os/common/startup/ARMCMx/compilers/GCC/vectors.o
NMI_Handler                                       .build/obj_karlk90_yaemk_moonlanderlike/./lib/chibios/os/common/startup/ARMCMx/compilers/GCC/vectors.o
PWMD1                                             /tmp/karlk90_yaemk_moonlanderlike.elf.XW0OFi.ltrans0.ltrans.o
                                                  .build/obj_karlk90_yaemk/lib/chibios/os/hal/ports/STM32/LLD/TIMv1/hal_pwm_lld.o (symbol from plugin)
                                                  /tmp/karlk90_yaemk_moonlanderlike.elf.XW0OFi.ltrans1.ltrans.o
                                                  .build/obj_karlk90_yaemk/lib/chibios/os/hal/ports/STM32/STM32F3xx/stm32_isr.o (symbol from plugin)
                                                  .build/obj_karlk90_yaemk_moonlanderlike/ws2812_pwm.o (symbol from plugin)
PendSV_Handler                                    .build/obj_karlk90_yaemk_moonlanderlike/./lib/chibios/os/common/startup/ARMCMx/compilers/GCC/vectors.o
ProductString                                     .build/obj_karlk90_yaemk_moonlanderlike/usb_descriptor.o (symbol from plugin)
RAINBOW_BEACON                                    .build/obj_karlk90_yaemk_moonlanderlike/quantum/rgb_matrix/rgb_matrix.o (symbol from plugin)
RAINBOW_MOVING_CHEVRON                            .build/obj_karlk90_yaemk_moonlanderlike/quantum/rgb_matrix/rgb_matrix.o (symbol from plugin)
RAINBOW_PINWHEELS                                 .build/obj_karlk90_yaemk_moonlanderlike/quantum/rgb_matrix/rgb_matrix.o (symbol from plugin)
RAINDROPS                                         .build/obj_karlk90_yaemk_moonlanderlike/quantum/rgb_matrix/rgb_matrix.o (symbol from plugin)
RawReport                                         .build/obj_karlk90_yaemk_moonlanderlike/usb_descriptor.o (symbol from plugin)
Reset_Handler                                     .build/obj_karlk90_yaemk_moonlanderlike/./lib/chibios/os/common/startup/ARMCMx/compilers/GCC/vectors.o
SD3                                               /tmp/karlk90_yaemk_moonlanderlike.elf.XW0OFi.ltrans0.ltrans.o
                                                  .build/obj_karlk90_yaemk/lib/chibios/os/hal/ports/STM32/LLD/USARTv2/hal_serial_lld.o (symbol from plugin)
                                                  /tmp/karlk90_yaemk_moonlanderlike.elf.XW0OFi.ltrans1.ltrans.o
                                                  .build/obj_karlk90_yaemk_moonlanderlike/serial_usart.a(serial_usart.o)
SOLID_COLOR                                       .build/obj_karlk90_yaemk_moonlanderlike/quantum/rgb_matrix/rgb_matrix.o (symbol from plugin)
SVC_Handler                                       /tmp/karlk90_yaemk_moonlanderlike.elf.XW0OFi.ltrans1.ltrans.o
                                                  .build/obj_karlk90_yaemk/lib/chibios/os/common/ports/ARMCMx/chcore_v7m.o (symbol from plugin)
                                                  .build/obj_karlk90_yaemk_moonlanderlike/./lib/chibios/os/common/startup/ARMCMx/compilers/GCC/vectors.o
SharedReport                                      .build/obj_karlk90_yaemk_moonlanderlike/usb_descriptor.o (symbol from plugin)
SysTick_Handler                                   .build/obj_karlk90_yaemk_moonlanderlike/./lib/chibios/os/common/startup/ARMCMx/compilers/GCC/vectors.o
SystemCoreClock                                   .build/obj_karlk90_yaemk/lib/chibios/os/hal/ports/STM32/STM32F3xx/hal_lld.o (symbol from plugin)
TYPING_HEATMAP                                    .build/obj_karlk90_yaemk_moonlanderlike/quantum/rgb_matrix/rgb_matrix.o (symbol from plugin)
USBD1                                             /tmp/karlk90_yaemk_moonlanderlike.elf.XW0OFi.ltrans0.ltrans.o
                                                  .build/obj_karlk90_yaemk/lib/chibios/os/hal/ports/STM32/LLD/USBv1/hal_usb_lld.o (symbol from plugin)
                                                  /tmp/karlk90_yaemk_moonlanderlike.elf.XW0OFi.ltrans1.ltrans.o
                                                  .build/obj_karlk90_yaemk_moonlanderlike/protocol/chibios/usb_util.o (symbol from plugin)
                                                  .build/obj_karlk90_yaemk_moonlanderlike/protocol/chibios/chibios.o (symbol from plugin)
                                                  .build/obj_karlk90_yaemk_moonlanderlike/protocol/chibios/usb_main.o (symbol from plugin)
                                                  .build/obj_karlk90_yaemk_moonlanderlike/keyboards/karlk90/yaemk/yaemk.o (symbol from plugin)
UsageFault_Handler                                .build/obj_karlk90_yaemk_moonlanderlike/./lib/chibios/os/common/startup/ARMCMx/compilers/GCC/vectors.o
Vector100                                         .build/obj_karlk90_yaemk_moonlanderlike/./lib/chibios/os/common/startup/ARMCMx/compilers/GCC/vectors.o
Vector104                                         .build/obj_karlk90_yaemk_moonlanderlike/./lib/chibios/os/common/startup/ARMCMx/compilers/GCC/vectors.o
Vector108                                         .build/obj_karlk90_yaemk_moonlanderlike/./lib/chibios/os/common/startup/ARMCMx/compilers/GCC/vectors.o
Vector10C                                         .build/obj_karlk90_yaemk_moonlanderlike/./lib/chibios/os/common/startup/ARMCMx/compilers/GCC/vectors.o
Vector110                                         .build/obj_karlk90_yaemk_moonlanderlike/./lib/chibios/os/common/startup/ARMCMx/compilers/GCC/vectors.o
Vector114                                         .build/obj_karlk90_yaemk_moonlanderlike/./lib/chibios/os/common/startup/ARMCMx/compilers/GCC/vectors.o
Vector118                                         .build/obj_karlk90_yaemk_moonlanderlike/./lib/chibios/os/common/startup/ARMCMx/compilers/GCC/vectors.o
Vector11C                                         .build/obj_karlk90_yaemk_moonlanderlike/./lib/chibios/os/common/startup/ARMCMx/compilers/GCC/vectors.o
Vector120                                         /tmp/karlk90_yaemk_moonlanderlike.elf.XW0OFi.ltrans1.ltrans.o
                                                  .build/obj_karlk90_yaemk/lib/chibios/os/hal/ports/STM32/LLD/DMAv1/stm32_dma.o (symbol from plugin)
                                                  .build/obj_karlk90_yaemk_moonlanderlike/./lib/chibios/os/common/startup/ARMCMx/compilers/GCC/vectors.o
Vector124                                         /tmp/karlk90_yaemk_moonlanderlike.elf.XW0OFi.ltrans1.ltrans.o
                                                  .build/obj_karlk90_yaemk/lib/chibios/os/hal/ports/STM32/LLD/DMAv1/stm32_dma.o (symbol from plugin)
                                                  .build/obj_karlk90_yaemk_moonlanderlike/./lib/chibios/os/common/startup/ARMCMx/compilers/GCC/vectors.o
Vector128                                         /tmp/karlk90_yaemk_moonlanderlike.elf.XW0OFi.ltrans1.ltrans.o
                                                  .build/obj_karlk90_yaemk/lib/chibios/os/hal/ports/STM32/LLD/DMAv1/stm32_dma.o (symbol from plugin)
                                                  .build/obj_karlk90_yaemk_moonlanderlike/./lib/chibios/os/common/startup/ARMCMx/compilers/GCC/vectors.o
Vector12C                                         /tmp/karlk90_yaemk_moonlanderlike.elf.XW0OFi.ltrans1.ltrans.o
                                                  .build/obj_karlk90_yaemk/lib/chibios/os/hal/ports/STM32/LLD/DMAv1/stm32_dma.o (symbol from plugin)
                                                  .build/obj_karlk90_yaemk_moonlanderlike/./lib/chibios/os/common/startup/ARMCMx/compilers/GCC/vectors.o
Vector130                                         /tmp/karlk90_yaemk_moonlanderlike.elf.XW0OFi.ltrans1.ltrans.o
                                                  .build/obj_karlk90_yaemk/lib/chibios/os/hal/ports/STM32/LLD/DMAv1/stm32_dma.o (symbol from plugin)
                                                  .build/obj_karlk90_yaemk_moonlanderlike/./lib/chibios/os/common/startup/ARMCMx/compilers/GCC/vectors.o
Vector134                                         .build/obj_karlk90_yaemk_moonlanderlike/./lib/chibios/os/common/startup/ARMCMx/compilers/GCC/vectors.o
Vector138                                         .build/obj_karlk90_yaemk_moonlanderlike/./lib/chibios/os/common/startup/ARMCMx/compilers/GCC/vectors.o
Vector13C                                         .build/obj_karlk90_yaemk_moonlanderlike/./lib/chibios/os/common/startup/ARMCMx/compilers/GCC/vectors.o
Vector140                                         .build/obj_karlk90_yaemk_moonlanderlike/./lib/chibios/os/common/startup/ARMCMx/compilers/GCC/vectors.o
Vector144                                         .build/obj_karlk90_yaemk_moonlanderlike/./lib/chibios/os/common/startup/ARMCMx/compilers/GCC/vectors.o
Vector148                                         .build/obj_karlk90_yaemk_moonlanderlike/./lib/chibios/os/common/startup/ARMCMx/compilers/GCC/vectors.o
Vector14C                                         .build/obj_karlk90_yaemk_moonlanderlike/./lib/chibios/os/common/startup/ARMCMx/compilers/GCC/vectors.o
Vector150                                         .build/obj_karlk90_yaemk_moonlanderlike/./lib/chibios/os/common/startup/ARMCMx/compilers/GCC/vectors.o
Vector154                                         .build/obj_karlk90_yaemk_moonlanderlike/./lib/chibios/os/common/startup/ARMCMx/compilers/GCC/vectors.o
Vector158                                         .build/obj_karlk90_yaemk_moonlanderlike/./lib/chibios/os/common/startup/ARMCMx/compilers/GCC/vectors.o
Vector15C                                         .build/obj_karlk90_yaemk_moonlanderlike/./lib/chibios/os/common/startup/ARMCMx/compilers/GCC/vectors.o
Vector160                                         .build/obj_karlk90_yaemk_moonlanderlike/./lib/chibios/os/common/startup/ARMCMx/compilers/GCC/vectors.o
Vector164                                         .build/obj_karlk90_yaemk_moonlanderlike/./lib/chibios/os/common/startup/ARMCMx/compilers/GCC/vectors.o
Vector168                                         .build/obj_karlk90_yaemk_moonlanderlike/./lib/chibios/os/common/startup/ARMCMx/compilers/GCC/vectors.o
Vector16C                                         /tmp/karlk90_yaemk_moonlanderlike.elf.XW0OFi.ltrans1.ltrans.o
                                                  .build/obj_karlk90_yaemk/lib/chibios/os/hal/ports/STM32/LLD/USBv1/hal_usb_lld.o (symbol from plugin)
                                                  .build/obj_karlk90_yaemk_moonlanderlike/./lib/chibios/os/common/startup/ARMCMx/compilers/GCC/vectors.o
Vector170                                         .build/obj_karlk90_yaemk_moonlanderlike/./lib/chibios/os/common/startup/ARMCMx/compilers/GCC/vectors.o
Vector174                                         .build/obj_karlk90_yaemk_moonlanderlike/./lib/chibios/os/common/startup/ARMCMx/compilers/GCC/vectors.o
Vector178                                         .build/obj_karlk90_yaemk_moonlanderlike/./lib/chibios/os/common/startup/ARMCMx/compilers/GCC/vectors.o
Vector17C                                         .build/obj_karlk90_yaemk_moonlanderlike/./lib/chibios/os/common/startup/ARMCMx/compilers/GCC/vectors.o
Vector180                                         .build/obj_karlk90_yaemk_moonlanderlike/./lib/chibios/os/common/startup/ARMCMx/compilers/GCC/vectors.o
Vector184                                         .build/obj_karlk90_yaemk_moonlanderlike/./lib/chibios/os/common/startup/ARMCMx/compilers/GCC/vectors.o
Vector188                                         .build/obj_karlk90_yaemk_moonlanderlike/./lib/chibios/os/common/startup/ARMCMx/compilers/GCC/vectors.o
Vector18C                                         .build/obj_karlk90_yaemk_moonlanderlike/./lib/chibios/os/common/startup/ARMCMx/compilers/GCC/vectors.o
Vector190                                         .build/obj_karlk90_yaemk_moonlanderlike/./lib/chibios/os/common/startup/ARMCMx/compilers/GCC/vectors.o
Vector194                                         .build/obj_karlk90_yaemk_moonlanderlike/./lib/chibios/os/common/startup/ARMCMx/compilers/GCC/vectors.o
Vector198                                         .build/obj_karlk90_yaemk_moonlanderlike/./lib/chibios/os/common/startup/ARMCMx/compilers/GCC/vectors.o
Vector19C                                         .build/obj_karlk90_yaemk_moonlanderlike/./lib/chibios/os/common/startup/ARMCMx/compilers/GCC/vectors.o
Vector1C                                          .build/obj_karlk90_yaemk_moonlanderlike/./lib/chibios/os/common/startup/ARMCMx/compilers/GCC/vectors.o
Vector20                                          .build/obj_karlk90_yaemk_moonlanderlike/./lib/chibios/os/common/startup/ARMCMx/compilers/GCC/vectors.o
Vector24                                          .build/obj_karlk90_yaemk_moonlanderlike/./lib/chibios/os/common/startup/ARMCMx/compilers/GCC/vectors.o
Vector28                                          .build/obj_karlk90_yaemk_moonlanderlike/./lib/chibios/os/common/startup/ARMCMx/compilers/GCC/vectors.o
Vector34                                          .build/obj_karlk90_yaemk_moonlanderlike/./lib/chibios/os/common/startup/ARMCMx/compilers/GCC/vectors.o
Vector40                                          .build/obj_karlk90_yaemk_moonlanderlike/./lib/chibios/os/common/startup/ARMCMx/compilers/GCC/vectors.o
Vector44                                          .build/obj_karlk90_yaemk_moonlanderlike/./lib/chibios/os/common/startup/ARMCMx/compilers/GCC/vectors.o
Vector48                                          .build/obj_karlk90_yaemk_moonlanderlike/./lib/chibios/os/common/startup/ARMCMx/compilers/GCC/vectors.o
Vector4C                                          .build/obj_karlk90_yaemk_moonlanderlike/./lib/chibios/os/common/startup/ARMCMx/compilers/GCC/vectors.o
Vector50                                          .build/obj_karlk90_yaemk_moonlanderlike/./lib/chibios/os/common/startup/ARMCMx/compilers/GCC/vectors.o
Vector54                                          .build/obj_karlk90_yaemk_moonlanderlike/./lib/chibios/os/common/startup/ARMCMx/compilers/GCC/vectors.o
Vector58                                          .build/obj_karlk90_yaemk_moonlanderlike/./lib/chibios/os/common/startup/ARMCMx/compilers/GCC/vectors.o
Vector5C                                          .build/obj_karlk90_yaemk_moonlanderlike/./lib/chibios/os/common/startup/ARMCMx/compilers/GCC/vectors.o
Vector60                                          .build/obj_karlk90_yaemk_moonlanderlike/./lib/chibios/os/common/startup/ARMCMx/compilers/GCC/vectors.o
Vector64                                          .build/obj_karlk90_yaemk_moonlanderlike/./lib/chibios/os/common/startup/ARMCMx/compilers/GCC/vectors.o
Vector68                                          .build/obj_karlk90_yaemk_moonlanderlike/./lib/chibios/os/common/startup/ARMCMx/compilers/GCC/vectors.o
Vector6C                                          /tmp/karlk90_yaemk_moonlanderlike.elf.XW0OFi.ltrans1.ltrans.o
                                                  .build/obj_karlk90_yaemk/lib/chibios/os/hal/ports/STM32/LLD/DMAv1/stm32_dma.o (symbol from plugin)
                                                  .build/obj_karlk90_yaemk_moonlanderlike/./lib/chibios/os/common/startup/ARMCMx/compilers/GCC/vectors.o
Vector70                                          /tmp/karlk90_yaemk_moonlanderlike.elf.XW0OFi.ltrans1.ltrans.o
                                                  .build/obj_karlk90_yaemk/lib/chibios/os/hal/ports/STM32/LLD/DMAv1/stm32_dma.o (symbol from plugin)
                                                  .build/obj_karlk90_yaemk_moonlanderlike/./lib/chibios/os/common/startup/ARMCMx/compilers/GCC/vectors.o
Vector74                                          /tmp/karlk90_yaemk_moonlanderlike.elf.XW0OFi.ltrans1.ltrans.o
                                                  .build/obj_karlk90_yaemk/lib/chibios/os/hal/ports/STM32/LLD/DMAv1/stm32_dma.o (symbol from plugin)
                                                  .build/obj_karlk90_yaemk_moonlanderlike/./lib/chibios/os/common/startup/ARMCMx/compilers/GCC/vectors.o
Vector78                                          /tmp/karlk90_yaemk_moonlanderlike.elf.XW0OFi.ltrans1.ltrans.o
                                                  .build/obj_karlk90_yaemk/lib/chibios/os/hal/ports/STM32/LLD/DMAv1/stm32_dma.o (symbol from plugin)
                                                  .build/obj_karlk90_yaemk_moonlanderlike/./lib/chibios/os/common/startup/ARMCMx/compilers/GCC/vectors.o
Vector7C                                          /tmp/karlk90_yaemk_moonlanderlike.elf.XW0OFi.ltrans1.ltrans.o
                                                  .build/obj_karlk90_yaemk/lib/chibios/os/hal/ports/STM32/LLD/DMAv1/stm32_dma.o (symbol from plugin)
                                                  .build/obj_karlk90_yaemk_moonlanderlike/./lib/chibios/os/common/startup/ARMCMx/compilers/GCC/vectors.o
Vector80                                          /tmp/karlk90_yaemk_moonlanderlike.elf.XW0OFi.ltrans1.ltrans.o
                                                  .build/obj_karlk90_yaemk/lib/chibios/os/hal/ports/STM32/LLD/DMAv1/stm32_dma.o (symbol from plugin)
                                                  .build/obj_karlk90_yaemk_moonlanderlike/./lib/chibios/os/common/startup/ARMCMx/compilers/GCC/vectors.o
Vector84                                          /tmp/karlk90_yaemk_moonlanderlike.elf.XW0OFi.ltrans1.ltrans.o
                                                  .build/obj_karlk90_yaemk/lib/chibios/os/hal/ports/STM32/LLD/DMAv1/stm32_dma.o (symbol from plugin)
                                                  .build/obj_karlk90_yaemk_moonlanderlike/./lib/chibios/os/common/startup/ARMCMx/compilers/GCC/vectors.o
Vector88                                          .build/obj_karlk90_yaemk_moonlanderlike/./lib/chibios/os/common/startup/ARMCMx/compilers/GCC/vectors.o
Vector8C                                          .build/obj_karlk90_yaemk_moonlanderlike/./lib/chibios/os/common/startup/ARMCMx/compilers/GCC/vectors.o
Vector90                                          .build/obj_karlk90_yaemk_moonlanderlike/./lib/chibios/os/common/startup/ARMCMx/compilers/GCC/vectors.o
Vector94                                          .build/obj_karlk90_yaemk_moonlanderlike/./lib/chibios/os/common/startup/ARMCMx/compilers/GCC/vectors.o
Vector98                                          .build/obj_karlk90_yaemk_moonlanderlike/./lib/chibios/os/common/startup/ARMCMx/compilers/GCC/vectors.o
Vector9C                                          .build/obj_karlk90_yaemk_moonlanderlike/./lib/chibios/os/common/startup/ARMCMx/compilers/GCC/vectors.o
VectorA0                                          /tmp/karlk90_yaemk_moonlanderlike.elf.XW0OFi.ltrans1.ltrans.o
                                                  .build/obj_karlk90_yaemk/lib/chibios/os/hal/ports/STM32/STM32F3xx/stm32_isr.o (symbol from plugin)
                                                  .build/obj_karlk90_yaemk_moonlanderlike/./lib/chibios/os/common/startup/ARMCMx/compilers/GCC/vectors.o
VectorA4                                          /tmp/karlk90_yaemk_moonlanderlike.elf.XW0OFi.ltrans1.ltrans.o
                                                  .build/obj_karlk90_yaemk/lib/chibios/os/hal/ports/STM32/STM32F3xx/stm32_isr.o (symbol from plugin)
                                                  .build/obj_karlk90_yaemk_moonlanderlike/./lib/chibios/os/common/startup/ARMCMx/compilers/GCC/vectors.o
VectorA8                                          /tmp/karlk90_yaemk_moonlanderlike.elf.XW0OFi.ltrans1.ltrans.o
                                                  .build/obj_karlk90_yaemk/lib/chibios/os/hal/ports/STM32/STM32F3xx/stm32_isr.o (symbol from plugin)
                                                  .build/obj_karlk90_yaemk_moonlanderlike/./lib/chibios/os/common/startup/ARMCMx/compilers/GCC/vectors.o
VectorAC                                          /tmp/karlk90_yaemk_moonlanderlike.elf.XW0OFi.ltrans1.ltrans.o
                                                  .build/obj_karlk90_yaemk/lib/chibios/os/hal/ports/STM32/STM32F3xx/stm32_isr.o (symbol from plugin)
                                                  .build/obj_karlk90_yaemk_moonlanderlike/./lib/chibios/os/common/startup/ARMCMx/compilers/GCC/vectors.o
VectorB0                                          /tmp/karlk90_yaemk_moonlanderlike.elf.XW0OFi.ltrans1.ltrans.o
                                                  .build/obj_karlk90_yaemk/lib/chibios/os/hal/ports/STM32/LLD/TIMv1/hal_st_lld.o (symbol from plugin)
                                                  .build/obj_karlk90_yaemk_moonlanderlike/./lib/chibios/os/common/startup/ARMCMx/compilers/GCC/vectors.o
VectorB4                                          .build/obj_karlk90_yaemk_moonlanderlike/./lib/chibios/os/common/startup/ARMCMx/compilers/GCC/vectors.o
VectorB8                                          .build/obj_karlk90_yaemk_moonlanderlike/./lib/chibios/os/common/startup/ARMCMx/compilers/GCC/vectors.o
VectorBC                                          /tmp/karlk90_yaemk_moonlanderlike.elf.XW0OFi.ltrans1.ltrans.o
                                                  .build/obj_karlk90_yaemk/lib/chibios/os/hal/ports/STM32/LLD/I2Cv2/hal_i2c_lld.o (symbol from plugin)
                                                  .build/obj_karlk90_yaemk_moonlanderlike/./lib/chibios/os/common/startup/ARMCMx/compilers/GCC/vectors.o
VectorC0                                          /tmp/karlk90_yaemk_moonlanderlike.elf.XW0OFi.ltrans1.ltrans.o
                                                  .build/obj_karlk90_yaemk/lib/chibios/os/hal/ports/STM32/LLD/I2Cv2/hal_i2c_lld.o (symbol from plugin)
                                                  .build/obj_karlk90_yaemk_moonlanderlike/./lib/chibios/os/common/startup/ARMCMx/compilers/GCC/vectors.o
VectorC4                                          .build/obj_karlk90_yaemk_moonlanderlike/./lib/chibios/os/common/startup/ARMCMx/compilers/GCC/vectors.o
VectorC8                                          .build/obj_karlk90_yaemk_moonlanderlike/./lib/chibios/os/common/startup/ARMCMx/compilers/GCC/vectors.o
VectorCC                                          .build/obj_karlk90_yaemk_moonlanderlike/./lib/chibios/os/common/startup/ARMCMx/compilers/GCC/vectors.o
VectorD0                                          .build/obj_karlk90_yaemk_moonlanderlike/./lib/chibios/os/common/startup/ARMCMx/compilers/GCC/vectors.o
VectorD4                                          .build/obj_karlk90_yaemk_moonlanderlike/./lib/chibios/os/common/startup/ARMCMx/compilers/GCC/vectors.o
VectorD8                                          .build/obj_karlk90_yaemk_moonlanderlike/./lib/chibios/os/common/startup/ARMCMx/compilers/GCC/vectors.o
VectorDC                                          /tmp/karlk90_yaemk_moonlanderlike.elf.XW0OFi.ltrans1.ltrans.o
                                                  .build/obj_karlk90_yaemk/lib/chibios/os/hal/ports/STM32/LLD/USARTv2/hal_serial_lld.o (symbol from plugin)
                                                  .build/obj_karlk90_yaemk_moonlanderlike/./lib/chibios/os/common/startup/ARMCMx/compilers/GCC/vectors.o
VectorE0                                          .build/obj_karlk90_yaemk_moonlanderlike/./lib/chibios/os/common/startup/ARMCMx/compilers/GCC/vectors.o
VectorE4                                          .build/obj_karlk90_yaemk_moonlanderlike/./lib/chibios/os/common/startup/ARMCMx/compilers/GCC/vectors.o
VectorE8                                          .build/obj_karlk90_yaemk_moonlanderlike/./lib/chibios/os/common/startup/ARMCMx/compilers/GCC/vectors.o
VectorEC                                          .build/obj_karlk90_yaemk_moonlanderlike/./lib/chibios/os/common/startup/ARMCMx/compilers/GCC/vectors.o
VectorF0                                          .build/obj_karlk90_yaemk_moonlanderlike/./lib/chibios/os/common/startup/ARMCMx/compilers/GCC/vectors.o
VectorF4                                          .build/obj_karlk90_yaemk_moonlanderlike/./lib/chibios/os/common/startup/ARMCMx/compilers/GCC/vectors.o
VectorF8                                          .build/obj_karlk90_yaemk_moonlanderlike/./lib/chibios/os/common/startup/ARMCMx/compilers/GCC/vectors.o
VectorFC                                          .build/obj_karlk90_yaemk_moonlanderlike/./lib/chibios/os/common/startup/ARMCMx/compilers/GCC/vectors.o
__aeabi_idiv0                                     /usr/lib/gcc/arm-none-eabi/10.3.1/thumb/v7e-m+fp/hard/libgcc.a(_dvmd_tls.o)
__aeabi_ldiv0                                     /usr/lib/gcc/arm-none-eabi/10.3.1/thumb/v7e-m+fp/hard/libgcc.a(_dvmd_tls.o)
                                                  /usr/lib/gcc/arm-none-eabi/10.3.1/thumb/v7e-m+fp/hard/libgcc.a(_aeabi_uldivmod.o)
                                                  /usr/lib/gcc/arm-none-eabi/10.3.1/thumb/v7e-m+fp/hard/libgcc.a(_aeabi_ldivmod.o)
__aeabi_ldivmod                                   /usr/lib/gcc/arm-none-eabi/10.3.1/thumb/v7e-m+fp/hard/libgcc.a(_aeabi_ldivmod.o)
                                                  /tmp/karlk90_yaemk_moonlanderlike.elf.XW0OFi.ltrans1.ltrans.o
                                                  /tmp/karlk90_yaemk_moonlanderlike.elf.XW0OFi.ltrans0.ltrans.o
                                                  .build/obj_karlk90_yaemk_moonlanderlike/i2c_master.a(i2c_master.o)
__aeabi_uldivmod                                  /usr/lib/gcc/arm-none-eabi/10.3.1/thumb/v7e-m+fp/hard/libgcc.a(_aeabi_uldivmod.o)
                                                  /tmp/karlk90_yaemk_moonlanderlike.elf.XW0OFi.ltrans1.ltrans.o
                                                  /tmp/karlk90_yaemk_moonlanderlike.elf.XW0OFi.ltrans0.ltrans.o
                                                  .build/obj_karlk90_yaemk_moonlanderlike/i2c_master.a(i2c_master.o)
__assert                                          /usr/lib/gcc/arm-none-eabi/10.3.1/../../../arm-none-eabi/lib/thumb/v7e-m+fp/hard/libg_nano.a(lib_a-assert.o)
__assert_func                                     /usr/lib/gcc/arm-none-eabi/10.3.1/../../../arm-none-eabi/lib/thumb/v7e-m+fp/hard/libg_nano.a(lib_a-assert.o)
                                                  /usr/lib/gcc/arm-none-eabi/10.3.1/../../../arm-none-eabi/lib/thumb/v7e-m+fp/hard/libg_nano.a(lib_a-rand.o)
__bss_base__                                      .build/obj_karlk90_yaemk_moonlanderlike/./lib/chibios/os/common/startup/ARMCMx/compilers/GCC/crt0_v7m.o
__bss_end__                                       .build/obj_karlk90_yaemk_moonlanderlike/./lib/chibios/os/common/startup/ARMCMx/compilers/GCC/crt0_v7m.o
__chibios_override___early_init                   .build/obj_karlk90_yaemk/lib/chibios/os/hal/boards/ST_STM32F3_DISCOVERY/board.o (symbol from plugin)
                                                  .build/obj_karlk90_yaemk_moonlanderlike/protocol/chibios/chibios.o (symbol from plugin)
__chibios_override_boardInit                      .build/obj_karlk90_yaemk/lib/chibios/os/hal/boards/ST_STM32F3_DISCOVERY/board.o (symbol from plugin)
                                                  .build/obj_karlk90_yaemk_moonlanderlike/protocol/chibios/chibios.o (symbol from plugin)
__core_init                                       /tmp/karlk90_yaemk_moonlanderlike.elf.XW0OFi.ltrans0.ltrans.o
                                                  .build/obj_karlk90_yaemk/lib/chibios/os/common/startup/ARMCMx/compilers/GCC/crt1.o (symbol from plugin)
                                                  .build/obj_karlk90_yaemk_moonlanderlike/./lib/chibios/os/common/startup/ARMCMx/compilers/GCC/crt0_v7m.o
__cxa_pure_virtual                                /tmp/karlk90_yaemk_moonlanderlike.elf.XW0OFi.ltrans1.ltrans.o
                                                  .build/obj_karlk90_yaemk/common/chibios/syscall-fallbacks.o (symbol from plugin)
__data_base__                                     .build/obj_karlk90_yaemk_moonlanderlike/./lib/chibios/os/common/startup/ARMCMx/compilers/GCC/crt0_v7m.o
__data_end__                                      .build/obj_karlk90_yaemk_moonlanderlike/./lib/chibios/os/common/startup/ARMCMx/compilers/GCC/crt0_v7m.o
__default_exit                                    /tmp/karlk90_yaemk_moonlanderlike.elf.XW0OFi.ltrans1.ltrans.o
                                                  .build/obj_karlk90_yaemk/lib/chibios/os/common/startup/ARMCMx/compilers/GCC/crt1.o (symbol from plugin)
                                                  .build/obj_karlk90_yaemk_moonlanderlike/./lib/chibios/os/common/startup/ARMCMx/compilers/GCC/crt0_v7m.o
__dso_handle                                      /tmp/karlk90_yaemk_moonlanderlike.elf.XW0OFi.ltrans1.ltrans.o
                                                  .build/obj_karlk90_yaemk/common/chibios/syscall-fallbacks.o (symbol from plugin)
__early_init                                      /tmp/karlk90_yaemk_moonlanderlike.elf.XW0OFi.ltrans1.ltrans.o
                                                  .build/obj_karlk90_yaemk_moonlanderlike/protocol/chibios/chibios.o (symbol from plugin)
                                                  .build/obj_karlk90_yaemk_moonlanderlike/./lib/chibios/os/common/startup/ARMCMx/compilers/GCC/crt0_v7m.o
__errno                                           /usr/lib/gcc/arm-none-eabi/10.3.1/../../../arm-none-eabi/lib/thumb/v7e-m+fp/hard/libg_nano.a(lib_a-errno.o)
                                                  .build/obj_karlk90_yaemk/common/chibios/syscall-fallbacks.o (symbol from plugin)
__fini_array_base__                               .build/obj_karlk90_yaemk_moonlanderlike/./lib/chibios/os/common/startup/ARMCMx/compilers/GCC/crt0_v7m.o
__fini_array_end__                                .build/obj_karlk90_yaemk_moonlanderlike/./lib/chibios/os/common/startup/ARMCMx/compilers/GCC/crt0_v7m.o
__fp_lock_all                                     /usr/lib/gcc/arm-none-eabi/10.3.1/../../../arm-none-eabi/lib/thumb/v7e-m+fp/hard/libg_nano.a(lib_a-findfp.o)
__fp_unlock_all                                   /usr/lib/gcc/arm-none-eabi/10.3.1/../../../arm-none-eabi/lib/thumb/v7e-m+fp/hard/libg_nano.a(lib_a-findfp.o)
__heap_base__                                     /tmp/karlk90_yaemk_moonlanderlike.elf.XW0OFi.ltrans0.ltrans.o
                                                  .build/obj_karlk90_yaemk_moonlanderlike/./lib/chibios/os/oslib/src/chmemcore.o (symbol from plugin)
__heap_end__                                      /tmp/karlk90_yaemk_moonlanderlike.elf.XW0OFi.ltrans0.ltrans.o
                                                  .build/obj_karlk90_yaemk_moonlanderlike/./lib/chibios/os/oslib/src/chmemcore.o (symbol from plugin)
__init_array_base__                               .build/obj_karlk90_yaemk_moonlanderlike/./lib/chibios/os/common/startup/ARMCMx/compilers/GCC/crt0_v7m.o
__init_array_end__                                .build/obj_karlk90_yaemk_moonlanderlike/./lib/chibios/os/common/startup/ARMCMx/compilers/GCC/crt0_v7m.o
__init_ram_areas                                  /tmp/karlk90_yaemk_moonlanderlike.elf.XW0OFi.ltrans1.ltrans.o
                                                  .build/obj_karlk90_yaemk/lib/chibios/os/common/startup/ARMCMx/compilers/GCC/crt1.o (symbol from plugin)
                                                  .build/obj_karlk90_yaemk_moonlanderlike/./lib/chibios/os/common/startup/ARMCMx/compilers/GCC/crt0_v7m.o
__late_init                                       /tmp/karlk90_yaemk_moonlanderlike.elf.XW0OFi.ltrans1.ltrans.o
                                                  .build/obj_karlk90_yaemk/lib/chibios/os/common/startup/ARMCMx/compilers/GCC/crt1.o (symbol from plugin)
                                                  .build/obj_karlk90_yaemk_moonlanderlike/./lib/chibios/os/common/startup/ARMCMx/compilers/GCC/crt0_v7m.o
__main_stack_base__                               .build/obj_karlk90_yaemk_moonlanderlike/./lib/chibios/os/common/startup/ARMCMx/compilers/GCC/crt0_v7m.o
__main_stack_end__                                .build/obj_karlk90_yaemk_moonlanderlike/./lib/chibios/os/common/startup/ARMCMx/compilers/GCC/vectors.o
                                                  .build/obj_karlk90_yaemk_moonlanderlike/./lib/chibios/os/common/startup/ARMCMx/compilers/GCC/crt0_v7m.o
__malloc_free_list                                /usr/lib/gcc/arm-none-eabi/10.3.1/../../../arm-none-eabi/lib/thumb/v7e-m+fp/hard/libg_nano.a(lib_a-nano-mallocr.o)
                                                  /usr/lib/gcc/arm-none-eabi/10.3.1/../../../arm-none-eabi/lib/thumb/v7e-m+fp/hard/libg_nano.a(lib_a-nano-freer.o)
__malloc_lock                                     /usr/lib/gcc/arm-none-eabi/10.3.1/../../../arm-none-eabi/lib/thumb/v7e-m+fp/hard/libg_nano.a(lib_a-mlock.o)
                                                  /usr/lib/gcc/arm-none-eabi/10.3.1/../../../arm-none-eabi/lib/thumb/v7e-m+fp/hard/libg_nano.a(lib_a-nano-mallocr.o)
                                                  /usr/lib/gcc/arm-none-eabi/10.3.1/../../../arm-none-eabi/lib/thumb/v7e-m+fp/hard/libg_nano.a(lib_a-nano-freer.o)
__malloc_sbrk_start                               /usr/lib/gcc/arm-none-eabi/10.3.1/../../../arm-none-eabi/lib/thumb/v7e-m+fp/hard/libg_nano.a(lib_a-nano-mallocr.o)
__malloc_unlock                                   /usr/lib/gcc/arm-none-eabi/10.3.1/../../../arm-none-eabi/lib/thumb/v7e-m+fp/hard/libg_nano.a(lib_a-mlock.o)
                                                  /usr/lib/gcc/arm-none-eabi/10.3.1/../../../arm-none-eabi/lib/thumb/v7e-m+fp/hard/libg_nano.a(lib_a-nano-mallocr.o)
                                                  /usr/lib/gcc/arm-none-eabi/10.3.1/../../../arm-none-eabi/lib/thumb/v7e-m+fp/hard/libg_nano.a(lib_a-nano-freer.o)
__process_stack_base__                            .build/obj_karlk90_yaemk_moonlanderlike/./lib/chibios/os/common/startup/ARMCMx/compilers/GCC/crt0_v7m.o
__process_stack_end__                             .build/obj_karlk90_yaemk_moonlanderlike/./lib/chibios/os/common/startup/ARMCMx/compilers/GCC/crt0_v7m.o
__ram0_clear__                                    /tmp/karlk90_yaemk_moonlanderlike.elf.XW0OFi.ltrans1.ltrans.o
                                                  .build/obj_karlk90_yaemk/lib/chibios/os/common/startup/ARMCMx/compilers/GCC/crt1.o (symbol from plugin)
__ram0_end__                                      /tmp/karlk90_yaemk_moonlanderlike.elf.XW0OFi.ltrans1.ltrans.o
                                                  /tmp/karlk90_yaemk_moonlanderlike.elf.XW0OFi.ltrans0.ltrans.o
                                                  .build/obj_karlk90_yaemk_moonlanderlike/common/chibios/bootloader.o (symbol from plugin)
__ram0_init__                                     /tmp/karlk90_yaemk_moonlanderlike.elf.XW0OFi.ltrans1.ltrans.o
                                                  .build/obj_karlk90_yaemk/lib/chibios/os/common/startup/ARMCMx/compilers/GCC/crt1.o (symbol from plugin)
__ram0_init_text__                                /tmp/karlk90_yaemk_moonlanderlike.elf.XW0OFi.ltrans1.ltrans.o
                                                  .build/obj_karlk90_yaemk/lib/chibios/os/common/startup/ARMCMx/compilers/GCC/crt1.o (symbol from plugin)
__ram0_noinit__                                   /tmp/karlk90_yaemk_moonlanderlike.elf.XW0OFi.ltrans1.ltrans.o
                                                  .build/obj_karlk90_yaemk/lib/chibios/os/common/startup/ARMCMx/compilers/GCC/crt1.o (symbol from plugin)
__ram1_clear__                                    /tmp/karlk90_yaemk_moonlanderlike.elf.XW0OFi.ltrans1.ltrans.o
                                                  .build/obj_karlk90_yaemk/lib/chibios/os/common/startup/ARMCMx/compilers/GCC/crt1.o (symbol from plugin)
__ram1_init__                                     /tmp/karlk90_yaemk_moonlanderlike.elf.XW0OFi.ltrans1.ltrans.o
                                                  .build/obj_karlk90_yaemk/lib/chibios/os/common/startup/ARMCMx/compilers/GCC/crt1.o (symbol from plugin)
__ram1_init_text__                                /tmp/karlk90_yaemk_moonlanderlike.elf.XW0OFi.ltrans1.ltrans.o
                                                  .build/obj_karlk90_yaemk/lib/chibios/os/common/startup/ARMCMx/compilers/GCC/crt1.o (symbol from plugin)
__ram1_noinit__                                   /tmp/karlk90_yaemk_moonlanderlike.elf.XW0OFi.ltrans1.ltrans.o
                                                  .build/obj_karlk90_yaemk/lib/chibios/os/common/startup/ARMCMx/compilers/GCC/crt1.o (symbol from plugin)
__ram2_clear__                                    /tmp/karlk90_yaemk_moonlanderlike.elf.XW0OFi.ltrans1.ltrans.o
                                                  .build/obj_karlk90_yaemk/lib/chibios/os/common/startup/ARMCMx/compilers/GCC/crt1.o (symbol from plugin)
__ram2_init__                                     /tmp/karlk90_yaemk_moonlanderlike.elf.XW0OFi.ltrans1.ltrans.o
                                                  .build/obj_karlk90_yaemk/lib/chibios/os/common/startup/ARMCMx/compilers/GCC/crt1.o (symbol from plugin)
__ram2_init_text__                                /tmp/karlk90_yaemk_moonlanderlike.elf.XW0OFi.ltrans1.ltrans.o
                                                  .build/obj_karlk90_yaemk/lib/chibios/os/common/startup/ARMCMx/compilers/GCC/crt1.o (symbol from plugin)
__ram2_noinit__                                   /tmp/karlk90_yaemk_moonlanderlike.elf.XW0OFi.ltrans1.ltrans.o
                                                  .build/obj_karlk90_yaemk/lib/chibios/os/common/startup/ARMCMx/compilers/GCC/crt1.o (symbol from plugin)
__ram3_clear__                                    /tmp/karlk90_yaemk_moonlanderlike.elf.XW0OFi.ltrans1.ltrans.o
                                                  .build/obj_karlk90_yaemk/lib/chibios/os/common/startup/ARMCMx/compilers/GCC/crt1.o (symbol from plugin)
__ram3_init__                                     /tmp/karlk90_yaemk_moonlanderlike.elf.XW0OFi.ltrans1.ltrans.o
                                                  .build/obj_karlk90_yaemk/lib/chibios/os/common/startup/ARMCMx/compilers/GCC/crt1.o (symbol from plugin)
__ram3_init_text__                                /tmp/karlk90_yaemk_moonlanderlike.elf.XW0OFi.ltrans1.ltrans.o
                                                  .build/obj_karlk90_yaemk/lib/chibios/os/common/startup/ARMCMx/compilers/GCC/crt1.o (symbol from plugin)
__ram3_noinit__                                   /tmp/karlk90_yaemk_moonlanderlike.elf.XW0OFi.ltrans1.ltrans.o
                                                  .build/obj_karlk90_yaemk/lib/chibios/os/common/startup/ARMCMx/compilers/GCC/crt1.o (symbol from plugin)
__ram4_clear__                                    /tmp/karlk90_yaemk_moonlanderlike.elf.XW0OFi.ltrans1.ltrans.o
                                                  .build/obj_karlk90_yaemk/lib/chibios/os/common/startup/ARMCMx/compilers/GCC/crt1.o (symbol from plugin)
__ram4_init__                                     /tmp/karlk90_yaemk_moonlanderlike.elf.XW0OFi.ltrans1.ltrans.o
                                                  .build/obj_karlk90_yaemk/lib/chibios/os/common/startup/ARMCMx/compilers/GCC/crt1.o (symbol from plugin)
__ram4_init_text__                                /tmp/karlk90_yaemk_moonlanderlike.elf.XW0OFi.ltrans1.ltrans.o
                                                  .build/obj_karlk90_yaemk/lib/chibios/os/common/startup/ARMCMx/compilers/GCC/crt1.o (symbol from plugin)
__ram4_noinit__                                   /tmp/karlk90_yaemk_moonlanderlike.elf.XW0OFi.ltrans1.ltrans.o
                                                  .build/obj_karlk90_yaemk/lib/chibios/os/common/startup/ARMCMx/compilers/GCC/crt1.o (symbol from plugin)
__ram5_clear__                                    /tmp/karlk90_yaemk_moonlanderlike.elf.XW0OFi.ltrans1.ltrans.o
                                                  .build/obj_karlk90_yaemk/lib/chibios/os/common/startup/ARMCMx/compilers/GCC/crt1.o (symbol from plugin)
__ram5_init__                                     /tmp/karlk90_yaemk_moonlanderlike.elf.XW0OFi.ltrans1.ltrans.o
                                                  .build/obj_karlk90_yaemk/lib/chibios/os/common/startup/ARMCMx/compilers/GCC/crt1.o (symbol from plugin)
__ram5_init_text__                                /tmp/karlk90_yaemk_moonlanderlike.elf.XW0OFi.ltrans1.ltrans.o
                                                  .build/obj_karlk90_yaemk/lib/chibios/os/common/startup/ARMCMx/compilers/GCC/crt1.o (symbol from plugin)
__ram5_noinit__                                   /tmp/karlk90_yaemk_moonlanderlike.elf.XW0OFi.ltrans1.ltrans.o
                                                  .build/obj_karlk90_yaemk/lib/chibios/os/common/startup/ARMCMx/compilers/GCC/crt1.o (symbol from plugin)
__ram6_clear__                                    /tmp/karlk90_yaemk_moonlanderlike.elf.XW0OFi.ltrans1.ltrans.o
                                                  .build/obj_karlk90_yaemk/lib/chibios/os/common/startup/ARMCMx/compilers/GCC/crt1.o (symbol from plugin)
__ram6_init__                                     /tmp/karlk90_yaemk_moonlanderlike.elf.XW0OFi.ltrans1.ltrans.o
                                                  .build/obj_karlk90_yaemk/lib/chibios/os/common/startup/ARMCMx/compilers/GCC/crt1.o (symbol from plugin)
__ram6_init_text__                                /tmp/karlk90_yaemk_moonlanderlike.elf.XW0OFi.ltrans1.ltrans.o
                                                  .build/obj_karlk90_yaemk/lib/chibios/os/common/startup/ARMCMx/compilers/GCC/crt1.o (symbol from plugin)
__ram6_noinit__                                   /tmp/karlk90_yaemk_moonlanderlike.elf.XW0OFi.ltrans1.ltrans.o
                                                  .build/obj_karlk90_yaemk/lib/chibios/os/common/startup/ARMCMx/compilers/GCC/crt1.o (symbol from plugin)
__ram7_clear__                                    /tmp/karlk90_yaemk_moonlanderlike.elf.XW0OFi.ltrans1.ltrans.o
                                                  .build/obj_karlk90_yaemk/lib/chibios/os/common/startup/ARMCMx/compilers/GCC/crt1.o (symbol from plugin)
__ram7_init__                                     /tmp/karlk90_yaemk_moonlanderlike.elf.XW0OFi.ltrans1.ltrans.o
                                                  .build/obj_karlk90_yaemk/lib/chibios/os/common/startup/ARMCMx/compilers/GCC/crt1.o (symbol from plugin)
__ram7_init_text__                                /tmp/karlk90_yaemk_moonlanderlike.elf.XW0OFi.ltrans1.ltrans.o
                                                  .build/obj_karlk90_yaemk/lib/chibios/os/common/startup/ARMCMx/compilers/GCC/crt1.o (symbol from plugin)
__ram7_noinit__                                   /tmp/karlk90_yaemk_moonlanderlike.elf.XW0OFi.ltrans1.ltrans.o
                                                  .build/obj_karlk90_yaemk/lib/chibios/os/common/startup/ARMCMx/compilers/GCC/crt1.o (symbol from plugin)
__sclose                                          /usr/lib/gcc/arm-none-eabi/10.3.1/../../../arm-none-eabi/lib/thumb/v7e-m+fp/hard/libg_nano.a(lib_a-stdio.o)
                                                  /usr/lib/gcc/arm-none-eabi/10.3.1/../../../arm-none-eabi/lib/thumb/v7e-m+fp/hard/libg_nano.a(lib_a-findfp.o)
__seofread                                        /usr/lib/gcc/arm-none-eabi/10.3.1/../../../arm-none-eabi/lib/thumb/v7e-m+fp/hard/libg_nano.a(lib_a-stdio.o)
__sf_fake_stderr                                  /usr/lib/gcc/arm-none-eabi/10.3.1/../../../arm-none-eabi/lib/thumb/v7e-m+fp/hard/libg_nano.a(lib_a-findfp.o)
                                                  /usr/lib/gcc/arm-none-eabi/10.3.1/../../../arm-none-eabi/lib/thumb/v7e-m+fp/hard/libg_nano.a(lib_a-fflush.o)
                                                  /usr/lib/gcc/arm-none-eabi/10.3.1/../../../arm-none-eabi/lib/thumb/v7e-m+fp/hard/libg_nano.a(lib_a-wsetup.o)
                                                  /usr/lib/gcc/arm-none-eabi/10.3.1/../../../arm-none-eabi/lib/thumb/v7e-m+fp/hard/libg_nano.a(lib_a-wbuf.o)
                                                  /usr/lib/gcc/arm-none-eabi/10.3.1/../../../arm-none-eabi/lib/thumb/v7e-m+fp/hard/libg_nano.a(lib_a-nano-vfprintf.o)
                                                  /usr/lib/gcc/arm-none-eabi/10.3.1/../../../arm-none-eabi/lib/thumb/v7e-m+fp/hard/libg_nano.a(lib_a-impure.o)
__sf_fake_stdin                                   /usr/lib/gcc/arm-none-eabi/10.3.1/../../../arm-none-eabi/lib/thumb/v7e-m+fp/hard/libg_nano.a(lib_a-findfp.o)
                                                  /usr/lib/gcc/arm-none-eabi/10.3.1/../../../arm-none-eabi/lib/thumb/v7e-m+fp/hard/libg_nano.a(lib_a-fflush.o)
                                                  /usr/lib/gcc/arm-none-eabi/10.3.1/../../../arm-none-eabi/lib/thumb/v7e-m+fp/hard/libg_nano.a(lib_a-wsetup.o)
                                                  /usr/lib/gcc/arm-none-eabi/10.3.1/../../../arm-none-eabi/lib/thumb/v7e-m+fp/hard/libg_nano.a(lib_a-wbuf.o)
                                                  /usr/lib/gcc/arm-none-eabi/10.3.1/../../../arm-none-eabi/lib/thumb/v7e-m+fp/hard/libg_nano.a(lib_a-nano-vfprintf.o)
                                                  /usr/lib/gcc/arm-none-eabi/10.3.1/../../../arm-none-eabi/lib/thumb/v7e-m+fp/hard/libg_nano.a(lib_a-impure.o)
__sf_fake_stdout                                  /usr/lib/gcc/arm-none-eabi/10.3.1/../../../arm-none-eabi/lib/thumb/v7e-m+fp/hard/libg_nano.a(lib_a-findfp.o)
                                                  /usr/lib/gcc/arm-none-eabi/10.3.1/../../../arm-none-eabi/lib/thumb/v7e-m+fp/hard/libg_nano.a(lib_a-fflush.o)
                                                  /usr/lib/gcc/arm-none-eabi/10.3.1/../../../arm-none-eabi/lib/thumb/v7e-m+fp/hard/libg_nano.a(lib_a-wsetup.o)
                                                  /usr/lib/gcc/arm-none-eabi/10.3.1/../../../arm-none-eabi/lib/thumb/v7e-m+fp/hard/libg_nano.a(lib_a-wbuf.o)
                                                  /usr/lib/gcc/arm-none-eabi/10.3.1/../../../arm-none-eabi/lib/thumb/v7e-m+fp/hard/libg_nano.a(lib_a-nano-vfprintf.o)
                                                  /usr/lib/gcc/arm-none-eabi/10.3.1/../../../arm-none-eabi/lib/thumb/v7e-m+fp/hard/libg_nano.a(lib_a-impure.o)
__sflush_r                                        /usr/lib/gcc/arm-none-eabi/10.3.1/../../../arm-none-eabi/lib/thumb/v7e-m+fp/hard/libg_nano.a(lib_a-fflush.o)
__sfmoreglue                                      /usr/lib/gcc/arm-none-eabi/10.3.1/../../../arm-none-eabi/lib/thumb/v7e-m+fp/hard/libg_nano.a(lib_a-findfp.o)
__sfp                                             /usr/lib/gcc/arm-none-eabi/10.3.1/../../../arm-none-eabi/lib/thumb/v7e-m+fp/hard/libg_nano.a(lib_a-findfp.o)
__sfp_lock_acquire                                /usr/lib/gcc/arm-none-eabi/10.3.1/../../../arm-none-eabi/lib/thumb/v7e-m+fp/hard/libg_nano.a(lib_a-findfp.o)
__sfp_lock_release                                /usr/lib/gcc/arm-none-eabi/10.3.1/../../../arm-none-eabi/lib/thumb/v7e-m+fp/hard/libg_nano.a(lib_a-findfp.o)
__sfputs_r                                        /usr/lib/gcc/arm-none-eabi/10.3.1/../../../arm-none-eabi/lib/thumb/v7e-m+fp/hard/libg_nano.a(lib_a-nano-vfprintf.o)
__sfvwrite_r                                      /usr/lib/gcc/arm-none-eabi/10.3.1/../../../arm-none-eabi/lib/thumb/v7e-m+fp/hard/libg_nano.a(lib_a-fvwrite.o)
                                                  /usr/lib/gcc/arm-none-eabi/10.3.1/../../../arm-none-eabi/lib/thumb/v7e-m+fp/hard/libg_nano.a(lib_a-nano-vfprintf.o)
__sigtramp                                        /usr/lib/gcc/arm-none-eabi/10.3.1/../../../arm-none-eabi/lib/thumb/v7e-m+fp/hard/libg_nano.a(lib_a-signal.o)
__sigtramp_r                                      /usr/lib/gcc/arm-none-eabi/10.3.1/../../../arm-none-eabi/lib/thumb/v7e-m+fp/hard/libg_nano.a(lib_a-signal.o)
__sinit                                           /usr/lib/gcc/arm-none-eabi/10.3.1/../../../arm-none-eabi/lib/thumb/v7e-m+fp/hard/libg_nano.a(lib_a-findfp.o)
                                                  /usr/lib/gcc/arm-none-eabi/10.3.1/../../../arm-none-eabi/lib/thumb/v7e-m+fp/hard/libg_nano.a(lib_a-fflush.o)
                                                  /usr/lib/gcc/arm-none-eabi/10.3.1/../../../arm-none-eabi/lib/thumb/v7e-m+fp/hard/libg_nano.a(lib_a-wsetup.o)
                                                  /usr/lib/gcc/arm-none-eabi/10.3.1/../../../arm-none-eabi/lib/thumb/v7e-m+fp/hard/libg_nano.a(lib_a-wbuf.o)
                                                  /usr/lib/gcc/arm-none-eabi/10.3.1/../../../arm-none-eabi/lib/thumb/v7e-m+fp/hard/libg_nano.a(lib_a-nano-vfprintf.o)
__sinit_lock_acquire                              /usr/lib/gcc/arm-none-eabi/10.3.1/../../../arm-none-eabi/lib/thumb/v7e-m+fp/hard/libg_nano.a(lib_a-findfp.o)
__sinit_lock_release                              /usr/lib/gcc/arm-none-eabi/10.3.1/../../../arm-none-eabi/lib/thumb/v7e-m+fp/hard/libg_nano.a(lib_a-findfp.o)
__smakebuf_r                                      /usr/lib/gcc/arm-none-eabi/10.3.1/../../../arm-none-eabi/lib/thumb/v7e-m+fp/hard/libg_nano.a(lib_a-makebuf.o)
                                                  /usr/lib/gcc/arm-none-eabi/10.3.1/../../../arm-none-eabi/lib/thumb/v7e-m+fp/hard/libg_nano.a(lib_a-wsetup.o)
__sprint_r                                        /usr/lib/gcc/arm-none-eabi/10.3.1/../../../arm-none-eabi/lib/thumb/v7e-m+fp/hard/libg_nano.a(lib_a-nano-vfprintf.o)
__sread                                           /usr/lib/gcc/arm-none-eabi/10.3.1/../../../arm-none-eabi/lib/thumb/v7e-m+fp/hard/libg_nano.a(lib_a-stdio.o)
                                                  /usr/lib/gcc/arm-none-eabi/10.3.1/../../../arm-none-eabi/lib/thumb/v7e-m+fp/hard/libg_nano.a(lib_a-findfp.o)
__sseek                                           /usr/lib/gcc/arm-none-eabi/10.3.1/../../../arm-none-eabi/lib/thumb/v7e-m+fp/hard/libg_nano.a(lib_a-stdio.o)
                                                  /usr/lib/gcc/arm-none-eabi/10.3.1/../../../arm-none-eabi/lib/thumb/v7e-m+fp/hard/libg_nano.a(lib_a-findfp.o)
__swbuf                                           /usr/lib/gcc/arm-none-eabi/10.3.1/../../../arm-none-eabi/lib/thumb/v7e-m+fp/hard/libg_nano.a(lib_a-wbuf.o)
__swbuf_r                                         /usr/lib/gcc/arm-none-eabi/10.3.1/../../../arm-none-eabi/lib/thumb/v7e-m+fp/hard/libg_nano.a(lib_a-wbuf.o)
                                                  /usr/lib/gcc/arm-none-eabi/10.3.1/../../../arm-none-eabi/lib/thumb/v7e-m+fp/hard/libg_nano.a(lib_a-nano-vfprintf.o)
__swhatbuf_r                                      /usr/lib/gcc/arm-none-eabi/10.3.1/../../../arm-none-eabi/lib/thumb/v7e-m+fp/hard/libg_nano.a(lib_a-makebuf.o)
__swrite                                          /usr/lib/gcc/arm-none-eabi/10.3.1/../../../arm-none-eabi/lib/thumb/v7e-m+fp/hard/libg_nano.a(lib_a-stdio.o)
                                                  /usr/lib/gcc/arm-none-eabi/10.3.1/../../../arm-none-eabi/lib/thumb/v7e-m+fp/hard/libg_nano.a(lib_a-findfp.o)
__swsetup_r                                       /usr/lib/gcc/arm-none-eabi/10.3.1/../../../arm-none-eabi/lib/thumb/v7e-m+fp/hard/libg_nano.a(lib_a-wsetup.o)
                                                  /usr/lib/gcc/arm-none-eabi/10.3.1/../../../arm-none-eabi/lib/thumb/v7e-m+fp/hard/libg_nano.a(lib_a-fvwrite.o)
                                                  /usr/lib/gcc/arm-none-eabi/10.3.1/../../../arm-none-eabi/lib/thumb/v7e-m+fp/hard/libg_nano.a(lib_a-wbuf.o)
                                                  /usr/lib/gcc/arm-none-eabi/10.3.1/../../../arm-none-eabi/lib/thumb/v7e-m+fp/hard/libg_nano.a(lib_a-nano-vfprintf.o)
__textdata_base__                                 .build/obj_karlk90_yaemk_moonlanderlike/./lib/chibios/os/common/startup/ARMCMx/compilers/GCC/crt0_v7m.o
__udivmoddi4                                      /usr/lib/gcc/arm-none-eabi/10.3.1/thumb/v7e-m+fp/hard/libgcc.a(_udivmoddi4.o)
                                                  /usr/lib/gcc/arm-none-eabi/10.3.1/thumb/v7e-m+fp/hard/libgcc.a(_aeabi_uldivmod.o)
                                                  /usr/lib/gcc/arm-none-eabi/10.3.1/thumb/v7e-m+fp/hard/libgcc.a(_aeabi_ldivmod.o)
_cleanup                                          /usr/lib/gcc/arm-none-eabi/10.3.1/../../../arm-none-eabi/lib/thumb/v7e-m+fp/hard/libg_nano.a(lib_a-findfp.o)
_cleanup_r                                        /usr/lib/gcc/arm-none-eabi/10.3.1/../../../arm-none-eabi/lib/thumb/v7e-m+fp/hard/libg_nano.a(lib_a-findfp.o)
                                                  /usr/lib/gcc/arm-none-eabi/10.3.1/../../../arm-none-eabi/lib/thumb/v7e-m+fp/hard/libg_nano.a(lib_a-makebuf.o)
_close_r                                          /tmp/karlk90_yaemk_moonlanderlike.elf.XW0OFi.ltrans1.ltrans.o
                                                  .build/obj_karlk90_yaemk/lib/chibios/os/various/syscalls.o (symbol from plugin)
                                                  /usr/lib/gcc/arm-none-eabi/10.3.1/../../../arm-none-eabi/lib/thumb/v7e-m+fp/hard/libg_nano.a(lib_a-stdio.o)
_core_init                                        .build/obj_karlk90_yaemk_moonlanderlike/./lib/chibios/os/oslib/src/chmemcore.o (symbol from plugin)
                                                  .build/obj_karlk90_yaemk/lib/chibios/os/rt/src/chsys.o (symbol from plugin)
_crt0_entry                                       .build/obj_karlk90_yaemk_moonlanderlike/./lib/chibios/os/common/startup/ARMCMx/compilers/GCC/crt0_v7m.o
                                                  .build/obj_karlk90_yaemk_moonlanderlike/./lib/chibios/os/common/startup/ARMCMx/compilers/GCC/vectors.o
_ctl.lto_priv.0                                   /tmp/karlk90_yaemk_moonlanderlike.elf.XW0OFi.ltrans1.ltrans.o
                                                  /tmp/karlk90_yaemk_moonlanderlike.elf.XW0OFi.ltrans0.ltrans.o
_ctype_                                           /usr/lib/gcc/arm-none-eabi/10.3.1/../../../arm-none-eabi/lib/thumb/v7e-m+fp/hard/libg_nano.a(lib_a-ctype_.o)
                                                  /tmp/karlk90_yaemk_moonlanderlike.elf.XW0OFi.ltrans0.ltrans.o
                                                  .build/obj_karlk90_yaemk_moonlanderlike/quantum/send_string.o (symbol from plugin)
_exit                                             /tmp/karlk90_yaemk_moonlanderlike.elf.XW0OFi.ltrans1.ltrans.o
                                                  .build/obj_karlk90_yaemk/lib/chibios/os/various/syscalls.o (symbol from plugin)
                                                  /usr/lib/gcc/arm-none-eabi/10.3.1/../../../arm-none-eabi/lib/thumb/v7e-m+fp/hard/libg_nano.a(lib_a-abort.o)
_fflush_r                                         /usr/lib/gcc/arm-none-eabi/10.3.1/../../../arm-none-eabi/lib/thumb/v7e-m+fp/hard/libg_nano.a(lib_a-fflush.o)
                                                  /usr/lib/gcc/arm-none-eabi/10.3.1/../../../arm-none-eabi/lib/thumb/v7e-m+fp/hard/libg_nano.a(lib_a-fvwrite.o)
                                                  /usr/lib/gcc/arm-none-eabi/10.3.1/../../../arm-none-eabi/lib/thumb/v7e-m+fp/hard/libg_nano.a(lib_a-findfp.o)
                                                  /usr/lib/gcc/arm-none-eabi/10.3.1/../../../arm-none-eabi/lib/thumb/v7e-m+fp/hard/libg_nano.a(lib_a-wbuf.o)
_fini                                             /tmp/karlk90_yaemk_moonlanderlike.elf.XW0OFi.ltrans1.ltrans.o
                                                  .build/obj_karlk90_yaemk/common/chibios/syscall-fallbacks.o (symbol from plugin)
_fiprintf_r                                       /usr/lib/gcc/arm-none-eabi/10.3.1/../../../arm-none-eabi/lib/thumb/v7e-m+fp/hard/libg_nano.a(lib_a-fprintf.o)
_fprintf_r                                        /usr/lib/gcc/arm-none-eabi/10.3.1/../../../arm-none-eabi/lib/thumb/v7e-m+fp/hard/libg_nano.a(lib_a-fprintf.o)
_free_r                                           /usr/lib/gcc/arm-none-eabi/10.3.1/../../../arm-none-eabi/lib/thumb/v7e-m+fp/hard/libg_nano.a(lib_a-nano-freer.o)
                                                  /usr/lib/gcc/arm-none-eabi/10.3.1/../../../arm-none-eabi/lib/thumb/v7e-m+fp/hard/libg_nano.a(lib_a-reent.o)
                                                  /usr/lib/gcc/arm-none-eabi/10.3.1/../../../arm-none-eabi/lib/thumb/v7e-m+fp/hard/libg_nano.a(lib_a-nano-reallocr.o)
                                                  /usr/lib/gcc/arm-none-eabi/10.3.1/../../../arm-none-eabi/lib/thumb/v7e-m+fp/hard/libg_nano.a(lib_a-fvwrite.o)
                                                  /usr/lib/gcc/arm-none-eabi/10.3.1/../../../arm-none-eabi/lib/thumb/v7e-m+fp/hard/libg_nano.a(lib_a-fflush.o)
                                                  /usr/lib/gcc/arm-none-eabi/10.3.1/../../../arm-none-eabi/lib/thumb/v7e-m+fp/hard/libg_nano.a(lib_a-wsetup.o)
                                                  /usr/lib/gcc/arm-none-eabi/10.3.1/../../../arm-none-eabi/lib/thumb/v7e-m+fp/hard/libg_nano.a(lib_a-malloc.o)
_fstat_r                                          /tmp/karlk90_yaemk_moonlanderlike.elf.XW0OFi.ltrans1.ltrans.o
                                                  .build/obj_karlk90_yaemk/lib/chibios/os/various/syscalls.o (symbol from plugin)
                                                  /usr/lib/gcc/arm-none-eabi/10.3.1/../../../arm-none-eabi/lib/thumb/v7e-m+fp/hard/libg_nano.a(lib_a-makebuf.o)
_fwalk                                            /usr/lib/gcc/arm-none-eabi/10.3.1/../../../arm-none-eabi/lib/thumb/v7e-m+fp/hard/libg_nano.a(lib_a-fwalk.o)
                                                  /usr/lib/gcc/arm-none-eabi/10.3.1/../../../arm-none-eabi/lib/thumb/v7e-m+fp/hard/libg_nano.a(lib_a-findfp.o)
_fwalk_reent                                      /usr/lib/gcc/arm-none-eabi/10.3.1/../../../arm-none-eabi/lib/thumb/v7e-m+fp/hard/libg_nano.a(lib_a-fwalk.o)
                                                  /usr/lib/gcc/arm-none-eabi/10.3.1/../../../arm-none-eabi/lib/thumb/v7e-m+fp/hard/libg_nano.a(lib_a-findfp.o)
                                                  /usr/lib/gcc/arm-none-eabi/10.3.1/../../../arm-none-eabi/lib/thumb/v7e-m+fp/hard/libg_nano.a(lib_a-fflush.o)
_get.lto_priv.0                                   /tmp/karlk90_yaemk_moonlanderlike.elf.XW0OFi.ltrans1.ltrans.o
                                                  /tmp/karlk90_yaemk_moonlanderlike.elf.XW0OFi.ltrans0.ltrans.o
_get.lto_priv.1                                   /tmp/karlk90_yaemk_moonlanderlike.elf.XW0OFi.ltrans1.ltrans.o
                                                  /tmp/karlk90_yaemk_moonlanderlike.elf.XW0OFi.ltrans0.ltrans.o
_getpid                                           /tmp/karlk90_yaemk_moonlanderlike.elf.XW0OFi.ltrans1.ltrans.o
                                                  .build/obj_karlk90_yaemk/lib/chibios/os/various/syscalls.o (symbol from plugin)
                                                  /usr/lib/gcc/arm-none-eabi/10.3.1/../../../arm-none-eabi/lib/thumb/v7e-m+fp/hard/libg_nano.a(lib_a-signalr.o)
_getpid_r                                         /usr/lib/gcc/arm-none-eabi/10.3.1/../../../arm-none-eabi/lib/thumb/v7e-m+fp/hard/libg_nano.a(lib_a-signalr.o)
                                                  /usr/lib/gcc/arm-none-eabi/10.3.1/../../../arm-none-eabi/lib/thumb/v7e-m+fp/hard/libg_nano.a(lib_a-signal.o)
_gett.lto_priv.0                                  /tmp/karlk90_yaemk_moonlanderlike.elf.XW0OFi.ltrans1.ltrans.o
                                                  /tmp/karlk90_yaemk_moonlanderlike.elf.XW0OFi.ltrans0.ltrans.o
_gett.lto_priv.1                                  /tmp/karlk90_yaemk_moonlanderlike.elf.XW0OFi.ltrans1.ltrans.o
                                                  /tmp/karlk90_yaemk_moonlanderlike.elf.XW0OFi.ltrans0.ltrans.o
_gettimeofday_r                                   /tmp/karlk90_yaemk_moonlanderlike.elf.XW0OFi.ltrans1.ltrans.o
                                                  .build/obj_karlk90_yaemk/common/chibios/syscall-fallbacks.o (symbol from plugin)
_global_impure_ptr                                /usr/lib/gcc/arm-none-eabi/10.3.1/../../../arm-none-eabi/lib/thumb/v7e-m+fp/hard/libg_nano.a(lib_a-impure.o)
                                                  /usr/lib/gcc/arm-none-eabi/10.3.1/../../../arm-none-eabi/lib/thumb/v7e-m+fp/hard/libg_nano.a(lib_a-findfp.o)
                                                  /usr/lib/gcc/arm-none-eabi/10.3.1/../../../arm-none-eabi/lib/thumb/v7e-m+fp/hard/libg_nano.a(lib_a-fflush.o)
_idle_thread.lto_priv.0                           /tmp/karlk90_yaemk_moonlanderlike.elf.XW0OFi.ltrans1.ltrans.o
                                                  /tmp/karlk90_yaemk_moonlanderlike.elf.XW0OFi.ltrans0.ltrans.o
_impure_ptr                                       /usr/lib/gcc/arm-none-eabi/10.3.1/../../../arm-none-eabi/lib/thumb/v7e-m+fp/hard/libg_nano.a(lib_a-impure.o)
                                                  /usr/lib/gcc/arm-none-eabi/10.3.1/../../../arm-none-eabi/lib/thumb/v7e-m+fp/hard/libg_nano.a(lib_a-reent.o)
                                                  /usr/lib/gcc/arm-none-eabi/10.3.1/../../../arm-none-eabi/lib/thumb/v7e-m+fp/hard/libg_nano.a(lib_a-signal.o)
                                                  /usr/lib/gcc/arm-none-eabi/10.3.1/../../../arm-none-eabi/lib/thumb/v7e-m+fp/hard/libg_nano.a(lib_a-findfp.o)
                                                  /usr/lib/gcc/arm-none-eabi/10.3.1/../../../arm-none-eabi/lib/thumb/v7e-m+fp/hard/libg_nano.a(lib_a-fflush.o)
                                                  /usr/lib/gcc/arm-none-eabi/10.3.1/../../../arm-none-eabi/lib/thumb/v7e-m+fp/hard/libg_nano.a(lib_a-wsetup.o)
                                                  /usr/lib/gcc/arm-none-eabi/10.3.1/../../../arm-none-eabi/lib/thumb/v7e-m+fp/hard/libg_nano.a(lib_a-wbuf.o)
                                                  /usr/lib/gcc/arm-none-eabi/10.3.1/../../../arm-none-eabi/lib/thumb/v7e-m+fp/hard/libg_nano.a(lib_a-nano-vfprintf.o)
                                                  /usr/lib/gcc/arm-none-eabi/10.3.1/../../../arm-none-eabi/lib/thumb/v7e-m+fp/hard/libg_nano.a(lib_a-malloc.o)
                                                  /usr/lib/gcc/arm-none-eabi/10.3.1/../../../arm-none-eabi/lib/thumb/v7e-m+fp/hard/libg_nano.a(lib_a-fprintf.o)
                                                  /usr/lib/gcc/arm-none-eabi/10.3.1/../../../arm-none-eabi/lib/thumb/v7e-m+fp/hard/libg_nano.a(lib_a-assert.o)
                                                  /usr/lib/gcc/arm-none-eabi/10.3.1/../../../arm-none-eabi/lib/thumb/v7e-m+fp/hard/libg_nano.a(lib_a-rand.o)
                                                  /usr/lib/gcc/arm-none-eabi/10.3.1/../../../arm-none-eabi/lib/thumb/v7e-m+fp/hard/libg_nano.a(lib_a-errno.o)
_init_signal                                      /usr/lib/gcc/arm-none-eabi/10.3.1/../../../arm-none-eabi/lib/thumb/v7e-m+fp/hard/libg_nano.a(lib_a-signal.o)
_init_signal_r                                    /usr/lib/gcc/arm-none-eabi/10.3.1/../../../arm-none-eabi/lib/thumb/v7e-m+fp/hard/libg_nano.a(lib_a-signal.o)
_isatty_r                                         /tmp/karlk90_yaemk_moonlanderlike.elf.XW0OFi.ltrans1.ltrans.o
                                                  .build/obj_karlk90_yaemk/lib/chibios/os/various/syscalls.o (symbol from plugin)
                                                  /usr/lib/gcc/arm-none-eabi/10.3.1/../../../arm-none-eabi/lib/thumb/v7e-m+fp/hard/libg_nano.a(lib_a-makebuf.o)
_kill                                             /tmp/karlk90_yaemk_moonlanderlike.elf.XW0OFi.ltrans1.ltrans.o
                                                  .build/obj_karlk90_yaemk/lib/chibios/os/various/syscalls.o (symbol from plugin)
                                                  /usr/lib/gcc/arm-none-eabi/10.3.1/../../../arm-none-eabi/lib/thumb/v7e-m+fp/hard/libg_nano.a(lib_a-signalr.o)
_kill_r                                           /usr/lib/gcc/arm-none-eabi/10.3.1/../../../arm-none-eabi/lib/thumb/v7e-m+fp/hard/libg_nano.a(lib_a-signalr.o)
                                                  /usr/lib/gcc/arm-none-eabi/10.3.1/../../../arm-none-eabi/lib/thumb/v7e-m+fp/hard/libg_nano.a(lib_a-signal.o)
_link_r                                           /tmp/karlk90_yaemk_moonlanderlike.elf.XW0OFi.ltrans1.ltrans.o
                                                  .build/obj_karlk90_yaemk/common/chibios/syscall-fallbacks.o (symbol from plugin)
_lseek_r                                          /tmp/karlk90_yaemk_moonlanderlike.elf.XW0OFi.ltrans1.ltrans.o
                                                  .build/obj_karlk90_yaemk/lib/chibios/os/various/syscalls.o (symbol from plugin)
                                                  /usr/lib/gcc/arm-none-eabi/10.3.1/../../../arm-none-eabi/lib/thumb/v7e-m+fp/hard/libg_nano.a(lib_a-stdio.o)
_malloc_r                                         /usr/lib/gcc/arm-none-eabi/10.3.1/../../../arm-none-eabi/lib/thumb/v7e-m+fp/hard/libg_nano.a(lib_a-nano-mallocr.o)
                                                  /usr/lib/gcc/arm-none-eabi/10.3.1/../../../arm-none-eabi/lib/thumb/v7e-m+fp/hard/libg_nano.a(lib_a-signal.o)
                                                  /usr/lib/gcc/arm-none-eabi/10.3.1/../../../arm-none-eabi/lib/thumb/v7e-m+fp/hard/libg_nano.a(lib_a-nano-reallocr.o)
                                                  /usr/lib/gcc/arm-none-eabi/10.3.1/../../../arm-none-eabi/lib/thumb/v7e-m+fp/hard/libg_nano.a(lib_a-makebuf.o)
                                                  /usr/lib/gcc/arm-none-eabi/10.3.1/../../../arm-none-eabi/lib/thumb/v7e-m+fp/hard/libg_nano.a(lib_a-fvwrite.o)
                                                  /usr/lib/gcc/arm-none-eabi/10.3.1/../../../arm-none-eabi/lib/thumb/v7e-m+fp/hard/libg_nano.a(lib_a-findfp.o)
                                                  /usr/lib/gcc/arm-none-eabi/10.3.1/../../../arm-none-eabi/lib/thumb/v7e-m+fp/hard/libg_nano.a(lib_a-malloc.o)
_malloc_usable_size_r                             /usr/lib/gcc/arm-none-eabi/10.3.1/../../../arm-none-eabi/lib/thumb/v7e-m+fp/hard/libg_nano.a(lib_a-nano-msizer.o)
                                                  /usr/lib/gcc/arm-none-eabi/10.3.1/../../../arm-none-eabi/lib/thumb/v7e-m+fp/hard/libg_nano.a(lib_a-nano-reallocr.o)
_open_r                                           /tmp/karlk90_yaemk_moonlanderlike.elf.XW0OFi.ltrans1.ltrans.o
                                                  .build/obj_karlk90_yaemk/common/chibios/syscall-fallbacks.o (symbol from plugin)
_out_buffer.lto_priv.0                            /tmp/karlk90_yaemk_moonlanderlike.elf.XW0OFi.ltrans0.ltrans.o
                                                  /tmp/karlk90_yaemk_moonlanderlike.elf.XW0OFi.ltrans1.ltrans.o
_pal_lld_init                                     .build/obj_karlk90_yaemk/lib/chibios/os/hal/ports/STM32/LLD/GPIOv2/hal_pal_lld.o (symbol from plugin)
                                                  .build/obj_karlk90_yaemk/lib/chibios/os/hal/src/hal.o (symbol from plugin)
_pal_lld_setgroupmode                             /tmp/karlk90_yaemk_moonlanderlike.elf.XW0OFi.ltrans1.ltrans.o
                                                  .build/obj_karlk90_yaemk/lib/chibios/os/hal/ports/STM32/LLD/GPIOv2/hal_pal_lld.o (symbol from plugin)
                                                  /tmp/karlk90_yaemk_moonlanderlike.elf.XW0OFi.ltrans0.ltrans.o
                                                  .build/obj_karlk90_yaemk/lib/chibios/os/hal/src/hal_pal.o (symbol from plugin)
                                                  .build/obj_karlk90_yaemk_moonlanderlike/protocol/chibios/usb_main.o (symbol from plugin)
                                                  .build/obj_karlk90_yaemk_moonlanderlike/serial_usart.a(serial_usart.o)
                                                  .build/obj_karlk90_yaemk_moonlanderlike/i2c_master.a(i2c_master.o)
                                                  .build/obj_karlk90_yaemk_moonlanderlike/quantum/encoder.o (symbol from plugin)
                                                  .build/obj_karlk90_yaemk_moonlanderlike/ws2812_pwm.o (symbol from plugin)
                                                  .build/obj_karlk90_yaemk_moonlanderlike/quantum/split_common/split_util.o (symbol from plugin)
                                                  .build/obj_karlk90_yaemk_moonlanderlike/quantum/matrix.o (symbol from plugin)
                                                  .build/obj_karlk90_yaemk_moonlanderlike/keyboards/karlk90/yaemk/yaemk.o (symbol from plugin)
_pal_lld_setgroupmode.constprop.0                 /tmp/karlk90_yaemk_moonlanderlike.elf.XW0OFi.ltrans1.ltrans.o
                                                  /tmp/karlk90_yaemk_moonlanderlike.elf.XW0OFi.ltrans0.ltrans.o
_pal_lld_setgroupmode.constprop.1                 /tmp/karlk90_yaemk_moonlanderlike.elf.XW0OFi.ltrans1.ltrans.o
                                                  /tmp/karlk90_yaemk_moonlanderlike.elf.XW0OFi.ltrans0.ltrans.o
_pal_lld_setgroupmode.constprop.2                 /tmp/karlk90_yaemk_moonlanderlike.elf.XW0OFi.ltrans1.ltrans.o
                                                  /tmp/karlk90_yaemk_moonlanderlike.elf.XW0OFi.ltrans0.ltrans.o
_port_exit_from_isr                               .build/obj_karlk90_yaemk_moonlanderlike/./lib/chibios/os/common/ports/ARMCMx/compilers/GCC/chcoreasm_v7m.o
                                                  /tmp/karlk90_yaemk_moonlanderlike.elf.XW0OFi.ltrans1.ltrans.o
                                                  .build/obj_karlk90_yaemk/lib/chibios/os/common/ports/ARMCMx/chcore_v7m.o (symbol from plugin)
_port_irq_epilogue                                .build/obj_karlk90_yaemk/lib/chibios/os/common/ports/ARMCMx/chcore_v7m.o (symbol from plugin)
                                                  .build/obj_karlk90_yaemk/lib/chibios/os/hal/ports/STM32/LLD/USBv1/hal_usb_lld.o (symbol from plugin)
                                                  .build/obj_karlk90_yaemk/lib/chibios/os/hal/ports/STM32/LLD/USARTv2/hal_serial_lld.o (symbol from plugin)
                                                  .build/obj_karlk90_yaemk/lib/chibios/os/hal/ports/STM32/LLD/TIMv1/hal_st_lld.o (symbol from plugin)
                                                  .build/obj_karlk90_yaemk/lib/chibios/os/hal/ports/STM32/LLD/I2Cv2/hal_i2c_lld.o (symbol from plugin)
                                                  .build/obj_karlk90_yaemk/lib/chibios/os/hal/ports/STM32/LLD/DMAv1/stm32_dma.o (symbol from plugin)
                                                  .build/obj_karlk90_yaemk/lib/chibios/os/hal/ports/STM32/STM32F3xx/stm32_isr.o (symbol from plugin)
_port_switch                                      .build/obj_karlk90_yaemk_moonlanderlike/./lib/chibios/os/common/ports/ARMCMx/compilers/GCC/chcoreasm_v7m.o
                                                  /tmp/karlk90_yaemk_moonlanderlike.elf.XW0OFi.ltrans1.ltrans.o
                                                  /tmp/karlk90_yaemk_moonlanderlike.elf.XW0OFi.ltrans0.ltrans.o
                                                  .build/obj_karlk90_yaemk/lib/chibios/os/rt/src/chschd.o (symbol from plugin)
_port_switch_from_isr                             .build/obj_karlk90_yaemk_moonlanderlike/./lib/chibios/os/common/ports/ARMCMx/compilers/GCC/chcoreasm_v7m.o
                                                  /tmp/karlk90_yaemk_moonlanderlike.elf.XW0OFi.ltrans1.ltrans.o
                                                  .build/obj_karlk90_yaemk/lib/chibios/os/common/ports/ARMCMx/chcore_v7m.o (symbol from plugin)
_port_thread_start                                .build/obj_karlk90_yaemk_moonlanderlike/./lib/chibios/os/common/ports/ARMCMx/compilers/GCC/chcoreasm_v7m.o
                                                  /tmp/karlk90_yaemk_moonlanderlike.elf.XW0OFi.ltrans1.ltrans.o
                                                  /tmp/karlk90_yaemk_moonlanderlike.elf.XW0OFi.ltrans0.ltrans.o
                                                  .build/obj_karlk90_yaemk/lib/chibios/os/rt/src/chthreads.o (symbol from plugin)
_printf_common                                    /usr/lib/gcc/arm-none-eabi/10.3.1/../../../arm-none-eabi/lib/thumb/v7e-m+fp/hard/libg_nano.a(lib_a-nano-vfprintf_i.o)
_printf_float                                     /usr/lib/gcc/arm-none-eabi/10.3.1/../../../arm-none-eabi/lib/thumb/v7e-m+fp/hard/libg_nano.a(lib_a-nano-vfprintf.o)
_printf_i                                         /usr/lib/gcc/arm-none-eabi/10.3.1/../../../arm-none-eabi/lib/thumb/v7e-m+fp/hard/libg_nano.a(lib_a-nano-vfprintf_i.o)
                                                  /usr/lib/gcc/arm-none-eabi/10.3.1/../../../arm-none-eabi/lib/thumb/v7e-m+fp/hard/libg_nano.a(lib_a-nano-vfprintf.o)
_put.lto_priv.0                                   /tmp/karlk90_yaemk_moonlanderlike.elf.XW0OFi.ltrans1.ltrans.o
                                                  /tmp/karlk90_yaemk_moonlanderlike.elf.XW0OFi.ltrans0.ltrans.o
_put.lto_priv.1                                   /tmp/karlk90_yaemk_moonlanderlike.elf.XW0OFi.ltrans1.ltrans.o
                                                  /tmp/karlk90_yaemk_moonlanderlike.elf.XW0OFi.ltrans0.ltrans.o
_putchar                                          .build/obj_karlk90_yaemk_moonlanderlike/quantum/logging/print.o (symbol from plugin)
                                                  .build/obj_karlk90_yaemk_moonlanderlike/lib/printf/printf.o (symbol from plugin)
_putt.lto_priv.0                                  /tmp/karlk90_yaemk_moonlanderlike.elf.XW0OFi.ltrans1.ltrans.o
                                                  /tmp/karlk90_yaemk_moonlanderlike.elf.XW0OFi.ltrans0.ltrans.o
_putt.lto_priv.1                                  /tmp/karlk90_yaemk_moonlanderlike.elf.XW0OFi.ltrans1.ltrans.o
                                                  /tmp/karlk90_yaemk_moonlanderlike.elf.XW0OFi.ltrans0.ltrans.o
_raise_r                                          /usr/lib/gcc/arm-none-eabi/10.3.1/../../../arm-none-eabi/lib/thumb/v7e-m+fp/hard/libg_nano.a(lib_a-signal.o)
_read.lto_priv.0                                  /tmp/karlk90_yaemk_moonlanderlike.elf.XW0OFi.ltrans1.ltrans.o
                                                  /tmp/karlk90_yaemk_moonlanderlike.elf.XW0OFi.ltrans0.ltrans.o
_read.lto_priv.1                                  /tmp/karlk90_yaemk_moonlanderlike.elf.XW0OFi.ltrans1.ltrans.o
                                                  /tmp/karlk90_yaemk_moonlanderlike.elf.XW0OFi.ltrans0.ltrans.o
_read_r                                           /tmp/karlk90_yaemk_moonlanderlike.elf.XW0OFi.ltrans1.ltrans.o
                                                  .build/obj_karlk90_yaemk/lib/chibios/os/various/syscalls.o (symbol from plugin)
                                                  /usr/lib/gcc/arm-none-eabi/10.3.1/../../../arm-none-eabi/lib/thumb/v7e-m+fp/hard/libg_nano.a(lib_a-stdio.o)
_readt.lto_priv.0                                 /tmp/karlk90_yaemk_moonlanderlike.elf.XW0OFi.ltrans1.ltrans.o
                                                  /tmp/karlk90_yaemk_moonlanderlike.elf.XW0OFi.ltrans0.ltrans.o
_readt.lto_priv.1                                 /tmp/karlk90_yaemk_moonlanderlike.elf.XW0OFi.ltrans1.ltrans.o
                                                  /tmp/karlk90_yaemk_moonlanderlike.elf.XW0OFi.ltrans0.ltrans.o
_realloc_r                                        /usr/lib/gcc/arm-none-eabi/10.3.1/../../../arm-none-eabi/lib/thumb/v7e-m+fp/hard/libg_nano.a(lib_a-nano-reallocr.o)
                                                  /usr/lib/gcc/arm-none-eabi/10.3.1/../../../arm-none-eabi/lib/thumb/v7e-m+fp/hard/libg_nano.a(lib_a-fvwrite.o)
_reclaim_reent                                    /usr/lib/gcc/arm-none-eabi/10.3.1/../../../arm-none-eabi/lib/thumb/v7e-m+fp/hard/libg_nano.a(lib_a-reent.o)
_sbrk_r                                           /tmp/karlk90_yaemk_moonlanderlike.elf.XW0OFi.ltrans1.ltrans.o
                                                  .build/obj_karlk90_yaemk/lib/chibios/os/various/syscalls.o (symbol from plugin)
                                                  /usr/lib/gcc/arm-none-eabi/10.3.1/../../../arm-none-eabi/lib/thumb/v7e-m+fp/hard/libg_nano.a(lib_a-nano-mallocr.o)
_scheduler_init                                   .build/obj_karlk90_yaemk/lib/chibios/os/rt/src/chschd.o (symbol from plugin)
                                                  .build/obj_karlk90_yaemk/lib/chibios/os/rt/src/chsys.o (symbol from plugin)
_signal_r                                         /usr/lib/gcc/arm-none-eabi/10.3.1/../../../arm-none-eabi/lib/thumb/v7e-m+fp/hard/libg_nano.a(lib_a-signal.o)
_stm32_dma_streams                                /tmp/karlk90_yaemk_moonlanderlike.elf.XW0OFi.ltrans0.ltrans.o
                                                  .build/obj_karlk90_yaemk/lib/chibios/os/hal/ports/STM32/LLD/DMAv1/stm32_dma.o (symbol from plugin)
                                                  /tmp/karlk90_yaemk_moonlanderlike.elf.XW0OFi.ltrans1.ltrans.o
                                                  .build/obj_karlk90_yaemk_moonlanderlike/ws2812_pwm.o (symbol from plugin)
_thread_init                                      .build/obj_karlk90_yaemk/lib/chibios/os/rt/src/chthreads.o (symbol from plugin)
                                                  .build/obj_karlk90_yaemk/lib/chibios/os/rt/src/chsys.o (symbol from plugin)
_times_r                                          /tmp/karlk90_yaemk_moonlanderlike.elf.XW0OFi.ltrans1.ltrans.o
                                                  .build/obj_karlk90_yaemk/common/chibios/syscall-fallbacks.o (symbol from plugin)
_unhandled_exception                              .build/obj_karlk90_yaemk_moonlanderlike/./lib/chibios/os/common/startup/ARMCMx/compilers/GCC/vectors.o
_unlink_r                                         /tmp/karlk90_yaemk_moonlanderlike.elf.XW0OFi.ltrans1.ltrans.o
                                                  .build/obj_karlk90_yaemk/common/chibios/syscall-fallbacks.o (symbol from plugin)
_usb_ep0in                                        /tmp/karlk90_yaemk_moonlanderlike.elf.XW0OFi.ltrans1.ltrans.o
                                                  .build/obj_karlk90_yaemk/lib/chibios/os/hal/src/hal_usb.o (symbol from plugin)
                                                  /tmp/karlk90_yaemk_moonlanderlike.elf.XW0OFi.ltrans0.ltrans.o
                                                  .build/obj_karlk90_yaemk/lib/chibios/os/hal/ports/STM32/LLD/USBv1/hal_usb_lld.o (symbol from plugin)
_usb_ep0out                                       /tmp/karlk90_yaemk_moonlanderlike.elf.XW0OFi.ltrans1.ltrans.o
                                                  .build/obj_karlk90_yaemk/lib/chibios/os/hal/src/hal_usb.o (symbol from plugin)
                                                  /tmp/karlk90_yaemk_moonlanderlike.elf.XW0OFi.ltrans0.ltrans.o
                                                  .build/obj_karlk90_yaemk/lib/chibios/os/hal/ports/STM32/LLD/USBv1/hal_usb_lld.o (symbol from plugin)
_usb_ep0setup                                     /tmp/karlk90_yaemk_moonlanderlike.elf.XW0OFi.ltrans1.ltrans.o
                                                  .build/obj_karlk90_yaemk/lib/chibios/os/hal/src/hal_usb.o (symbol from plugin)
                                                  /tmp/karlk90_yaemk_moonlanderlike.elf.XW0OFi.ltrans0.ltrans.o
                                                  .build/obj_karlk90_yaemk/lib/chibios/os/hal/ports/STM32/LLD/USBv1/hal_usb_lld.o (symbol from plugin)
_usb_reset                                        .build/obj_karlk90_yaemk/lib/chibios/os/hal/src/hal_usb.o (symbol from plugin)
                                                  .build/obj_karlk90_yaemk/lib/chibios/os/hal/ports/STM32/LLD/USBv1/hal_usb_lld.o (symbol from plugin)
_usb_suspend                                      .build/obj_karlk90_yaemk/lib/chibios/os/hal/src/hal_usb.o (symbol from plugin)
                                                  .build/obj_karlk90_yaemk/lib/chibios/os/hal/ports/STM32/LLD/USBv1/hal_usb_lld.o (symbol from plugin)
_usb_wakeup                                       .build/obj_karlk90_yaemk/lib/chibios/os/hal/src/hal_usb.o (symbol from plugin)
                                                  .build/obj_karlk90_yaemk/lib/chibios/os/hal/ports/STM32/LLD/USBv1/hal_usb_lld.o (symbol from plugin)
_vectors                                          .build/obj_karlk90_yaemk_moonlanderlike/./lib/chibios/os/common/startup/ARMCMx/compilers/GCC/vectors.o
                                                  .build/obj_karlk90_yaemk_moonlanderlike/./lib/chibios/os/common/startup/ARMCMx/compilers/GCC/crt0_v7m.o
_vfiprintf_r                                      /usr/lib/gcc/arm-none-eabi/10.3.1/../../../arm-none-eabi/lib/thumb/v7e-m+fp/hard/libg_nano.a(lib_a-nano-vfprintf.o)
_vfprintf_r                                       /usr/lib/gcc/arm-none-eabi/10.3.1/../../../arm-none-eabi/lib/thumb/v7e-m+fp/hard/libg_nano.a(lib_a-nano-vfprintf.o)
                                                  /usr/lib/gcc/arm-none-eabi/10.3.1/../../../arm-none-eabi/lib/thumb/v7e-m+fp/hard/libg_nano.a(lib_a-fprintf.o)
_vsnprintf.lto_priv.0                             /tmp/karlk90_yaemk_moonlanderlike.elf.XW0OFi.ltrans0.ltrans.o
                                                  /tmp/karlk90_yaemk_moonlanderlike.elf.XW0OFi.ltrans1.ltrans.o
_vt_init                                          .build/obj_karlk90_yaemk/lib/chibios/os/rt/src/chvt.o (symbol from plugin)
                                                  .build/obj_karlk90_yaemk/lib/chibios/os/rt/src/chsys.o (symbol from plugin)
_write.lto_priv.0                                 /tmp/karlk90_yaemk_moonlanderlike.elf.XW0OFi.ltrans1.ltrans.o
                                                  /tmp/karlk90_yaemk_moonlanderlike.elf.XW0OFi.ltrans0.ltrans.o
_write.lto_priv.1                                 /tmp/karlk90_yaemk_moonlanderlike.elf.XW0OFi.ltrans1.ltrans.o
                                                  /tmp/karlk90_yaemk_moonlanderlike.elf.XW0OFi.ltrans0.ltrans.o
_write_r                                          /tmp/karlk90_yaemk_moonlanderlike.elf.XW0OFi.ltrans1.ltrans.o
                                                  .build/obj_karlk90_yaemk/lib/chibios/os/various/syscalls.o (symbol from plugin)
                                                  /usr/lib/gcc/arm-none-eabi/10.3.1/../../../arm-none-eabi/lib/thumb/v7e-m+fp/hard/libg_nano.a(lib_a-stdio.o)
_writet.lto_priv.0                                /tmp/karlk90_yaemk_moonlanderlike.elf.XW0OFi.ltrans1.ltrans.o
                                                  /tmp/karlk90_yaemk_moonlanderlike.elf.XW0OFi.ltrans0.ltrans.o
_writet.lto_priv.1                                /tmp/karlk90_yaemk_moonlanderlike.elf.XW0OFi.ltrans1.ltrans.o
                                                  /tmp/karlk90_yaemk_moonlanderlike.elf.XW0OFi.ltrans0.ltrans.o
abort                                             /usr/lib/gcc/arm-none-eabi/10.3.1/../../../arm-none-eabi/lib/thumb/v7e-m+fp/hard/libg_nano.a(lib_a-abort.o)
                                                  /usr/lib/gcc/arm-none-eabi/10.3.1/../../../arm-none-eabi/lib/thumb/v7e-m+fp/hard/libg_nano.a(lib_a-assert.o)
action.c.515ef8bf                                 /tmp/ccOBaQrD.debug.temp.o
                                                  /tmp/karlk90_yaemk_moonlanderlike.elf.XW0OFi.ltrans1.ltrans.o
                                                  /tmp/karlk90_yaemk_moonlanderlike.elf.XW0OFi.ltrans0.ltrans.o
action_exec                                       .build/obj_karlk90_yaemk_moonlanderlike/quantum/action.o (symbol from plugin)
                                                  .build/obj_karlk90_yaemk_moonlanderlike/quantum/keyboard.o (symbol from plugin)
action_for_key                                    .build/obj_karlk90_yaemk_moonlanderlike/quantum/keymap_common.o (symbol from plugin)
                                                  .build/obj_karlk90_yaemk_moonlanderlike/quantum/action_layer.o (symbol from plugin)
action_for_keycode                                .build/obj_karlk90_yaemk_moonlanderlike/quantum/keymap_common.o (symbol from plugin)
action_function                                   .build/obj_karlk90_yaemk_moonlanderlike/quantum/keymap_common.o (symbol from plugin)
action_get_macro                                  .build/obj_karlk90_yaemk_moonlanderlike/quantum/keymap_common.o (symbol from plugin)
action_layer.c.74da6ff9                           /tmp/ccByYric.debug.temp.o
                                                  /tmp/karlk90_yaemk_moonlanderlike.elf.XW0OFi.ltrans1.ltrans.o
                                                  /tmp/karlk90_yaemk_moonlanderlike.elf.XW0OFi.ltrans0.ltrans.o
action_macro.c.79ce6e4d                           /tmp/ccpalqtk.debug.temp.o
action_tapping.c.308fe8ae                         /tmp/cc90lmnB.debug.temp.o
                                                  /tmp/karlk90_yaemk_moonlanderlike.elf.XW0OFi.ltrans0.ltrans.o
action_tapping_process                            .build/obj_karlk90_yaemk_moonlanderlike/quantum/action_tapping.o (symbol from plugin)
                                                  .build/obj_karlk90_yaemk_moonlanderlike/quantum/action.o (symbol from plugin)
action_util.c.05bcf618                            /tmp/ccGI6wID.debug.temp.o
                                                  /tmp/karlk90_yaemk_moonlanderlike.elf.XW0OFi.ltrans1.ltrans.o
                                                  /tmp/karlk90_yaemk_moonlanderlike.elf.XW0OFi.ltrans0.ltrans.o
add_key                                           .build/obj_karlk90_yaemk_moonlanderlike/quantum/action_util.o (symbol from plugin)
add_key_bit                                       .build/obj_karlk90_yaemk_moonlanderlike/common/report.o (symbol from plugin)
add_key_byte                                      .build/obj_karlk90_yaemk_moonlanderlike/common/report.o (symbol from plugin)
add_key_to_report                                 .build/obj_karlk90_yaemk_moonlanderlike/common/report.o (symbol from plugin)
                                                  .build/obj_karlk90_yaemk_moonlanderlike/quantum/process_keycode/process_grave_esc.o (symbol from plugin)
                                                  .build/obj_karlk90_yaemk_moonlanderlike/quantum/action_util.o (symbol from plugin)
                                                  .build/obj_karlk90_yaemk_moonlanderlike/quantum/action.o (symbol from plugin)
add_key_to_report.constprop.0                     /tmp/karlk90_yaemk_moonlanderlike.elf.XW0OFi.ltrans1.ltrans.o
                                                  /tmp/karlk90_yaemk_moonlanderlike.elf.XW0OFi.ltrans0.ltrans.o
add_macro_mods                                    .build/obj_karlk90_yaemk_moonlanderlike/quantum/action_util.o (symbol from plugin)
add_mods                                          .build/obj_karlk90_yaemk_moonlanderlike/quantum/action_util.o (symbol from plugin)
                                                  .build/obj_karlk90_yaemk_moonlanderlike/quantum/action.o (symbol from plugin)
add_oneshot_mods                                  .build/obj_karlk90_yaemk_moonlanderlike/quantum/action_util.o (symbol from plugin)
add_weak_mods                                     .build/obj_karlk90_yaemk_moonlanderlike/quantum/action_util.o (symbol from plugin)
                                                  .build/obj_karlk90_yaemk_moonlanderlike/quantum/action.o (symbol from plugin)
ascii_to_altgr_lut                                .build/obj_karlk90_yaemk_moonlanderlike/quantum/send_string.o (symbol from plugin)
ascii_to_dead_lut                                 .build/obj_karlk90_yaemk_moonlanderlike/quantum/send_string.o (symbol from plugin)
ascii_to_keycode_lut                              .build/obj_karlk90_yaemk_moonlanderlike/quantum/send_string.o (symbol from plugin)
ascii_to_shift_lut                                .build/obj_karlk90_yaemk_moonlanderlike/quantum/send_string.o (symbol from plugin)
asym_eager_defer_pk.c.6035907f                    /tmp/ccS614w6.debug.temp.o
                                                  /tmp/karlk90_yaemk_moonlanderlike.elf.XW0OFi.ltrans0.ltrans.o
b_m16_interleave.lto_priv.0                       /tmp/karlk90_yaemk_moonlanderlike.elf.XW0OFi.ltrans0.ltrans.o
                                                  /tmp/karlk90_yaemk_moonlanderlike.elf.XW0OFi.ltrans1.ltrans.o
biton                                             .build/obj_karlk90_yaemk_moonlanderlike/quantum/bitwise.o (symbol from plugin)
                                                  .build/obj_karlk90_yaemk_moonlanderlike/common/report.o (symbol from plugin)
                                                  .build/obj_karlk90_yaemk_moonlanderlike/keyboards/karlk90/yaemk/keymaps/moonlanderlike/keymap.o (symbol from plugin)
biton16                                           .build/obj_karlk90_yaemk_moonlanderlike/quantum/bitwise.o (symbol from plugin)
biton32                                           .build/obj_karlk90_yaemk_moonlanderlike/quantum/bitwise.o (symbol from plugin)
bitpop                                            .build/obj_karlk90_yaemk_moonlanderlike/quantum/bitwise.o (symbol from plugin)
                                                  .build/obj_karlk90_yaemk_moonlanderlike/quantum/matrix_common.o (symbol from plugin)
                                                  .build/obj_karlk90_yaemk_moonlanderlike/quantum/action_util.o (symbol from plugin)
bitpop16                                          .build/obj_karlk90_yaemk_moonlanderlike/quantum/bitwise.o (symbol from plugin)
bitpop32                                          .build/obj_karlk90_yaemk_moonlanderlike/quantum/bitwise.o (symbol from plugin)
bitrev                                            .build/obj_karlk90_yaemk_moonlanderlike/quantum/bitwise.o (symbol from plugin)
                                                  .build/obj_karlk90_yaemk_moonlanderlike/quantum/matrix_common.o (symbol from plugin)
bitrev16                                          .build/obj_karlk90_yaemk_moonlanderlike/quantum/bitwise.o (symbol from plugin)
bitrev32                                          .build/obj_karlk90_yaemk_moonlanderlike/quantum/bitwise.o (symbol from plugin)
bitwise.c.da0ae9cf                                /tmp/ccQek5tM.debug.temp.o
                                                  /tmp/karlk90_yaemk_moonlanderlike.elf.XW0OFi.ltrans0.ltrans.o
board.c.0f5a9339                                  /tmp/ccLirZFJ.debug.temp.o
                                                  /tmp/karlk90_yaemk_moonlanderlike.elf.XW0OFi.ltrans1.ltrans.o
boardInit                                         .build/obj_karlk90_yaemk_moonlanderlike/protocol/chibios/chibios.o (symbol from plugin)
                                                  .build/obj_karlk90_yaemk/lib/chibios/os/hal/src/hal.o (symbol from plugin)
board_init                                        .build/obj_karlk90_yaemk_moonlanderlike/protocol/chibios/chibios.o (symbol from plugin)
bootloader.c.0577e950                             /tmp/ccCQ8m0z.debug.temp.o
                                                  /tmp/karlk90_yaemk_moonlanderlike.elf.XW0OFi.ltrans1.ltrans.o
                                                  /tmp/karlk90_yaemk_moonlanderlike.elf.XW0OFi.ltrans0.ltrans.o
bootloader_jump                                   .build/obj_karlk90_yaemk_moonlanderlike/common/chibios/bootloader.o (symbol from plugin)
                                                  .build/obj_karlk90_yaemk_moonlanderlike/quantum/bootmagic/bootmagic_lite.o (symbol from plugin)
                                                  .build/obj_karlk90_yaemk_moonlanderlike/quantum/quantum.o (symbol from plugin)
bootmagic                                         .build/obj_karlk90_yaemk_moonlanderlike/quantum/bootmagic/bootmagic_lite.o (symbol from plugin)
bootmagic_lite                                    .build/obj_karlk90_yaemk_moonlanderlike/quantum/bootmagic/bootmagic_lite.o (symbol from plugin)
bootmagic_lite.c.25c71b3b                         /tmp/ccKwh0z5.debug.temp.o
                                                  /tmp/karlk90_yaemk_moonlanderlike.elf.XW0OFi.ltrans0.ltrans.o
bootmagic_lite_reset_eeprom                       .build/obj_karlk90_yaemk_moonlanderlike/quantum/bootmagic/bootmagic_lite.o (symbol from plugin)
ch                                                /tmp/karlk90_yaemk_moonlanderlike.elf.XW0OFi.ltrans0.ltrans.o
                                                  .build/obj_karlk90_yaemk/lib/chibios/os/rt/src/chschd.o (symbol from plugin)
                                                  /tmp/karlk90_yaemk_moonlanderlike.elf.XW0OFi.ltrans1.ltrans.o
                                                  .build/obj_karlk90_yaemk/lib/chibios/os/rt/src/chevents.o (symbol from plugin)
                                                  .build/obj_karlk90_yaemk/lib/chibios/os/rt/src/chmtx.o (symbol from plugin)
                                                  .build/obj_karlk90_yaemk/lib/chibios/os/rt/src/chsem.o (symbol from plugin)
                                                  .build/obj_karlk90_yaemk/lib/chibios/os/rt/src/chthreads.o (symbol from plugin)
                                                  .build/obj_karlk90_yaemk/lib/chibios/os/rt/src/chvt.o (symbol from plugin)
                                                  .build/obj_karlk90_yaemk/lib/chibios/os/rt/src/chsys.o (symbol from plugin)
chCoreAllocFromBase                               .build/obj_karlk90_yaemk_moonlanderlike/./lib/chibios/os/oslib/src/chmemcore.o (symbol from plugin)
                                                  .build/obj_karlk90_yaemk/lib/chibios/os/various/syscalls.o (symbol from plugin)
chCoreAllocFromBaseI                              .build/obj_karlk90_yaemk_moonlanderlike/./lib/chibios/os/oslib/src/chmemcore.o (symbol from plugin)
chCoreAllocFromTop                                .build/obj_karlk90_yaemk_moonlanderlike/./lib/chibios/os/oslib/src/chmemcore.o (symbol from plugin)
chCoreAllocFromTopI                               .build/obj_karlk90_yaemk_moonlanderlike/./lib/chibios/os/oslib/src/chmemcore.o (symbol from plugin)
chCoreGetStatusX                                  .build/obj_karlk90_yaemk_moonlanderlike/./lib/chibios/os/oslib/src/chmemcore.o (symbol from plugin)
chEvtAddEvents                                    .build/obj_karlk90_yaemk/lib/chibios/os/rt/src/chevents.o (symbol from plugin)
chEvtBroadcastFlags                               .build/obj_karlk90_yaemk/lib/chibios/os/rt/src/chevents.o (symbol from plugin)
chEvtBroadcastFlagsI                              .build/obj_karlk90_yaemk/lib/chibios/os/rt/src/chevents.o (symbol from plugin)
                                                  .build/obj_karlk90_yaemk/lib/chibios/os/hal/ports/STM32/LLD/USARTv2/hal_serial_lld.o (symbol from plugin)
                                                  .build/obj_karlk90_yaemk/lib/chibios/os/hal/src/hal_serial.o (symbol from plugin)
                                                  .build/obj_karlk90_yaemk_moonlanderlike/protocol/chibios/usb_driver.o (symbol from plugin)
chEvtDispatch                                     .build/obj_karlk90_yaemk/lib/chibios/os/rt/src/chevents.o (symbol from plugin)
chEvtGetAndClearEvents                            .build/obj_karlk90_yaemk/lib/chibios/os/rt/src/chevents.o (symbol from plugin)
chEvtGetAndClearEventsI                           .build/obj_karlk90_yaemk/lib/chibios/os/rt/src/chevents.o (symbol from plugin)
chEvtGetAndClearFlags                             .build/obj_karlk90_yaemk/lib/chibios/os/rt/src/chevents.o (symbol from plugin)
chEvtGetAndClearFlagsI                            .build/obj_karlk90_yaemk/lib/chibios/os/rt/src/chevents.o (symbol from plugin)
chEvtRegisterMaskWithFlags                        .build/obj_karlk90_yaemk/lib/chibios/os/rt/src/chevents.o (symbol from plugin)
chEvtSignal                                       .build/obj_karlk90_yaemk/lib/chibios/os/rt/src/chevents.o (symbol from plugin)
chEvtSignalI                                      .build/obj_karlk90_yaemk/lib/chibios/os/rt/src/chevents.o (symbol from plugin)
chEvtUnregister                                   .build/obj_karlk90_yaemk/lib/chibios/os/rt/src/chevents.o (symbol from plugin)
chEvtWaitAll                                      .build/obj_karlk90_yaemk/lib/chibios/os/rt/src/chevents.o (symbol from plugin)
chEvtWaitAllTimeout                               .build/obj_karlk90_yaemk/lib/chibios/os/rt/src/chevents.o (symbol from plugin)
chEvtWaitAny                                      .build/obj_karlk90_yaemk/lib/chibios/os/rt/src/chevents.o (symbol from plugin)
chEvtWaitAnyTimeout                               .build/obj_karlk90_yaemk/lib/chibios/os/rt/src/chevents.o (symbol from plugin)
chEvtWaitOne                                      .build/obj_karlk90_yaemk/lib/chibios/os/rt/src/chevents.o (symbol from plugin)
chEvtWaitOneTimeout                               .build/obj_karlk90_yaemk/lib/chibios/os/rt/src/chevents.o (symbol from plugin)
chMtxLock                                         .build/obj_karlk90_yaemk/lib/chibios/os/rt/src/chmtx.o (symbol from plugin)
                                                  .build/obj_karlk90_yaemk/lib/chibios/os/hal/src/hal_i2c.o (symbol from plugin)
chMtxLockS                                        .build/obj_karlk90_yaemk/lib/chibios/os/rt/src/chmtx.o (symbol from plugin)
chMtxObjectInit                                   .build/obj_karlk90_yaemk/lib/chibios/os/rt/src/chmtx.o (symbol from plugin)
                                                  .build/obj_karlk90_yaemk/lib/chibios/os/hal/src/hal_i2c.o (symbol from plugin)
chMtxTryLock                                      .build/obj_karlk90_yaemk/lib/chibios/os/rt/src/chmtx.o (symbol from plugin)
chMtxTryLockS                                     .build/obj_karlk90_yaemk/lib/chibios/os/rt/src/chmtx.o (symbol from plugin)
chMtxUnlock                                       .build/obj_karlk90_yaemk/lib/chibios/os/rt/src/chmtx.o (symbol from plugin)
                                                  .build/obj_karlk90_yaemk/lib/chibios/os/hal/src/hal_i2c.o (symbol from plugin)
chMtxUnlockAll                                    .build/obj_karlk90_yaemk/lib/chibios/os/rt/src/chmtx.o (symbol from plugin)
chMtxUnlockAllS                                   .build/obj_karlk90_yaemk/lib/chibios/os/rt/src/chmtx.o (symbol from plugin)
chMtxUnlockS                                      .build/obj_karlk90_yaemk/lib/chibios/os/rt/src/chmtx.o (symbol from plugin)
chSchDoReschedule                                 /tmp/karlk90_yaemk_moonlanderlike.elf.XW0OFi.ltrans1.ltrans.o
                                                  .build/obj_karlk90_yaemk/lib/chibios/os/rt/src/chschd.o (symbol from plugin)
                                                  .build/obj_karlk90_yaemk_moonlanderlike/./lib/chibios/os/common/ports/ARMCMx/compilers/GCC/chcoreasm_v7m.o
chSchDoRescheduleAhead                            .build/obj_karlk90_yaemk/lib/chibios/os/rt/src/chschd.o (symbol from plugin)
chSchDoRescheduleBehind                           .build/obj_karlk90_yaemk/lib/chibios/os/rt/src/chschd.o (symbol from plugin)
                                                  .build/obj_karlk90_yaemk/lib/chibios/os/rt/src/chthreads.o (symbol from plugin)
chSchGoSleepS                                     .build/obj_karlk90_yaemk/lib/chibios/os/rt/src/chschd.o (symbol from plugin)
                                                  .build/obj_karlk90_yaemk/lib/chibios/os/rt/src/chevents.o (symbol from plugin)
                                                  .build/obj_karlk90_yaemk/lib/chibios/os/rt/src/chmtx.o (symbol from plugin)
                                                  .build/obj_karlk90_yaemk/lib/chibios/os/rt/src/chsem.o (symbol from plugin)
                                                  .build/obj_karlk90_yaemk/lib/chibios/os/rt/src/chthreads.o (symbol from plugin)
chSchGoSleepTimeoutS                              /tmp/karlk90_yaemk_moonlanderlike.elf.XW0OFi.ltrans1.ltrans.o
                                                  .build/obj_karlk90_yaemk/lib/chibios/os/rt/src/chschd.o (symbol from plugin)
                                                  /tmp/karlk90_yaemk_moonlanderlike.elf.XW0OFi.ltrans0.ltrans.o
                                                  .build/obj_karlk90_yaemk/lib/chibios/os/rt/src/chevents.o (symbol from plugin)
                                                  .build/obj_karlk90_yaemk/lib/chibios/os/rt/src/chsem.o (symbol from plugin)
                                                  .build/obj_karlk90_yaemk/lib/chibios/os/rt/src/chthreads.o (symbol from plugin)
chSchIsPreemptionRequired                         .build/obj_karlk90_yaemk/lib/chibios/os/rt/src/chschd.o (symbol from plugin)
                                                  .build/obj_karlk90_yaemk/lib/chibios/os/common/ports/ARMCMx/chcore_v7m.o (symbol from plugin)
chSchReadyAheadI                                  .build/obj_karlk90_yaemk/lib/chibios/os/rt/src/chschd.o (symbol from plugin)
chSchReadyI                                       .build/obj_karlk90_yaemk/lib/chibios/os/rt/src/chschd.o (symbol from plugin)
                                                  .build/obj_karlk90_yaemk/lib/chibios/os/rt/src/chevents.o (symbol from plugin)
                                                  .build/obj_karlk90_yaemk/lib/chibios/os/rt/src/chmtx.o (symbol from plugin)
                                                  .build/obj_karlk90_yaemk/lib/chibios/os/rt/src/chsem.o (symbol from plugin)
                                                  .build/obj_karlk90_yaemk/lib/chibios/os/rt/src/chthreads.o (symbol from plugin)
chSchRescheduleS                                  .build/obj_karlk90_yaemk/lib/chibios/os/rt/src/chschd.o (symbol from plugin)
                                                  .build/obj_karlk90_yaemk/lib/chibios/os/hal/src/hal_usb.o (symbol from plugin)
                                                  .build/obj_karlk90_yaemk/lib/chibios/os/hal/src/hal_serial.o (symbol from plugin)
                                                  .build/obj_karlk90_yaemk/lib/chibios/os/rt/src/chevents.o (symbol from plugin)
                                                  .build/obj_karlk90_yaemk/lib/chibios/os/rt/src/chmtx.o (symbol from plugin)
                                                  .build/obj_karlk90_yaemk/lib/chibios/os/rt/src/chsem.o (symbol from plugin)
                                                  .build/obj_karlk90_yaemk/lib/chibios/os/rt/src/chthreads.o (symbol from plugin)
                                                  .build/obj_karlk90_yaemk/lib/chibios/os/rt/src/chsys.o (symbol from plugin)
                                                  .build/obj_karlk90_yaemk_moonlanderlike/protocol/chibios/usb_driver.o (symbol from plugin)
chSchWakeupS                                      .build/obj_karlk90_yaemk/lib/chibios/os/rt/src/chschd.o (symbol from plugin)
                                                  .build/obj_karlk90_yaemk/lib/chibios/os/rt/src/chsem.o (symbol from plugin)
                                                  .build/obj_karlk90_yaemk/lib/chibios/os/rt/src/chthreads.o (symbol from plugin)
chSemAddCounterI                                  .build/obj_karlk90_yaemk/lib/chibios/os/rt/src/chsem.o (symbol from plugin)
chSemObjectInit                                   .build/obj_karlk90_yaemk/lib/chibios/os/rt/src/chsem.o (symbol from plugin)
chSemResetWithMessage                             .build/obj_karlk90_yaemk/lib/chibios/os/rt/src/chsem.o (symbol from plugin)
chSemResetWithMessageI                            .build/obj_karlk90_yaemk/lib/chibios/os/rt/src/chsem.o (symbol from plugin)
chSemSignal                                       .build/obj_karlk90_yaemk/lib/chibios/os/rt/src/chsem.o (symbol from plugin)
chSemSignalI                                      .build/obj_karlk90_yaemk/lib/chibios/os/rt/src/chsem.o (symbol from plugin)
chSemSignalWait                                   .build/obj_karlk90_yaemk/lib/chibios/os/rt/src/chsem.o (symbol from plugin)
chSemWait                                         .build/obj_karlk90_yaemk/lib/chibios/os/rt/src/chsem.o (symbol from plugin)
chSemWaitS                                        .build/obj_karlk90_yaemk/lib/chibios/os/rt/src/chsem.o (symbol from plugin)
chSemWaitTimeout                                  .build/obj_karlk90_yaemk/lib/chibios/os/rt/src/chsem.o (symbol from plugin)
chSemWaitTimeoutS                                 .build/obj_karlk90_yaemk/lib/chibios/os/rt/src/chsem.o (symbol from plugin)
chSysGetStatusAndLockX                            .build/obj_karlk90_yaemk/lib/chibios/os/rt/src/chsys.o (symbol from plugin)
chSysHalt                                         .build/obj_karlk90_yaemk/lib/chibios/os/rt/src/chsys.o (symbol from plugin)
                                                  .build/obj_karlk90_yaemk/lib/chibios/os/various/syscalls.o (symbol from plugin)
chSysInit                                         .build/obj_karlk90_yaemk/lib/chibios/os/rt/src/chsys.o (symbol from plugin)
                                                  .build/obj_karlk90_yaemk_moonlanderlike/common/chibios/platform.o (symbol from plugin)
chSysIntegrityCheckI                              .build/obj_karlk90_yaemk/lib/chibios/os/rt/src/chsys.o (symbol from plugin)
chSysIsCounterWithinX                             .build/obj_karlk90_yaemk/lib/chibios/os/rt/src/chsys.o (symbol from plugin)
chSysPolledDelayX                                 .build/obj_karlk90_yaemk/lib/chibios/os/rt/src/chsys.o (symbol from plugin)
chSysRestoreStatusX                               .build/obj_karlk90_yaemk/lib/chibios/os/rt/src/chsys.o (symbol from plugin)
chSysTimerHandlerI                                .build/obj_karlk90_yaemk/lib/chibios/os/rt/src/chsys.o (symbol from plugin)
                                                  .build/obj_karlk90_yaemk/lib/chibios/os/hal/ports/STM32/LLD/TIMv1/hal_st_lld.o (symbol from plugin)
chThdCreate                                       .build/obj_karlk90_yaemk/lib/chibios/os/rt/src/chthreads.o (symbol from plugin)
                                                  .build/obj_karlk90_yaemk/lib/chibios/os/rt/src/chsys.o (symbol from plugin)
chThdCreateI                                      .build/obj_karlk90_yaemk/lib/chibios/os/rt/src/chthreads.o (symbol from plugin)
chThdCreateStatic                                 /tmp/karlk90_yaemk_moonlanderlike.elf.XW0OFi.ltrans1.ltrans.o
                                                  .build/obj_karlk90_yaemk/lib/chibios/os/rt/src/chthreads.o (symbol from plugin)
                                                  .build/obj_karlk90_yaemk_moonlanderlike/serial_usart.a(serial_usart.o)
chThdCreateSuspended                              .build/obj_karlk90_yaemk/lib/chibios/os/rt/src/chthreads.o (symbol from plugin)
chThdCreateSuspendedI                             .build/obj_karlk90_yaemk/lib/chibios/os/rt/src/chthreads.o (symbol from plugin)
chThdDequeueAllI                                  .build/obj_karlk90_yaemk/lib/chibios/os/rt/src/chthreads.o (symbol from plugin)
                                                  .build/obj_karlk90_yaemk/lib/chibios/os/hal/src/hal_queues.o (symbol from plugin)
                                                  .build/obj_karlk90_yaemk/lib/chibios/os/hal/src/hal_buffers.o (symbol from plugin)
                                                  .build/obj_karlk90_yaemk_moonlanderlike/protocol/chibios/usb_driver.o (symbol from plugin)
chThdDequeueNextI                                 .build/obj_karlk90_yaemk/lib/chibios/os/rt/src/chthreads.o (symbol from plugin)
                                                  .build/obj_karlk90_yaemk/lib/chibios/os/hal/src/hal_queues.o (symbol from plugin)
                                                  .build/obj_karlk90_yaemk/lib/chibios/os/hal/src/hal_buffers.o (symbol from plugin)
chThdEnqueueTimeoutS                              .build/obj_karlk90_yaemk/lib/chibios/os/rt/src/chthreads.o (symbol from plugin)
                                                  .build/obj_karlk90_yaemk/lib/chibios/os/hal/src/hal_queues.o (symbol from plugin)
                                                  .build/obj_karlk90_yaemk/lib/chibios/os/hal/src/hal_buffers.o (symbol from plugin)
chThdExit                                         /tmp/karlk90_yaemk_moonlanderlike.elf.XW0OFi.ltrans1.ltrans.o
                                                  .build/obj_karlk90_yaemk/lib/chibios/os/rt/src/chthreads.o (symbol from plugin)
                                                  .build/obj_karlk90_yaemk_moonlanderlike/./lib/chibios/os/common/ports/ARMCMx/compilers/GCC/chcoreasm_v7m.o
chThdExitS                                        .build/obj_karlk90_yaemk/lib/chibios/os/rt/src/chthreads.o (symbol from plugin)
chThdResume                                       .build/obj_karlk90_yaemk/lib/chibios/os/rt/src/chthreads.o (symbol from plugin)
chThdResumeI                                      .build/obj_karlk90_yaemk/lib/chibios/os/rt/src/chthreads.o (symbol from plugin)
                                                  .build/obj_karlk90_yaemk/lib/chibios/os/hal/ports/STM32/LLD/USBv1/hal_usb_lld.o (symbol from plugin)
                                                  .build/obj_karlk90_yaemk/lib/chibios/os/hal/ports/STM32/LLD/I2Cv2/hal_i2c_lld.o (symbol from plugin)
                                                  .build/obj_karlk90_yaemk/lib/chibios/os/hal/src/hal_usb.o (symbol from plugin)
chThdResumeS                                      .build/obj_karlk90_yaemk/lib/chibios/os/rt/src/chthreads.o (symbol from plugin)
chThdSetPriority                                  .build/obj_karlk90_yaemk/lib/chibios/os/rt/src/chthreads.o (symbol from plugin)
chThdSleep                                        /tmp/karlk90_yaemk_moonlanderlike.elf.XW0OFi.ltrans1.ltrans.o
                                                  .build/obj_karlk90_yaemk/lib/chibios/os/rt/src/chthreads.o (symbol from plugin)
                                                  /tmp/karlk90_yaemk_moonlanderlike.elf.XW0OFi.ltrans0.ltrans.o
                                                  .build/obj_karlk90_yaemk/lib/chibios/os/hal/src/hal_usb.o (symbol from plugin)
                                                  .build/obj_karlk90_yaemk/lib/chibios/os/hal/src/hal_flash.o (symbol from plugin)
                                                  .build/obj_karlk90_yaemk_moonlanderlike/protocol/chibios/chibios.o (symbol from plugin)
                                                  .build/obj_karlk90_yaemk_moonlanderlike/protocol/chibios/usb_main.o (symbol from plugin)
                                                  .build/obj_karlk90_yaemk_moonlanderlike/common/chibios/suspend.o (symbol from plugin)
                                                  .build/obj_karlk90_yaemk_moonlanderlike/i2c_master.a(i2c_master.o)
                                                  .build/obj_karlk90_yaemk_moonlanderlike/eeprom_i2c.o (symbol from plugin)
                                                  .build/obj_karlk90_yaemk_moonlanderlike/quantum/split_common/transactions.o (symbol from plugin)
                                                  .build/obj_karlk90_yaemk_moonlanderlike/quantum/split_common/split_util.o (symbol from plugin)
                                                  .build/obj_karlk90_yaemk_moonlanderlike/quantum/matrix_common.o (symbol from plugin)
                                                  .build/obj_karlk90_yaemk_moonlanderlike/quantum/bootmagic/bootmagic_lite.o (symbol from plugin)
                                                  .build/obj_karlk90_yaemk_moonlanderlike/quantum/action_util.o (symbol from plugin)
                                                  .build/obj_karlk90_yaemk_moonlanderlike/quantum/action.o (symbol from plugin)
                                                  .build/obj_karlk90_yaemk_moonlanderlike/quantum/send_string.o (symbol from plugin)
                                                  .build/obj_karlk90_yaemk_moonlanderlike/quantum/quantum.o (symbol from plugin)
                                                  .build/obj_karlk90_yaemk_moonlanderlike/keyboards/karlk90/yaemk/yaemk.o (symbol from plugin)
chThdSleepUntil                                   .build/obj_karlk90_yaemk/lib/chibios/os/rt/src/chthreads.o (symbol from plugin)
chThdSleepUntilWindowed                           .build/obj_karlk90_yaemk/lib/chibios/os/rt/src/chthreads.o (symbol from plugin)
chThdStart                                        .build/obj_karlk90_yaemk/lib/chibios/os/rt/src/chthreads.o (symbol from plugin)
chThdSuspendS                                     .build/obj_karlk90_yaemk/lib/chibios/os/rt/src/chthreads.o (symbol from plugin)
chThdSuspendTimeoutS                              .build/obj_karlk90_yaemk/lib/chibios/os/rt/src/chthreads.o (symbol from plugin)
                                                  .build/obj_karlk90_yaemk/lib/chibios/os/hal/ports/STM32/LLD/I2Cv2/hal_i2c_lld.o (symbol from plugin)
                                                  .build/obj_karlk90_yaemk/lib/chibios/os/hal/src/hal_usb.o (symbol from plugin)
                                                  .build/obj_karlk90_yaemk_moonlanderlike/protocol/chibios/usb_main.o (symbol from plugin)
chThdTerminate                                    .build/obj_karlk90_yaemk/lib/chibios/os/rt/src/chthreads.o (symbol from plugin)
chThdYield                                        .build/obj_karlk90_yaemk/lib/chibios/os/rt/src/chthreads.o (symbol from plugin)
chVTDoResetI                                      /tmp/karlk90_yaemk_moonlanderlike.elf.XW0OFi.ltrans1.ltrans.o
                                                  .build/obj_karlk90_yaemk/lib/chibios/os/rt/src/chvt.o (symbol from plugin)
                                                  /tmp/karlk90_yaemk_moonlanderlike.elf.XW0OFi.ltrans0.ltrans.o
                                                  .build/obj_karlk90_yaemk/lib/chibios/os/rt/src/chschd.o (symbol from plugin)
                                                  .build/obj_karlk90_yaemk_moonlanderlike/protocol/chibios/usb_main.o (symbol from plugin)
chVTDoSetI                                        /tmp/karlk90_yaemk_moonlanderlike.elf.XW0OFi.ltrans1.ltrans.o
                                                  .build/obj_karlk90_yaemk/lib/chibios/os/rt/src/chvt.o (symbol from plugin)
                                                  /tmp/karlk90_yaemk_moonlanderlike.elf.XW0OFi.ltrans0.ltrans.o
                                                  .build/obj_karlk90_yaemk/lib/chibios/os/rt/src/chschd.o (symbol from plugin)
                                                  .build/obj_karlk90_yaemk_moonlanderlike/protocol/chibios/usb_main.o (symbol from plugin)
chVTDoTickI                                       .build/obj_karlk90_yaemk/lib/chibios/os/rt/src/chvt.o (symbol from plugin)
                                                  .build/obj_karlk90_yaemk/lib/chibios/os/rt/src/chsys.o (symbol from plugin)
ch_idle_thread_wa                                 .build/obj_karlk90_yaemk/lib/chibios/os/rt/src/chsys.o (symbol from plugin)
ch_memcore                                        /tmp/karlk90_yaemk_moonlanderlike.elf.XW0OFi.ltrans0.ltrans.o
                                                  .build/obj_karlk90_yaemk_moonlanderlike/./lib/chibios/os/oslib/src/chmemcore.o (symbol from plugin)
                                                  /tmp/karlk90_yaemk_moonlanderlike.elf.XW0OFi.ltrans1.ltrans.o
chcond.c.b12a22ea                                 /tmp/cc8jRkpf.debug.temp.o
chcore.c.bf1a8067                                 /tmp/ccstMr4o.debug.temp.o
chcore_v7m.c.f14f15d3                             /tmp/ccC350TJ.debug.temp.o
                                                  /tmp/karlk90_yaemk_moonlanderlike.elf.XW0OFi.ltrans1.ltrans.o
                                                  /tmp/karlk90_yaemk_moonlanderlike.elf.XW0OFi.ltrans0.ltrans.o
chdebug.c.fe19586a                                /tmp/ccp7JPEI.debug.temp.o
chdelegates.c.cfbaa51a                            /tmp/ccgVkbea.debug.temp.o
chdynamic.c.3fd874aa                              /tmp/ccGUYIde.debug.temp.o
chevents.c.b3c94cac                               /tmp/ccqpTBta.debug.temp.o
                                                  /tmp/karlk90_yaemk_moonlanderlike.elf.XW0OFi.ltrans1.ltrans.o
chfactory.c.09820a7a                              /tmp/ccg7baGU.debug.temp.o
chibios.c.8916702a                                /tmp/ccQxHeRz.debug.temp.o
                                                  /tmp/karlk90_yaemk_moonlanderlike.elf.XW0OFi.ltrans1.ltrans.o
                                                  /tmp/karlk90_yaemk_moonlanderlike.elf.XW0OFi.ltrans0.ltrans.o
chibios_driver                                    .build/obj_karlk90_yaemk_moonlanderlike/protocol/chibios/chibios.o (symbol from plugin)
chmboxes.c.a22c3deb                               /tmp/cc4mht7u.debug.temp.o
chmemcore.c.047cf026                              /tmp/ccpJSHAY.debug.temp.o
                                                  /tmp/karlk90_yaemk_moonlanderlike.elf.XW0OFi.ltrans1.ltrans.o
                                                  /tmp/karlk90_yaemk_moonlanderlike.elf.XW0OFi.ltrans0.ltrans.o
chmemheaps.c.e9a2899e                             /tmp/ccoFtdrQ.debug.temp.o
chmempools.c.87dd417a                             /tmp/ccRcYMk1.debug.temp.o
chmsg.c.5c4bf2a9                                  /tmp/cc5DI4mx.debug.temp.o
chmtx.c.678348f4                                  /tmp/ccFBVBaf.debug.temp.o
                                                  /tmp/karlk90_yaemk_moonlanderlike.elf.XW0OFi.ltrans0.ltrans.o
chobjcaches.c.f3ab4630                            /tmp/ccdKJVl4.debug.temp.o
chpipes.c.e8b404d4                                /tmp/ccmXFPTE.debug.temp.o
chprintf                                          .build/obj_karlk90_yaemk/lib/chibios/os/hal/lib/streams/chprintf.o (symbol from plugin)
chprintf.c.96607f1b                               /tmp/cc1AuwI1.debug.temp.o
chregistry.c.adc27b45                             /tmp/ccjgVyNu.debug.temp.o
chschd.c.6ae568cf                                 /tmp/cczusIdJ.debug.temp.o
                                                  /tmp/karlk90_yaemk_moonlanderlike.elf.XW0OFi.ltrans1.ltrans.o
                                                  /tmp/karlk90_yaemk_moonlanderlike.elf.XW0OFi.ltrans0.ltrans.o
chsem.c.326b8847                                  /tmp/ccNwgW33.debug.temp.o
chsnprintf                                        .build/obj_karlk90_yaemk/lib/chibios/os/hal/lib/streams/chprintf.o (symbol from plugin)
chstats.c.d99567c5                                /tmp/ccPDrbvp.debug.temp.o
chsys.c.d7353a55                                  /tmp/ccQytxMT.debug.temp.o
                                                  /tmp/karlk90_yaemk_moonlanderlike.elf.XW0OFi.ltrans1.ltrans.o
                                                  /tmp/karlk90_yaemk_moonlanderlike.elf.XW0OFi.ltrans0.ltrans.o
chthreads.c.5ae5b348                              /tmp/ccQHHhYP.debug.temp.o
                                                  /tmp/karlk90_yaemk_moonlanderlike.elf.XW0OFi.ltrans1.ltrans.o
                                                  /tmp/karlk90_yaemk_moonlanderlike.elf.XW0OFi.ltrans0.ltrans.o
chtm.c.af812e4f                                   /tmp/ccIiNeEE.debug.temp.o
chtrace.c.44b77182                                /tmp/ccP2vrAQ.debug.temp.o
chvprintf                                         .build/obj_karlk90_yaemk/lib/chibios/os/hal/lib/streams/chprintf.o (symbol from plugin)
chvsnprintf                                       .build/obj_karlk90_yaemk/lib/chibios/os/hal/lib/streams/chprintf.o (symbol from plugin)
chvt.c.baff7889                                   /tmp/ccl8lVpT.debug.temp.o
                                                  /tmp/karlk90_yaemk_moonlanderlike.elf.XW0OFi.ltrans1.ltrans.o
                                                  /tmp/karlk90_yaemk_moonlanderlike.elf.XW0OFi.ltrans0.ltrans.o
cleanup_glue                                      /usr/lib/gcc/arm-none-eabi/10.3.1/../../../arm-none-eabi/lib/thumb/v7e-m+fp/hard/libg_nano.a(lib_a-reent.o)
clear_keyboard                                    .build/obj_karlk90_yaemk_moonlanderlike/quantum/action.o (symbol from plugin)
                                                  .build/obj_karlk90_yaemk_moonlanderlike/quantum/process_keycode/process_magic.o (symbol from plugin)
                                                  .build/obj_karlk90_yaemk_moonlanderlike/quantum/action_tapping.o (symbol from plugin)
                                                  .build/obj_karlk90_yaemk_moonlanderlike/quantum/quantum.o (symbol from plugin)
clear_keyboard_but_mods                           .build/obj_karlk90_yaemk_moonlanderlike/quantum/action.o (symbol from plugin)
clear_keyboard_but_mods_and_keys                  .build/obj_karlk90_yaemk_moonlanderlike/quantum/action.o (symbol from plugin)
                                                  .build/obj_karlk90_yaemk_moonlanderlike/quantum/action_layer.o (symbol from plugin)
clear_keys                                        .build/obj_karlk90_yaemk_moonlanderlike/quantum/action_util.o (symbol from plugin)
clear_keys_from_report                            .build/obj_karlk90_yaemk_moonlanderlike/common/report.o (symbol from plugin)
                                                  .build/obj_karlk90_yaemk_moonlanderlike/common/chibios/suspend.o (symbol from plugin)
                                                  .build/obj_karlk90_yaemk_moonlanderlike/quantum/action_util.o (symbol from plugin)
                                                  .build/obj_karlk90_yaemk_moonlanderlike/quantum/action.o (symbol from plugin)
clear_macro_mods                                  .build/obj_karlk90_yaemk_moonlanderlike/quantum/action_util.o (symbol from plugin)
                                                  .build/obj_karlk90_yaemk_moonlanderlike/quantum/action.o (symbol from plugin)
clear_mods                                        .build/obj_karlk90_yaemk_moonlanderlike/quantum/action_util.o (symbol from plugin)
                                                  .build/obj_karlk90_yaemk_moonlanderlike/common/chibios/suspend.o (symbol from plugin)
                                                  .build/obj_karlk90_yaemk_moonlanderlike/quantum/action.o (symbol from plugin)
clear_oneshot_layer_state                         .build/obj_karlk90_yaemk_moonlanderlike/quantum/action_util.o (symbol from plugin)
                                                  .build/obj_karlk90_yaemk_moonlanderlike/quantum/action.o (symbol from plugin)
clear_oneshot_locked_mods                         .build/obj_karlk90_yaemk_moonlanderlike/quantum/action_util.o (symbol from plugin)
clear_oneshot_mods                                .build/obj_karlk90_yaemk_moonlanderlike/quantum/action_util.o (symbol from plugin)
                                                  .build/obj_karlk90_yaemk_moonlanderlike/quantum/action.o (symbol from plugin)
clear_weak_mods                                   .build/obj_karlk90_yaemk_moonlanderlike/quantum/action_util.o (symbol from plugin)
                                                  .build/obj_karlk90_yaemk_moonlanderlike/common/chibios/suspend.o (symbol from plugin)
                                                  .build/obj_karlk90_yaemk_moonlanderlike/quantum/action.o (symbol from plugin)
color.c.a70627cf                                  /tmp/ccQzfpqF.debug.temp.o
                                                  /tmp/karlk90_yaemk_moonlanderlike.elf.XW0OFi.ltrans0.ltrans.o
console_task                                      .build/obj_karlk90_yaemk_moonlanderlike/protocol/chibios/usb_main.o (symbol from plugin)
                                                  .build/obj_karlk90_yaemk_moonlanderlike/protocol/chibios/chibios.o (symbol from plugin)
crc.c.7176c176                                    /tmp/cc2w2gDW.debug.temp.o
                                                  /tmp/karlk90_yaemk_moonlanderlike.elf.XW0OFi.ltrans0.ltrans.o
crc8                                              .build/obj_karlk90_yaemk_moonlanderlike/crc.o (symbol from plugin)
                                                  .build/obj_karlk90_yaemk_moonlanderlike/quantum/split_common/transactions.o (symbol from plugin)
crc_init                                          .build/obj_karlk90_yaemk_moonlanderlike/crc.o (symbol from plugin)
                                                  .build/obj_karlk90_yaemk_moonlanderlike/quantum/keyboard.o (symbol from plugin)
crot                                              .build/obj_karlk90_yaemk_moonlanderlike/ssd1306_sh1106.o (symbol from plugin)
crt1.c.44019e53                                   /tmp/ccnMlElZ.debug.temp.o
                                                  /tmp/karlk90_yaemk_moonlanderlike.elf.XW0OFi.ltrans1.ltrans.o
custom_color.c.73c89579                           /tmp/cc0I4f7X.debug.temp.o
                                                  /tmp/karlk90_yaemk_moonlanderlike.elf.XW0OFi.ltrans1.ltrans.o
                                                  /tmp/karlk90_yaemk_moonlanderlike.elf.XW0OFi.ltrans0.ltrans.o
debounce                                          .build/obj_karlk90_yaemk_moonlanderlike/quantum/debounce/asym_eager_defer_pk.o (symbol from plugin)
                                                  .build/obj_karlk90_yaemk_moonlanderlike/quantum/matrix.o (symbol from plugin)
                                                  .build/obj_karlk90_yaemk_moonlanderlike/quantum/matrix_common.o (symbol from plugin)
debounce_active                                   .build/obj_karlk90_yaemk_moonlanderlike/quantum/debounce/asym_eager_defer_pk.o (symbol from plugin)
                                                  .build/obj_karlk90_yaemk_moonlanderlike/quantum/matrix_common.o (symbol from plugin)
debounce_free                                     .build/obj_karlk90_yaemk_moonlanderlike/quantum/debounce/asym_eager_defer_pk.o (symbol from plugin)
debounce_init                                     .build/obj_karlk90_yaemk_moonlanderlike/quantum/debounce/asym_eager_defer_pk.o (symbol from plugin)
                                                  .build/obj_karlk90_yaemk_moonlanderlike/quantum/matrix.o (symbol from plugin)
                                                  .build/obj_karlk90_yaemk_moonlanderlike/quantum/matrix_common.o (symbol from plugin)
debug.c.0120a514                                  /tmp/ccmAVrlH.debug.temp.o
                                                  /tmp/karlk90_yaemk_moonlanderlike.elf.XW0OFi.ltrans0.ltrans.o
debug_action                                      .build/obj_karlk90_yaemk_moonlanderlike/quantum/action.o (symbol from plugin)
debug_config                                      /tmp/karlk90_yaemk_moonlanderlike.elf.XW0OFi.ltrans0.ltrans.o
                                                  .build/obj_karlk90_yaemk_moonlanderlike/quantum/logging/debug.o (symbol from plugin)
                                                  /tmp/karlk90_yaemk_moonlanderlike.elf.XW0OFi.ltrans1.ltrans.o
                                                  .build/obj_karlk90_yaemk_moonlanderlike/common/report.o (symbol from plugin)
                                                  .build/obj_karlk90_yaemk_moonlanderlike/common/host.o (symbol from plugin)
                                                  .build/obj_karlk90_yaemk_moonlanderlike/serial_usart.a(serial_usart.o)
                                                  .build/obj_karlk90_yaemk_moonlanderlike/quantum/rgb_matrix/rgb_matrix.o (symbol from plugin)
                                                  .build/obj_karlk90_yaemk_moonlanderlike/quantum/mousekey.o (symbol from plugin)
                                                  .build/obj_karlk90_yaemk_moonlanderlike/quantum/split_common/transactions.o (symbol from plugin)
                                                  .build/obj_karlk90_yaemk_moonlanderlike/quantum/split_common/split_util.o (symbol from plugin)
                                                  .build/obj_karlk90_yaemk_moonlanderlike/quantum/bootmagic/magic.o (symbol from plugin)
                                                  .build/obj_karlk90_yaemk_moonlanderlike/quantum/keyboard.o (symbol from plugin)
                                                  .build/obj_karlk90_yaemk_moonlanderlike/quantum/action_util.o (symbol from plugin)
                                                  .build/obj_karlk90_yaemk_moonlanderlike/quantum/quantum.o (symbol from plugin)
                                                  .build/obj_karlk90_yaemk_moonlanderlike/keyboards/karlk90/yaemk/yaemk.o (symbol from plugin)
debug_event                                       .build/obj_karlk90_yaemk_moonlanderlike/quantum/action.o (symbol from plugin)
                                                  .build/obj_karlk90_yaemk_moonlanderlike/quantum/action_tapping.o (symbol from plugin)
debug_record                                      .build/obj_karlk90_yaemk_moonlanderlike/quantum/action.o (symbol from plugin)
                                                  .build/obj_karlk90_yaemk_moonlanderlike/quantum/action_tapping.o (symbol from plugin)
default_layer_and                                 .build/obj_karlk90_yaemk_moonlanderlike/quantum/action_layer.o (symbol from plugin)
                                                  .build/obj_karlk90_yaemk_moonlanderlike/quantum/action.o (symbol from plugin)
default_layer_debug                               /tmp/karlk90_yaemk_moonlanderlike.elf.XW0OFi.ltrans0.ltrans.o
                                                  .build/obj_karlk90_yaemk_moonlanderlike/quantum/action_layer.o (symbol from plugin)
                                                  .build/obj_karlk90_yaemk_moonlanderlike/quantum/action.o (symbol from plugin)
default_layer_or                                  .build/obj_karlk90_yaemk_moonlanderlike/quantum/action_layer.o (symbol from plugin)
                                                  .build/obj_karlk90_yaemk_moonlanderlike/quantum/action.o (symbol from plugin)
default_layer_set                                 .build/obj_karlk90_yaemk_moonlanderlike/quantum/action_layer.o (symbol from plugin)
                                                  .build/obj_karlk90_yaemk_moonlanderlike/quantum/bootmagic/magic.o (symbol from plugin)
                                                  .build/obj_karlk90_yaemk_moonlanderlike/quantum/action.o (symbol from plugin)
                                                  .build/obj_karlk90_yaemk_moonlanderlike/quantum/quantum.o (symbol from plugin)
default_layer_state                               .build/obj_karlk90_yaemk_moonlanderlike/quantum/action_layer.o (symbol from plugin)
                                                  .build/obj_karlk90_yaemk_moonlanderlike/quantum/split_common/transactions.o (symbol from plugin)
                                                  .build/obj_karlk90_yaemk_moonlanderlike/quantum/eeconfig.o (symbol from plugin)
default_layer_state_set_kb                        .build/obj_karlk90_yaemk_moonlanderlike/quantum/action_layer.o (symbol from plugin)
default_layer_state_set_user                      .build/obj_karlk90_yaemk_moonlanderlike/quantum/action_layer.o (symbol from plugin)
default_layer_xor                                 .build/obj_karlk90_yaemk_moonlanderlike/quantum/action_layer.o (symbol from plugin)
                                                  .build/obj_karlk90_yaemk_moonlanderlike/quantum/action.o (symbol from plugin)
del_key                                           .build/obj_karlk90_yaemk_moonlanderlike/quantum/action_util.o (symbol from plugin)
del_key_bit                                       .build/obj_karlk90_yaemk_moonlanderlike/common/report.o (symbol from plugin)
del_key_byte                                      .build/obj_karlk90_yaemk_moonlanderlike/common/report.o (symbol from plugin)
del_key_from_report                               .build/obj_karlk90_yaemk_moonlanderlike/common/report.o (symbol from plugin)
                                                  .build/obj_karlk90_yaemk_moonlanderlike/quantum/process_keycode/process_grave_esc.o (symbol from plugin)
                                                  .build/obj_karlk90_yaemk_moonlanderlike/quantum/action_util.o (symbol from plugin)
                                                  .build/obj_karlk90_yaemk_moonlanderlike/quantum/action.o (symbol from plugin)
del_macro_mods                                    .build/obj_karlk90_yaemk_moonlanderlike/quantum/action_util.o (symbol from plugin)
del_mods                                          .build/obj_karlk90_yaemk_moonlanderlike/quantum/action_util.o (symbol from plugin)
                                                  .build/obj_karlk90_yaemk_moonlanderlike/quantum/action.o (symbol from plugin)
                                                  .build/obj_karlk90_yaemk_moonlanderlike/keyboards/karlk90/yaemk/keymaps/moonlanderlike/keymap.o (symbol from plugin)
del_oneshot_mods                                  .build/obj_karlk90_yaemk_moonlanderlike/quantum/action_util.o (symbol from plugin)
del_weak_mods                                     .build/obj_karlk90_yaemk_moonlanderlike/quantum/action_util.o (symbol from plugin)
                                                  .build/obj_karlk90_yaemk_moonlanderlike/quantum/action.o (symbol from plugin)
dirty_rgb_matrix.lto_priv.0                       /tmp/karlk90_yaemk_moonlanderlike.elf.XW0OFi.ltrans0.ltrans.o
                                                  /tmp/karlk90_yaemk_moonlanderlike.elf.XW0OFi.ltrans1.ltrans.o
disable_action_cache                              /tmp/karlk90_yaemk_moonlanderlike.elf.XW0OFi.ltrans0.ltrans.o
                                                  .build/obj_karlk90_yaemk_moonlanderlike/quantum/action.o (symbol from plugin)
                                                  .build/obj_karlk90_yaemk_moonlanderlike/quantum/action_layer.o (symbol from plugin)
                                                  .build/obj_karlk90_yaemk_moonlanderlike/quantum/quantum.o (symbol from plugin)
disable_jtag                                      .build/obj_karlk90_yaemk_moonlanderlike/quantum/keyboard.o (symbol from plugin)
display_on.5.lto_priv.0                           /tmp/karlk90_yaemk_moonlanderlike.elf.XW0OFi.ltrans0.ltrans.o
                                                  /tmp/karlk90_yaemk_moonlanderlike.elf.XW0OFi.ltrans1.ltrans.o
dma.lto_priv.0                                    /tmp/karlk90_yaemk_moonlanderlike.elf.XW0OFi.ltrans0.ltrans.o
                                                  /tmp/karlk90_yaemk_moonlanderlike.elf.XW0OFi.ltrans1.ltrans.o
dmaInit                                           .build/obj_karlk90_yaemk/lib/chibios/os/hal/ports/STM32/LLD/DMAv1/stm32_dma.o (symbol from plugin)
                                                  .build/obj_karlk90_yaemk/lib/chibios/os/hal/ports/STM32/STM32F3xx/hal_lld.o (symbol from plugin)
dmaServeInterrupt                                 .build/obj_karlk90_yaemk/lib/chibios/os/hal/ports/STM32/LLD/DMAv1/stm32_dma.o (symbol from plugin)
dmaStreamAlloc                                    .build/obj_karlk90_yaemk/lib/chibios/os/hal/ports/STM32/LLD/DMAv1/stm32_dma.o (symbol from plugin)
                                                  .build/obj_karlk90_yaemk_moonlanderlike/ws2812_pwm.o (symbol from plugin)
dmaStreamAllocI                                   .build/obj_karlk90_yaemk/lib/chibios/os/hal/ports/STM32/LLD/DMAv1/stm32_dma.o (symbol from plugin)
                                                  .build/obj_karlk90_yaemk/lib/chibios/os/hal/ports/STM32/LLD/I2Cv2/hal_i2c_lld.o (symbol from plugin)
dmaStreamFree                                     .build/obj_karlk90_yaemk/lib/chibios/os/hal/ports/STM32/LLD/DMAv1/stm32_dma.o (symbol from plugin)
dmaStreamFreeI                                    .build/obj_karlk90_yaemk/lib/chibios/os/hal/ports/STM32/LLD/DMAv1/stm32_dma.o (symbol from plugin)
                                                  .build/obj_karlk90_yaemk/lib/chibios/os/hal/ports/STM32/LLD/I2Cv2/hal_i2c_lld.o (symbol from plugin)
driver.lto_priv.0                                 /tmp/karlk90_yaemk_moonlanderlike.elf.XW0OFi.ltrans0.ltrans.o
                                                  /tmp/karlk90_yaemk_moonlanderlike.elf.XW0OFi.ltrans1.ltrans.o
drivers.lto_priv.0                                /tmp/karlk90_yaemk_moonlanderlike.elf.XW0OFi.ltrans0.ltrans.o
                                                  /tmp/karlk90_yaemk_moonlanderlike.elf.XW0OFi.ltrans1.ltrans.o
dummy                                             .build/obj_karlk90_yaemk_moonlanderlike/quantum/split_common/transactions.o (symbol from plugin)
dynamic_keymap.c.d9b61d0c                         /tmp/ccXHZlTu.debug.temp.o
                                                  /tmp/karlk90_yaemk_moonlanderlike.elf.XW0OFi.ltrans1.ltrans.o
                                                  /tmp/karlk90_yaemk_moonlanderlike.elf.XW0OFi.ltrans0.ltrans.o
dynamic_keymap_get_buffer                         .build/obj_karlk90_yaemk_moonlanderlike/quantum/dynamic_keymap.o (symbol from plugin)
                                                  .build/obj_karlk90_yaemk_moonlanderlike/quantum/via.o (symbol from plugin)
dynamic_keymap_get_keycode                        .build/obj_karlk90_yaemk_moonlanderlike/quantum/dynamic_keymap.o (symbol from plugin)
                                                  .build/obj_karlk90_yaemk_moonlanderlike/quantum/via.o (symbol from plugin)
dynamic_keymap_get_layer_count                    .build/obj_karlk90_yaemk_moonlanderlike/quantum/dynamic_keymap.o (symbol from plugin)
                                                  .build/obj_karlk90_yaemk_moonlanderlike/quantum/via.o (symbol from plugin)
dynamic_keymap_key_to_eeprom_address              .build/obj_karlk90_yaemk_moonlanderlike/quantum/dynamic_keymap.o (symbol from plugin)
dynamic_keymap_macro_get_buffer                   .build/obj_karlk90_yaemk_moonlanderlike/quantum/dynamic_keymap.o (symbol from plugin)
                                                  .build/obj_karlk90_yaemk_moonlanderlike/quantum/via.o (symbol from plugin)
dynamic_keymap_macro_get_buffer_size              .build/obj_karlk90_yaemk_moonlanderlike/quantum/dynamic_keymap.o (symbol from plugin)
                                                  .build/obj_karlk90_yaemk_moonlanderlike/quantum/via.o (symbol from plugin)
dynamic_keymap_macro_get_count                    .build/obj_karlk90_yaemk_moonlanderlike/quantum/dynamic_keymap.o (symbol from plugin)
                                                  .build/obj_karlk90_yaemk_moonlanderlike/quantum/via.o (symbol from plugin)
dynamic_keymap_macro_reset                        .build/obj_karlk90_yaemk_moonlanderlike/quantum/dynamic_keymap.o (symbol from plugin)
                                                  .build/obj_karlk90_yaemk_moonlanderlike/quantum/via.o (symbol from plugin)
dynamic_keymap_macro_send                         .build/obj_karlk90_yaemk_moonlanderlike/quantum/dynamic_keymap.o (symbol from plugin)
                                                  .build/obj_karlk90_yaemk_moonlanderlike/quantum/via.o (symbol from plugin)
dynamic_keymap_macro_set_buffer                   .build/obj_karlk90_yaemk_moonlanderlike/quantum/dynamic_keymap.o (symbol from plugin)
                                                  .build/obj_karlk90_yaemk_moonlanderlike/quantum/via.o (symbol from plugin)
dynamic_keymap_reset                              /tmp/karlk90_yaemk_moonlanderlike.elf.XW0OFi.ltrans1.ltrans.o
                                                  .build/obj_karlk90_yaemk_moonlanderlike/quantum/dynamic_keymap.o (symbol from plugin)
                                                  /tmp/karlk90_yaemk_moonlanderlike.elf.XW0OFi.ltrans0.ltrans.o
                                                  .build/obj_karlk90_yaemk_moonlanderlike/quantum/via.o (symbol from plugin)
dynamic_keymap_set_buffer                         .build/obj_karlk90_yaemk_moonlanderlike/quantum/dynamic_keymap.o (symbol from plugin)
                                                  .build/obj_karlk90_yaemk_moonlanderlike/quantum/via.o (symbol from plugin)
dynamic_keymap_set_keycode                        .build/obj_karlk90_yaemk_moonlanderlike/quantum/dynamic_keymap.o (symbol from plugin)
                                                  .build/obj_karlk90_yaemk_moonlanderlike/quantum/via.o (symbol from plugin)
early_hardware_init_post                          .build/obj_karlk90_yaemk_moonlanderlike/protocol/chibios/chibios.o (symbol from plugin)
early_hardware_init_pre                           .build/obj_karlk90_yaemk_moonlanderlike/protocol/chibios/chibios.o (symbol from plugin)
eeconfig.c.6c5dd725                               /tmp/ccncmTqY.debug.temp.o
                                                  /tmp/karlk90_yaemk_moonlanderlike.elf.XW0OFi.ltrans0.ltrans.o
eeconfig_debug_rgb_matrix                         .build/obj_karlk90_yaemk_moonlanderlike/quantum/rgb_matrix/rgb_matrix.o (symbol from plugin)
eeconfig_disable                                  .build/obj_karlk90_yaemk_moonlanderlike/quantum/eeconfig.o (symbol from plugin)
                                                  .build/obj_karlk90_yaemk_moonlanderlike/quantum/bootmagic/bootmagic_lite.o (symbol from plugin)
eeconfig_enable                                   .build/obj_karlk90_yaemk_moonlanderlike/quantum/eeconfig.o (symbol from plugin)
eeconfig_init                                     .build/obj_karlk90_yaemk_moonlanderlike/quantum/eeconfig.o (symbol from plugin)
                                                  .build/obj_karlk90_yaemk_moonlanderlike/quantum/rgb_matrix/rgb_matrix.o (symbol from plugin)
                                                  .build/obj_karlk90_yaemk_moonlanderlike/quantum/bootmagic/magic.o (symbol from plugin)
                                                  .build/obj_karlk90_yaemk_moonlanderlike/quantum/quantum.o (symbol from plugin)
eeconfig_init_kb                                  .build/obj_karlk90_yaemk_moonlanderlike/quantum/eeconfig.o (symbol from plugin)
eeconfig_init_quantum                             .build/obj_karlk90_yaemk_moonlanderlike/quantum/eeconfig.o (symbol from plugin)
eeconfig_init_user                                .build/obj_karlk90_yaemk_moonlanderlike/quantum/eeconfig.o (symbol from plugin)
eeconfig_init_via                                 /tmp/karlk90_yaemk_moonlanderlike.elf.XW0OFi.ltrans1.ltrans.o
                                                  .build/obj_karlk90_yaemk_moonlanderlike/quantum/via.o (symbol from plugin)
                                                  /tmp/karlk90_yaemk_moonlanderlike.elf.XW0OFi.ltrans0.ltrans.o
                                                  .build/obj_karlk90_yaemk_moonlanderlike/quantum/eeconfig.o (symbol from plugin)
eeconfig_is_disabled                              .build/obj_karlk90_yaemk_moonlanderlike/quantum/eeconfig.o (symbol from plugin)
eeconfig_is_enabled                               .build/obj_karlk90_yaemk_moonlanderlike/quantum/eeconfig.o (symbol from plugin)
                                                  .build/obj_karlk90_yaemk_moonlanderlike/quantum/rgb_matrix/rgb_matrix.o (symbol from plugin)
                                                  .build/obj_karlk90_yaemk_moonlanderlike/quantum/bootmagic/magic.o (symbol from plugin)
eeconfig_read_audio                               .build/obj_karlk90_yaemk_moonlanderlike/quantum/eeconfig.o (symbol from plugin)
eeconfig_read_debug                               .build/obj_karlk90_yaemk_moonlanderlike/quantum/eeconfig.o (symbol from plugin)
                                                  .build/obj_karlk90_yaemk_moonlanderlike/quantum/bootmagic/magic.o (symbol from plugin)
eeconfig_read_default_layer                       .build/obj_karlk90_yaemk_moonlanderlike/quantum/eeconfig.o (symbol from plugin)
                                                  .build/obj_karlk90_yaemk_moonlanderlike/quantum/bootmagic/magic.o (symbol from plugin)
eeconfig_read_handedness                          .build/obj_karlk90_yaemk_moonlanderlike/quantum/eeconfig.o (symbol from plugin)
eeconfig_read_haptic                              .build/obj_karlk90_yaemk_moonlanderlike/quantum/eeconfig.o (symbol from plugin)
eeconfig_read_kb                                  .build/obj_karlk90_yaemk_moonlanderlike/quantum/eeconfig.o (symbol from plugin)
eeconfig_read_keymap                              .build/obj_karlk90_yaemk_moonlanderlike/quantum/eeconfig.o (symbol from plugin)
                                                  .build/obj_karlk90_yaemk_moonlanderlike/quantum/process_keycode/process_magic.o (symbol from plugin)
                                                  .build/obj_karlk90_yaemk_moonlanderlike/quantum/bootmagic/magic.o (symbol from plugin)
eeconfig_read_user                                .build/obj_karlk90_yaemk_moonlanderlike/quantum/eeconfig.o (symbol from plugin)
eeconfig_update_audio                             .build/obj_karlk90_yaemk_moonlanderlike/quantum/eeconfig.o (symbol from plugin)
eeconfig_update_debug                             .build/obj_karlk90_yaemk_moonlanderlike/quantum/eeconfig.o (symbol from plugin)
eeconfig_update_default_layer                     .build/obj_karlk90_yaemk_moonlanderlike/quantum/eeconfig.o (symbol from plugin)
                                                  .build/obj_karlk90_yaemk_moonlanderlike/quantum/quantum.o (symbol from plugin)
eeconfig_update_handedness                        .build/obj_karlk90_yaemk_moonlanderlike/quantum/eeconfig.o (symbol from plugin)
                                                  .build/obj_karlk90_yaemk_moonlanderlike/quantum/process_keycode/process_magic.o (symbol from plugin)
eeconfig_update_haptic                            .build/obj_karlk90_yaemk_moonlanderlike/quantum/eeconfig.o (symbol from plugin)
eeconfig_update_kb                                .build/obj_karlk90_yaemk_moonlanderlike/quantum/eeconfig.o (symbol from plugin)
eeconfig_update_keymap                            .build/obj_karlk90_yaemk_moonlanderlike/quantum/eeconfig.o (symbol from plugin)
                                                  .build/obj_karlk90_yaemk_moonlanderlike/quantum/process_keycode/process_magic.o (symbol from plugin)
                                                  .build/obj_karlk90_yaemk_moonlanderlike/quantum/keyboard.o (symbol from plugin)
                                                  .build/obj_karlk90_yaemk_moonlanderlike/quantum/action_util.o (symbol from plugin)
eeconfig_update_rgb_matrix                        .build/obj_karlk90_yaemk_moonlanderlike/quantum/rgb_matrix/rgb_matrix.o (symbol from plugin)
eeconfig_update_rgb_matrix_default                .build/obj_karlk90_yaemk_moonlanderlike/quantum/rgb_matrix/rgb_matrix.o (symbol from plugin)
eeconfig_update_user                              .build/obj_karlk90_yaemk_moonlanderlike/quantum/eeconfig.o (symbol from plugin)
eeprom_driver.c.5238bfca                          /tmp/ccYm6amU.debug.temp.o
                                                  /tmp/karlk90_yaemk_moonlanderlike.elf.XW0OFi.ltrans1.ltrans.o
                                                  /tmp/karlk90_yaemk_moonlanderlike.elf.XW0OFi.ltrans0.ltrans.o
eeprom_driver_erase                               .build/obj_karlk90_yaemk_moonlanderlike/eeprom_i2c.o (symbol from plugin)
                                                  .build/obj_karlk90_yaemk_moonlanderlike/quantum/eeconfig.o (symbol from plugin)
eeprom_driver_init                                .build/obj_karlk90_yaemk_moonlanderlike/eeprom_i2c.o (symbol from plugin)
                                                  .build/obj_karlk90_yaemk_moonlanderlike/quantum/keyboard.o (symbol from plugin)
eeprom_i2c.c.3c034042                             /tmp/ccV2JrjB.debug.temp.o
                                                  /tmp/karlk90_yaemk_moonlanderlike.elf.XW0OFi.ltrans1.ltrans.o
                                                  /tmp/karlk90_yaemk_moonlanderlike.elf.XW0OFi.ltrans0.ltrans.o
eeprom_read_block                                 /tmp/karlk90_yaemk_moonlanderlike.elf.XW0OFi.ltrans0.ltrans.o
                                                  .build/obj_karlk90_yaemk_moonlanderlike/eeprom_i2c.o (symbol from plugin)
                                                  .build/obj_karlk90_yaemk_moonlanderlike/quantum/rgb_matrix/rgb_matrix.o (symbol from plugin)
                                                  .build/obj_karlk90_yaemk_moonlanderlike/eeprom_driver.o (symbol from plugin)
eeprom_read_byte                                  /tmp/karlk90_yaemk_moonlanderlike.elf.XW0OFi.ltrans0.ltrans.o
                                                  .build/obj_karlk90_yaemk_moonlanderlike/eeprom_driver.o (symbol from plugin)
                                                  /tmp/karlk90_yaemk_moonlanderlike.elf.XW0OFi.ltrans1.ltrans.o
                                                  .build/obj_karlk90_yaemk_moonlanderlike/quantum/dynamic_keymap.o (symbol from plugin)
                                                  .build/obj_karlk90_yaemk_moonlanderlike/quantum/via.o (symbol from plugin)
                                                  .build/obj_karlk90_yaemk_moonlanderlike/quantum/eeconfig.o (symbol from plugin)
eeprom_read_dword                                 .build/obj_karlk90_yaemk_moonlanderlike/eeprom_driver.o (symbol from plugin)
                                                  .build/obj_karlk90_yaemk_moonlanderlike/quantum/eeconfig.o (symbol from plugin)
eeprom_read_word                                  .build/obj_karlk90_yaemk_moonlanderlike/eeprom_driver.o (symbol from plugin)
                                                  .build/obj_karlk90_yaemk_moonlanderlike/quantum/eeconfig.o (symbol from plugin)
eeprom_update_block                               .build/obj_karlk90_yaemk_moonlanderlike/eeprom_driver.o (symbol from plugin)
                                                  .build/obj_karlk90_yaemk_moonlanderlike/quantum/rgb_matrix/rgb_matrix.o (symbol from plugin)
eeprom_update_byte                                /tmp/karlk90_yaemk_moonlanderlike.elf.XW0OFi.ltrans0.ltrans.o
                                                  .build/obj_karlk90_yaemk_moonlanderlike/eeprom_driver.o (symbol from plugin)
                                                  .build/obj_karlk90_yaemk_moonlanderlike/quantum/dynamic_keymap.o (symbol from plugin)
                                                  .build/obj_karlk90_yaemk_moonlanderlike/quantum/via.o (symbol from plugin)
                                                  .build/obj_karlk90_yaemk_moonlanderlike/quantum/eeconfig.o (symbol from plugin)
eeprom_update_dword                               .build/obj_karlk90_yaemk_moonlanderlike/eeprom_driver.o (symbol from plugin)
                                                  .build/obj_karlk90_yaemk_moonlanderlike/quantum/eeconfig.o (symbol from plugin)
eeprom_update_word                                .build/obj_karlk90_yaemk_moonlanderlike/eeprom_driver.o (symbol from plugin)
                                                  .build/obj_karlk90_yaemk_moonlanderlike/quantum/eeconfig.o (symbol from plugin)
eeprom_write_block                                /tmp/karlk90_yaemk_moonlanderlike.elf.XW0OFi.ltrans0.ltrans.o
                                                  .build/obj_karlk90_yaemk_moonlanderlike/eeprom_i2c.o (symbol from plugin)
                                                  /tmp/karlk90_yaemk_moonlanderlike.elf.XW0OFi.ltrans1.ltrans.o
                                                  .build/obj_karlk90_yaemk_moonlanderlike/eeprom_driver.o (symbol from plugin)
eeprom_write_byte                                 .build/obj_karlk90_yaemk_moonlanderlike/eeprom_driver.o (symbol from plugin)
eeprom_write_dword                                .build/obj_karlk90_yaemk_moonlanderlike/eeprom_driver.o (symbol from plugin)
eeprom_write_word                                 .build/obj_karlk90_yaemk_moonlanderlike/eeprom_driver.o (symbol from plugin)
effect_runner_dx_dy                               .build/obj_karlk90_yaemk_moonlanderlike/quantum/rgb_matrix/rgb_matrix.o (symbol from plugin)
effect_runner_dx_dy.constprop.0                   /tmp/karlk90_yaemk_moonlanderlike.elf.XW0OFi.ltrans1.ltrans.o
                                                  /tmp/karlk90_yaemk_moonlanderlike.elf.XW0OFi.ltrans0.ltrans.o
effect_runner_dx_dy_dist                          .build/obj_karlk90_yaemk_moonlanderlike/quantum/rgb_matrix/rgb_matrix.o (symbol from plugin)
effect_runner_dx_dy_dist.constprop.0              /tmp/karlk90_yaemk_moonlanderlike.elf.XW0OFi.ltrans1.ltrans.o
                                                  /tmp/karlk90_yaemk_moonlanderlike.elf.XW0OFi.ltrans0.ltrans.o
effect_runner_i                                   .build/obj_karlk90_yaemk_moonlanderlike/quantum/rgb_matrix/rgb_matrix.o (symbol from plugin)
effect_runner_i.constprop.0                       /tmp/karlk90_yaemk_moonlanderlike.elf.XW0OFi.ltrans1.ltrans.o
                                                  /tmp/karlk90_yaemk_moonlanderlike.elf.XW0OFi.ltrans0.ltrans.o
effect_runner_sin_cos_i                           .build/obj_karlk90_yaemk_moonlanderlike/quantum/rgb_matrix/rgb_matrix.o (symbol from plugin)
effect_runner_sin_cos_i.constprop.0               /tmp/karlk90_yaemk_moonlanderlike.elf.XW0OFi.ltrans1.ltrans.o
                                                  /tmp/karlk90_yaemk_moonlanderlike.elf.XW0OFi.ltrans0.ltrans.o
encoder.c.a36b5429                                /tmp/cc4TrJZZ.debug.temp.o
                                                  /tmp/karlk90_yaemk_moonlanderlike.elf.XW0OFi.ltrans0.ltrans.o
encoder_init                                      .build/obj_karlk90_yaemk_moonlanderlike/quantum/encoder.o (symbol from plugin)
                                                  .build/obj_karlk90_yaemk_moonlanderlike/quantum/keyboard.o (symbol from plugin)
encoder_read                                      .build/obj_karlk90_yaemk_moonlanderlike/quantum/encoder.o (symbol from plugin)
                                                  .build/obj_karlk90_yaemk_moonlanderlike/quantum/keyboard.o (symbol from plugin)
encoder_state_raw                                 .build/obj_karlk90_yaemk_moonlanderlike/quantum/encoder.o (symbol from plugin)
                                                  .build/obj_karlk90_yaemk_moonlanderlike/quantum/split_common/transactions.o (symbol from plugin)
encoder_update_kb                                 .build/obj_karlk90_yaemk_moonlanderlike/quantum/encoder.o (symbol from plugin)
encoder_update_raw                                .build/obj_karlk90_yaemk_moonlanderlike/quantum/encoder.o (symbol from plugin)
                                                  .build/obj_karlk90_yaemk_moonlanderlike/quantum/split_common/transactions.o (symbol from plugin)
encoder_update_user                               .build/obj_karlk90_yaemk_moonlanderlike/keyboards/karlk90/yaemk/keymaps/moonlanderlike/keymap.o (symbol from plugin)
enter_bootloader_mode_if_requested                .build/obj_karlk90_yaemk_moonlanderlike/common/chibios/bootloader.o (symbol from plugin)
                                                  .build/obj_karlk90_yaemk_moonlanderlike/protocol/chibios/chibios.o (symbol from plugin)
ep0_state.lto_priv.0                              /tmp/karlk90_yaemk_moonlanderlike.elf.XW0OFi.ltrans0.ltrans.o
ep0config.lto_priv.0                              /tmp/karlk90_yaemk_moonlanderlike.elf.XW0OFi.ltrans0.ltrans.o
                                                  /tmp/karlk90_yaemk_moonlanderlike.elf.XW0OFi.ltrans1.ltrans.o
ep0setup_buffer.lto_priv.0                        /tmp/karlk90_yaemk_moonlanderlike.elf.XW0OFi.ltrans0.ltrans.o
errno                                             /usr/lib/gcc/arm-none-eabi/10.3.1/../../../arm-none-eabi/lib/thumb/v7e-m+fp/hard/libg_nano.a(lib_a-reent.o)
                                                  /usr/lib/gcc/arm-none-eabi/10.3.1/../../../arm-none-eabi/lib/thumb/v7e-m+fp/hard/libg_nano.a(lib_a-signalr.o)
event_queue                                       /tmp/karlk90_yaemk_moonlanderlike.elf.XW0OFi.ltrans0.ltrans.o
                                                  .build/obj_karlk90_yaemk_moonlanderlike/protocol/chibios/usb_main.o (symbol from plugin)
                                                  /tmp/karlk90_yaemk_moonlanderlike.elf.XW0OFi.ltrans1.ltrans.o
event_queue_head                                  /tmp/karlk90_yaemk_moonlanderlike.elf.XW0OFi.ltrans0.ltrans.o
                                                  .build/obj_karlk90_yaemk_moonlanderlike/protocol/chibios/usb_main.o (symbol from plugin)
                                                  /tmp/karlk90_yaemk_moonlanderlike.elf.XW0OFi.ltrans1.ltrans.o
event_queue_tail                                  /tmp/karlk90_yaemk_moonlanderlike.elf.XW0OFi.ltrans0.ltrans.o
                                                  .build/obj_karlk90_yaemk_moonlanderlike/protocol/chibios/usb_main.o (symbol from plugin)
                                                  /tmp/karlk90_yaemk_moonlanderlike.elf.XW0OFi.ltrans1.ltrans.o
extra_report_blank                                .build/obj_karlk90_yaemk_moonlanderlike/protocol/chibios/usb_main.o (symbol from plugin)
extract_mod_bits                                  .build/obj_karlk90_yaemk_moonlanderlike/quantum/quantum.o (symbol from plugin)
fctprintf                                         .build/obj_karlk90_yaemk_moonlanderlike/lib/printf/printf.o (symbol from plugin)
fflush                                            /usr/lib/gcc/arm-none-eabi/10.3.1/../../../arm-none-eabi/lib/thumb/v7e-m+fp/hard/libg_nano.a(lib_a-fflush.o)
fiprintf                                          /usr/lib/gcc/arm-none-eabi/10.3.1/../../../arm-none-eabi/lib/thumb/v7e-m+fp/hard/libg_nano.a(lib_a-fprintf.o)
                                                  /usr/lib/gcc/arm-none-eabi/10.3.1/../../../arm-none-eabi/lib/thumb/v7e-m+fp/hard/libg_nano.a(lib_a-assert.o)
flashGetSectorOffset                              .build/obj_karlk90_yaemk/lib/chibios/os/hal/src/hal_flash.o (symbol from plugin)
flashGetSectorSize                                .build/obj_karlk90_yaemk/lib/chibios/os/hal/src/hal_flash.o (symbol from plugin)
flashWaitErase                                    .build/obj_karlk90_yaemk/lib/chibios/os/hal/src/hal_flash.o (symbol from plugin)
flush.lto_priv.0                                  /tmp/karlk90_yaemk_moonlanderlike.elf.XW0OFi.ltrans1.ltrans.o
                                                  /tmp/karlk90_yaemk_moonlanderlike.elf.XW0OFi.ltrans0.ltrans.o
fn_actions                                        .build/obj_karlk90_yaemk_moonlanderlike/quantum/keymap_common.o (symbol from plugin)
fprintf                                           /usr/lib/gcc/arm-none-eabi/10.3.1/../../../arm-none-eabi/lib/thumb/v7e-m+fp/hard/libg_nano.a(lib_a-fprintf.o)
free                                              /usr/lib/gcc/arm-none-eabi/10.3.1/../../../arm-none-eabi/lib/thumb/v7e-m+fp/hard/libg_nano.a(lib_a-malloc.o)
g_led_config                                      /tmp/karlk90_yaemk_moonlanderlike.elf.XW0OFi.ltrans0.ltrans.o
                                                  .build/obj_karlk90_yaemk_moonlanderlike/led_config.o (symbol from plugin)
                                                  /tmp/karlk90_yaemk_moonlanderlike.elf.XW0OFi.ltrans1.ltrans.o
                                                  .build/obj_karlk90_yaemk_moonlanderlike/quantum/rgb_matrix/rgb_matrix.o (symbol from plugin)
g_rgb_frame_buffer                                .build/obj_karlk90_yaemk_moonlanderlike/quantum/rgb_matrix/rgb_matrix.o (symbol from plugin)
g_rgb_timer                                       /tmp/karlk90_yaemk_moonlanderlike.elf.XW0OFi.ltrans0.ltrans.o
                                                  .build/obj_karlk90_yaemk_moonlanderlike/quantum/rgb_matrix/rgb_matrix.o (symbol from plugin)
                                                  /tmp/karlk90_yaemk_moonlanderlike.elf.XW0OFi.ltrans1.ltrans.o
get_event_keycode                                 .build/obj_karlk90_yaemk_moonlanderlike/quantum/quantum.o (symbol from plugin)
                                                  .build/obj_karlk90_yaemk_moonlanderlike/quantum/action.o (symbol from plugin)
get_event_keycode.isra.0                          /tmp/karlk90_yaemk_moonlanderlike.elf.XW0OFi.ltrans1.ltrans.o
                                                  /tmp/karlk90_yaemk_moonlanderlike.elf.XW0OFi.ltrans0.ltrans.o
get_first_key                                     .build/obj_karlk90_yaemk_moonlanderlike/common/report.o (symbol from plugin)
get_hold_on_other_key_press                       .build/obj_karlk90_yaemk_moonlanderlike/keyboards/karlk90/yaemk/keymaps/moonlanderlike/keymap.o (symbol from plugin)
get_ignore_mod_tap_interrupt                      .build/obj_karlk90_yaemk_moonlanderlike/keyboards/karlk90/yaemk/keymaps/moonlanderlike/keymap.o (symbol from plugin)
get_macro_mods                                    .build/obj_karlk90_yaemk_moonlanderlike/quantum/action_util.o (symbol from plugin)
get_matrix_scan_rate                              .build/obj_karlk90_yaemk_moonlanderlike/quantum/keyboard.o (symbol from plugin)
get_mods                                          .build/obj_karlk90_yaemk_moonlanderlike/quantum/action_util.o (symbol from plugin)
                                                  .build/obj_karlk90_yaemk_moonlanderlike/quantum/process_keycode/process_grave_esc.o (symbol from plugin)
                                                  .build/obj_karlk90_yaemk_moonlanderlike/quantum/process_keycode/process_rgb.o (symbol from plugin)
                                                  .build/obj_karlk90_yaemk_moonlanderlike/keyboards/karlk90/yaemk/keymaps/moonlanderlike/keymap.o (symbol from plugin)
get_oneshot_layer                                 .build/obj_karlk90_yaemk_moonlanderlike/quantum/action_util.o (symbol from plugin)
                                                  .build/obj_karlk90_yaemk_moonlanderlike/quantum/action.o (symbol from plugin)
get_oneshot_layer_state                           .build/obj_karlk90_yaemk_moonlanderlike/quantum/action_util.o (symbol from plugin)
                                                  .build/obj_karlk90_yaemk_moonlanderlike/quantum/action.o (symbol from plugin)
get_oneshot_locked_mods                           .build/obj_karlk90_yaemk_moonlanderlike/quantum/action_util.o (symbol from plugin)
get_oneshot_mods                                  .build/obj_karlk90_yaemk_moonlanderlike/quantum/action_util.o (symbol from plugin)
                                                  .build/obj_karlk90_yaemk_moonlanderlike/quantum/action.o (symbol from plugin)
get_record_keycode                                .build/obj_karlk90_yaemk_moonlanderlike/quantum/quantum.o (symbol from plugin)
                                                  .build/obj_karlk90_yaemk_moonlanderlike/quantum/action_tapping.o (symbol from plugin)
get_tapping_term                                  .build/obj_karlk90_yaemk_moonlanderlike/quantum/action_tapping.o (symbol from plugin)
get_usb_descriptor                                .build/obj_karlk90_yaemk_moonlanderlike/usb_descriptor.o (symbol from plugin)
                                                  .build/obj_karlk90_yaemk_moonlanderlike/protocol/chibios/usb_main.o (symbol from plugin)
get_weak_mods                                     .build/obj_karlk90_yaemk_moonlanderlike/quantum/action_util.o (symbol from plugin)
hal.c.c250fa7e                                    /tmp/ccTJ2Y4W.debug.temp.o
                                                  /tmp/karlk90_yaemk_moonlanderlike.elf.XW0OFi.ltrans0.ltrans.o
halInit                                           .build/obj_karlk90_yaemk/lib/chibios/os/hal/src/hal.o (symbol from plugin)
                                                  .build/obj_karlk90_yaemk_moonlanderlike/common/chibios/platform.o (symbol from plugin)
hal_adc.c.5d6956f5                                /tmp/ccHML2lH.debug.temp.o
hal_adc_lld.c.778a5569                            /tmp/ccYYLwxw.debug.temp.o
hal_buffers.c.f0c27d3a                            /tmp/ccbaU3nc.debug.temp.o
                                                  /tmp/karlk90_yaemk_moonlanderlike.elf.XW0OFi.ltrans1.ltrans.o
                                                  /tmp/karlk90_yaemk_moonlanderlike.elf.XW0OFi.ltrans0.ltrans.o
hal_can.c.fe741516                                /tmp/ccJMFkvz.debug.temp.o
hal_can_lld.c.32e65a83                            /tmp/ccTLV4Bg.debug.temp.o
hal_crypto.c.bf1de7c6                             /tmp/cchEO8jd.debug.temp.o
hal_dac.c.ec04015d                                /tmp/ccDTKQJR.debug.temp.o
hal_dac_lld.c.39f34eb9                            /tmp/ccRKXPYb.debug.temp.o
hal_efl.c.b05c567a                                /tmp/cciFjzD0.debug.temp.o
hal_flash.c.d04d9381                              /tmp/ccEMmkaj.debug.temp.o
hal_gpt.c.4403b055                                /tmp/ccYWugn8.debug.temp.o
hal_gpt_lld.c.ed7c6d47                            /tmp/ccKvoIVc.debug.temp.o
hal_i2c.c.164f0def                                /tmp/ccah7oE4.debug.temp.o
                                                  /tmp/karlk90_yaemk_moonlanderlike.elf.XW0OFi.ltrans1.ltrans.o
                                                  /tmp/karlk90_yaemk_moonlanderlike.elf.XW0OFi.ltrans0.ltrans.o
hal_i2c_lld.c.0983ea69                            /tmp/cc1Cuw1k.debug.temp.o
                                                  /tmp/karlk90_yaemk_moonlanderlike.elf.XW0OFi.ltrans1.ltrans.o
                                                  /tmp/karlk90_yaemk_moonlanderlike.elf.XW0OFi.ltrans0.ltrans.o
hal_i2s.c.1ad02769                                /tmp/ccQ9KqI8.debug.temp.o
hal_i2s_lld.c.5447166a                            /tmp/ccqEkoYC.debug.temp.o
hal_icu.c.d169234a                                /tmp/ccAVRz5q.debug.temp.o
hal_icu_lld.c.ed2d0519                            /tmp/ccgTypUb.debug.temp.o
hal_lld.c.383fb434                                /tmp/cc5XnyZZ.debug.temp.o
                                                  /tmp/karlk90_yaemk_moonlanderlike.elf.XW0OFi.ltrans1.ltrans.o
                                                  /tmp/karlk90_yaemk_moonlanderlike.elf.XW0OFi.ltrans0.ltrans.o
hal_lld_init                                      .build/obj_karlk90_yaemk/lib/chibios/os/hal/ports/STM32/STM32F3xx/hal_lld.o (symbol from plugin)
                                                  .build/obj_karlk90_yaemk/lib/chibios/os/hal/src/hal.o (symbol from plugin)
hal_mac.c.4d94621b                                /tmp/ccmBW45C.debug.temp.o
hal_mmc_spi.c.d604dcf4                            /tmp/cctHkjGq.debug.temp.o
hal_mmcsd.c.7649dcfc                              /tmp/ccgmsmRF.debug.temp.o
hal_pal.c.5a287f54                                /tmp/cc0wH7Ww.debug.temp.o
hal_pal_lld.c.2b6a0ffb                            /tmp/cck1LmA3.debug.temp.o
                                                  /tmp/karlk90_yaemk_moonlanderlike.elf.XW0OFi.ltrans1.ltrans.o
                                                  /tmp/karlk90_yaemk_moonlanderlike.elf.XW0OFi.ltrans0.ltrans.o
hal_pwm.c.b5f8ac66                                /tmp/ccX6H7ct.debug.temp.o
                                                  /tmp/karlk90_yaemk_moonlanderlike.elf.XW0OFi.ltrans1.ltrans.o
                                                  /tmp/karlk90_yaemk_moonlanderlike.elf.XW0OFi.ltrans0.ltrans.o
hal_pwm_lld.c.cc646a68                            /tmp/ccc4Etus.debug.temp.o
                                                  /tmp/karlk90_yaemk_moonlanderlike.elf.XW0OFi.ltrans1.ltrans.o
                                                  /tmp/karlk90_yaemk_moonlanderlike.elf.XW0OFi.ltrans0.ltrans.o
hal_queues.c.46bb5f47                             /tmp/cc5jXrRB.debug.temp.o
                                                  /tmp/karlk90_yaemk_moonlanderlike.elf.XW0OFi.ltrans1.ltrans.o
                                                  /tmp/karlk90_yaemk_moonlanderlike.elf.XW0OFi.ltrans0.ltrans.o
hal_rtc.c.494cb72a                                /tmp/ccce0NEG.debug.temp.o
hal_rtc_lld.c.e2ee37be                            /tmp/ccmA7lrj.debug.temp.o
hal_sdc.c.ef1b36c8                                /tmp/ccfBbwDM.debug.temp.o
hal_serial.c.d1a1686e                             /tmp/ccz6s2Yh.debug.temp.o
                                                  /tmp/karlk90_yaemk_moonlanderlike.elf.XW0OFi.ltrans1.ltrans.o
                                                  /tmp/karlk90_yaemk_moonlanderlike.elf.XW0OFi.ltrans0.ltrans.o
hal_serial_lld.c.61c0df5f                         /tmp/cckFgdT0.debug.temp.o
                                                  /tmp/karlk90_yaemk_moonlanderlike.elf.XW0OFi.ltrans1.ltrans.o
                                                  /tmp/karlk90_yaemk_moonlanderlike.elf.XW0OFi.ltrans0.ltrans.o
hal_serial_usb.c.6e60caf1                         /tmp/cclBEy2O.debug.temp.o
hal_sio.c.bdef30d0                                /tmp/ccigT6It.debug.temp.o
hal_spi.c.129ec779                                /tmp/ccWhu9dI.debug.temp.o
hal_spi_lld.c.75bfd662                            /tmp/ccyKAtAl.debug.temp.o
hal_st.c.887968c9                                 /tmp/ccwq0AC1.debug.temp.o
                                                  /tmp/karlk90_yaemk_moonlanderlike.elf.XW0OFi.ltrans1.ltrans.o
                                                  /tmp/karlk90_yaemk_moonlanderlike.elf.XW0OFi.ltrans0.ltrans.o
hal_st_lld.c.a843edce                             /tmp/ccW0mz4b.debug.temp.o
                                                  /tmp/karlk90_yaemk_moonlanderlike.elf.XW0OFi.ltrans1.ltrans.o
                                                  /tmp/karlk90_yaemk_moonlanderlike.elf.XW0OFi.ltrans0.ltrans.o
hal_trng.c.6776aa0b                               /tmp/ccg6VKF3.debug.temp.o
hal_uart.c.8773c966                               /tmp/cc5Wep2z.debug.temp.o
hal_uart_lld.c.687f38a4                           /tmp/ccYR3d7f.debug.temp.o
hal_usb.c.29293440                                /tmp/ccPOKm0t.debug.temp.o
                                                  /tmp/karlk90_yaemk_moonlanderlike.elf.XW0OFi.ltrans1.ltrans.o
                                                  /tmp/karlk90_yaemk_moonlanderlike.elf.XW0OFi.ltrans0.ltrans.o
hal_usb_lld.c.cefd01bf                            /tmp/ccbZtz5z.debug.temp.o
                                                  /tmp/karlk90_yaemk_moonlanderlike.elf.XW0OFi.ltrans1.ltrans.o
                                                  /tmp/karlk90_yaemk_moonlanderlike.elf.XW0OFi.ltrans0.ltrans.o
hal_wdg.c.763cd220                                /tmp/ccvho23M.debug.temp.o
hal_wdg_lld.c.233c6022                            /tmp/ccJKSs3w.debug.temp.o
hal_wspi.c.1bdbaa29                               /tmp/ccqEFQVk.debug.temp.o
handleKeycodeRGB.lto_priv.0                       /tmp/karlk90_yaemk_moonlanderlike.elf.XW0OFi.ltrans1.ltrans.o
                                                  /tmp/karlk90_yaemk_moonlanderlike.elf.XW0OFi.ltrans0.ltrans.o
has_anykey                                        .build/obj_karlk90_yaemk_moonlanderlike/common/report.o (symbol from plugin)
                                                  .build/obj_karlk90_yaemk_moonlanderlike/quantum/action_util.o (symbol from plugin)
has_anymod                                        .build/obj_karlk90_yaemk_moonlanderlike/quantum/action_util.o (symbol from plugin)
has_oneshot_mods_timed_out                        .build/obj_karlk90_yaemk_moonlanderlike/quantum/action_util.o (symbol from plugin)
host.c.f82c5aa1                                   /tmp/ccp41CVD.debug.temp.o
                                                  /tmp/karlk90_yaemk_moonlanderlike.elf.XW0OFi.ltrans1.ltrans.o
                                                  /tmp/karlk90_yaemk_moonlanderlike.elf.XW0OFi.ltrans0.ltrans.o
host_consumer_send                                /tmp/karlk90_yaemk_moonlanderlike.elf.XW0OFi.ltrans1.ltrans.o
                                                  .build/obj_karlk90_yaemk_moonlanderlike/common/host.o (symbol from plugin)
                                                  /tmp/karlk90_yaemk_moonlanderlike.elf.XW0OFi.ltrans0.ltrans.o
                                                  .build/obj_karlk90_yaemk_moonlanderlike/common/chibios/suspend.o (symbol from plugin)
                                                  .build/obj_karlk90_yaemk_moonlanderlike/quantum/action.o (symbol from plugin)
host_digitizer_send                               .build/obj_karlk90_yaemk_moonlanderlike/common/host.o (symbol from plugin)
host_get_driver                                   .build/obj_karlk90_yaemk_moonlanderlike/common/host.o (symbol from plugin)
host_keyboard_led_state                           .build/obj_karlk90_yaemk_moonlanderlike/common/host.o (symbol from plugin)
                                                  .build/obj_karlk90_yaemk_moonlanderlike/keyboards/karlk90/yaemk/keymaps/moonlanderlike/keymap.o (symbol from plugin)
host_keyboard_leds                                .build/obj_karlk90_yaemk_moonlanderlike/common/host.o (symbol from plugin)
                                                  .build/obj_karlk90_yaemk_moonlanderlike/quantum/split_common/transactions.o (symbol from plugin)
                                                  .build/obj_karlk90_yaemk_moonlanderlike/quantum/keyboard.o (symbol from plugin)
                                                  .build/obj_karlk90_yaemk_moonlanderlike/quantum/action.o (symbol from plugin)
                                                  .build/obj_karlk90_yaemk_moonlanderlike/quantum/quantum.o (symbol from plugin)
                                                  .build/obj_karlk90_yaemk_moonlanderlike/keyboards/karlk90/yaemk/keymaps/moonlanderlike/keymap.o (symbol from plugin)
host_keyboard_send                                .build/obj_karlk90_yaemk_moonlanderlike/common/host.o (symbol from plugin)
                                                  .build/obj_karlk90_yaemk_moonlanderlike/quantum/action_util.o (symbol from plugin)
host_last_consumer_report                         .build/obj_karlk90_yaemk_moonlanderlike/common/host.o (symbol from plugin)
host_last_programmable_button_report              .build/obj_karlk90_yaemk_moonlanderlike/common/host.o (symbol from plugin)
host_last_system_report                           .build/obj_karlk90_yaemk_moonlanderlike/common/host.o (symbol from plugin)
host_mouse_send                                   .build/obj_karlk90_yaemk_moonlanderlike/common/host.o (symbol from plugin)
                                                  .build/obj_karlk90_yaemk_moonlanderlike/quantum/mousekey.o (symbol from plugin)
host_programmable_button_send                     .build/obj_karlk90_yaemk_moonlanderlike/common/host.o (symbol from plugin)
host_set_driver                                   .build/obj_karlk90_yaemk_moonlanderlike/common/host.o (symbol from plugin)
                                                  .build/obj_karlk90_yaemk_moonlanderlike/protocol/chibios/chibios.o (symbol from plugin)
host_system_send                                  /tmp/karlk90_yaemk_moonlanderlike.elf.XW0OFi.ltrans1.ltrans.o
                                                  .build/obj_karlk90_yaemk_moonlanderlike/common/host.o (symbol from plugin)
                                                  /tmp/karlk90_yaemk_moonlanderlike.elf.XW0OFi.ltrans0.ltrans.o
                                                  .build/obj_karlk90_yaemk_moonlanderlike/common/chibios/suspend.o (symbol from plugin)
                                                  .build/obj_karlk90_yaemk_moonlanderlike/quantum/action.o (symbol from plugin)
housekeeping_task                                 .build/obj_karlk90_yaemk_moonlanderlike/quantum/keyboard.o (symbol from plugin)
                                                  .build/obj_karlk90_yaemk_moonlanderlike/quantum/main.o (symbol from plugin)
housekeeping_task_kb                              .build/obj_karlk90_yaemk_moonlanderlike/quantum/keyboard.o (symbol from plugin)
housekeeping_task_user                            .build/obj_karlk90_yaemk_moonlanderlike/quantum/keyboard.o (symbol from plugin)
hsv_to_rgb                                        .build/obj_karlk90_yaemk_moonlanderlike/quantum/color.o (symbol from plugin)
                                                  .build/obj_karlk90_yaemk_moonlanderlike/quantum/rgb_matrix/rgb_matrix.o (symbol from plugin)
hsv_to_rgb_impl                                   .build/obj_karlk90_yaemk_moonlanderlike/quantum/color.o (symbol from plugin)
hsv_to_rgb_nocie                                  .build/obj_karlk90_yaemk_moonlanderlike/quantum/color.o (symbol from plugin)
i2cAcquireBus                                     .build/obj_karlk90_yaemk/lib/chibios/os/hal/src/hal_i2c.o (symbol from plugin)
i2cGetErrors                                      .build/obj_karlk90_yaemk/lib/chibios/os/hal/src/hal_i2c.o (symbol from plugin)
i2cInit                                           .build/obj_karlk90_yaemk/lib/chibios/os/hal/src/hal_i2c.o (symbol from plugin)
                                                  .build/obj_karlk90_yaemk/lib/chibios/os/hal/src/hal.o (symbol from plugin)
i2cMasterReceiveTimeout                           /tmp/karlk90_yaemk_moonlanderlike.elf.XW0OFi.ltrans1.ltrans.o
                                                  .build/obj_karlk90_yaemk/lib/chibios/os/hal/src/hal_i2c.o (symbol from plugin)
                                                  .build/obj_karlk90_yaemk_moonlanderlike/i2c_master.a(i2c_master.o)
i2cMasterTransmitTimeout                          /tmp/karlk90_yaemk_moonlanderlike.elf.XW0OFi.ltrans1.ltrans.o
                                                  .build/obj_karlk90_yaemk/lib/chibios/os/hal/src/hal_i2c.o (symbol from plugin)
                                                  .build/obj_karlk90_yaemk_moonlanderlike/i2c_master.a(i2c_master.o)
i2cObjectInit                                     .build/obj_karlk90_yaemk/lib/chibios/os/hal/src/hal_i2c.o (symbol from plugin)
                                                  .build/obj_karlk90_yaemk/lib/chibios/os/hal/ports/STM32/LLD/I2Cv2/hal_i2c_lld.o (symbol from plugin)
i2cReleaseBus                                     .build/obj_karlk90_yaemk/lib/chibios/os/hal/src/hal_i2c.o (symbol from plugin)
i2cStart                                          /tmp/karlk90_yaemk_moonlanderlike.elf.XW0OFi.ltrans1.ltrans.o
                                                  .build/obj_karlk90_yaemk/lib/chibios/os/hal/src/hal_i2c.o (symbol from plugin)
                                                  .build/obj_karlk90_yaemk_moonlanderlike/i2c_master.a(i2c_master.o)
i2cStop                                           /tmp/karlk90_yaemk_moonlanderlike.elf.XW0OFi.ltrans1.ltrans.o
                                                  .build/obj_karlk90_yaemk/lib/chibios/os/hal/src/hal_i2c.o (symbol from plugin)
                                                  .build/obj_karlk90_yaemk_moonlanderlike/i2c_master.a(i2c_master.o)
i2c_init                                          .build/obj_karlk90_yaemk_moonlanderlike/i2c_master.a(i2c_master.o)
                                                  /tmp/karlk90_yaemk_moonlanderlike.elf.XW0OFi.ltrans0.ltrans.o
                                                  .build/obj_karlk90_yaemk_moonlanderlike/ssd1306_sh1106.o (symbol from plugin)
                                                  .build/obj_karlk90_yaemk_moonlanderlike/eeprom_i2c.o (symbol from plugin)
i2c_lld_init                                      .build/obj_karlk90_yaemk/lib/chibios/os/hal/ports/STM32/LLD/I2Cv2/hal_i2c_lld.o (symbol from plugin)
                                                  .build/obj_karlk90_yaemk/lib/chibios/os/hal/src/hal_i2c.o (symbol from plugin)
i2c_lld_master_receive_timeout                    .build/obj_karlk90_yaemk/lib/chibios/os/hal/ports/STM32/LLD/I2Cv2/hal_i2c_lld.o (symbol from plugin)
                                                  .build/obj_karlk90_yaemk/lib/chibios/os/hal/src/hal_i2c.o (symbol from plugin)
i2c_lld_master_transmit_timeout                   .build/obj_karlk90_yaemk/lib/chibios/os/hal/ports/STM32/LLD/I2Cv2/hal_i2c_lld.o (symbol from plugin)
                                                  .build/obj_karlk90_yaemk/lib/chibios/os/hal/src/hal_i2c.o (symbol from plugin)
i2c_lld_start                                     .build/obj_karlk90_yaemk/lib/chibios/os/hal/ports/STM32/LLD/I2Cv2/hal_i2c_lld.o (symbol from plugin)
                                                  .build/obj_karlk90_yaemk/lib/chibios/os/hal/src/hal_i2c.o (symbol from plugin)
i2c_lld_stop                                      .build/obj_karlk90_yaemk/lib/chibios/os/hal/ports/STM32/LLD/I2Cv2/hal_i2c_lld.o (symbol from plugin)
                                                  .build/obj_karlk90_yaemk/lib/chibios/os/hal/src/hal_i2c.o (symbol from plugin)
i2c_readReg                                       .build/obj_karlk90_yaemk_moonlanderlike/i2c_master.a(i2c_master.o)
i2c_readReg16                                     .build/obj_karlk90_yaemk_moonlanderlike/i2c_master.a(i2c_master.o)
i2c_receive                                       .build/obj_karlk90_yaemk_moonlanderlike/i2c_master.a(i2c_master.o)
                                                  /tmp/karlk90_yaemk_moonlanderlike.elf.XW0OFi.ltrans1.ltrans.o
                                                  /tmp/karlk90_yaemk_moonlanderlike.elf.XW0OFi.ltrans0.ltrans.o
                                                  .build/obj_karlk90_yaemk_moonlanderlike/eeprom_i2c.o (symbol from plugin)
i2c_start                                         .build/obj_karlk90_yaemk_moonlanderlike/i2c_master.a(i2c_master.o)
i2c_stop                                          .build/obj_karlk90_yaemk_moonlanderlike/i2c_master.a(i2c_master.o)
i2c_transmit                                      .build/obj_karlk90_yaemk_moonlanderlike/i2c_master.a(i2c_master.o)
                                                  /tmp/karlk90_yaemk_moonlanderlike.elf.XW0OFi.ltrans1.ltrans.o
                                                  /tmp/karlk90_yaemk_moonlanderlike.elf.XW0OFi.ltrans0.ltrans.o
                                                  .build/obj_karlk90_yaemk_moonlanderlike/ssd1306_sh1106.o (symbol from plugin)
                                                  .build/obj_karlk90_yaemk_moonlanderlike/eeprom_i2c.o (symbol from plugin)
i2c_writeReg                                      .build/obj_karlk90_yaemk_moonlanderlike/i2c_master.a(i2c_master.o)
                                                  /tmp/karlk90_yaemk_moonlanderlike.elf.XW0OFi.ltrans1.ltrans.o
                                                  .build/obj_karlk90_yaemk_moonlanderlike/ssd1306_sh1106.o (symbol from plugin)
i2c_writeReg16                                    .build/obj_karlk90_yaemk_moonlanderlike/i2c_master.a(i2c_master.o)
ibnotify.lto_priv.0                               /tmp/karlk90_yaemk_moonlanderlike.elf.XW0OFi.ltrans1.ltrans.o
                                                  /tmp/karlk90_yaemk_moonlanderlike.elf.XW0OFi.ltrans0.ltrans.o
ibqGetEmptyBufferI                                .build/obj_karlk90_yaemk/lib/chibios/os/hal/src/hal_buffers.o (symbol from plugin)
                                                  .build/obj_karlk90_yaemk_moonlanderlike/protocol/chibios/usb_driver.o (symbol from plugin)
ibqGetFullBufferTimeout                           .build/obj_karlk90_yaemk/lib/chibios/os/hal/src/hal_buffers.o (symbol from plugin)
ibqGetFullBufferTimeoutS                          .build/obj_karlk90_yaemk/lib/chibios/os/hal/src/hal_buffers.o (symbol from plugin)
ibqGetTimeout                                     .build/obj_karlk90_yaemk/lib/chibios/os/hal/src/hal_buffers.o (symbol from plugin)
                                                  .build/obj_karlk90_yaemk_moonlanderlike/protocol/chibios/usb_driver.o (symbol from plugin)
ibqObjectInit                                     .build/obj_karlk90_yaemk/lib/chibios/os/hal/src/hal_buffers.o (symbol from plugin)
                                                  .build/obj_karlk90_yaemk_moonlanderlike/protocol/chibios/usb_driver.o (symbol from plugin)
ibqPostFullBufferI                                .build/obj_karlk90_yaemk/lib/chibios/os/hal/src/hal_buffers.o (symbol from plugin)
                                                  .build/obj_karlk90_yaemk_moonlanderlike/protocol/chibios/usb_driver.o (symbol from plugin)
ibqReadTimeout                                    .build/obj_karlk90_yaemk/lib/chibios/os/hal/src/hal_buffers.o (symbol from plugin)
                                                  .build/obj_karlk90_yaemk_moonlanderlike/protocol/chibios/usb_driver.o (symbol from plugin)
ibqReleaseEmptyBuffer                             .build/obj_karlk90_yaemk/lib/chibios/os/hal/src/hal_buffers.o (symbol from plugin)
ibqReleaseEmptyBufferS                            .build/obj_karlk90_yaemk/lib/chibios/os/hal/src/hal_buffers.o (symbol from plugin)
ibqResetI                                         .build/obj_karlk90_yaemk/lib/chibios/os/hal/src/hal_buffers.o (symbol from plugin)
                                                  .build/obj_karlk90_yaemk_moonlanderlike/protocol/chibios/usb_driver.o (symbol from plugin)
init.lto_priv.0                                   /tmp/karlk90_yaemk_moonlanderlike.elf.XW0OFi.ltrans0.ltrans.o
init_usb_driver                                   .build/obj_karlk90_yaemk_moonlanderlike/protocol/chibios/usb_main.o (symbol from plugin)
                                                  .build/obj_karlk90_yaemk_moonlanderlike/protocol/chibios/chibios.o (symbol from plugin)
iqGetI                                            .build/obj_karlk90_yaemk/lib/chibios/os/hal/src/hal_queues.o (symbol from plugin)
iqGetTimeout                                      /tmp/karlk90_yaemk_moonlanderlike.elf.XW0OFi.ltrans1.ltrans.o
                                                  .build/obj_karlk90_yaemk/lib/chibios/os/hal/src/hal_queues.o (symbol from plugin)
                                                  .build/obj_karlk90_yaemk/lib/chibios/os/hal/src/hal_serial.o (symbol from plugin)
                                                  .build/obj_karlk90_yaemk_moonlanderlike/serial_usart.a(serial_usart.o)
iqObjectInit                                      .build/obj_karlk90_yaemk/lib/chibios/os/hal/src/hal_queues.o (symbol from plugin)
                                                  .build/obj_karlk90_yaemk/lib/chibios/os/hal/ports/STM32/LLD/USARTv2/hal_serial_lld.o (symbol from plugin)
iqPutI                                            .build/obj_karlk90_yaemk/lib/chibios/os/hal/src/hal_queues.o (symbol from plugin)
                                                  .build/obj_karlk90_yaemk/lib/chibios/os/hal/src/hal_serial.o (symbol from plugin)
iqReadI                                           .build/obj_karlk90_yaemk/lib/chibios/os/hal/src/hal_queues.o (symbol from plugin)
iqReadTimeout                                     /tmp/karlk90_yaemk_moonlanderlike.elf.XW0OFi.ltrans1.ltrans.o
                                                  .build/obj_karlk90_yaemk/lib/chibios/os/hal/src/hal_queues.o (symbol from plugin)
                                                  .build/obj_karlk90_yaemk/lib/chibios/os/hal/src/hal_serial.o (symbol from plugin)
                                                  .build/obj_karlk90_yaemk_moonlanderlike/serial_usart.a(serial_usart.o)
iqResetI                                          /tmp/karlk90_yaemk_moonlanderlike.elf.XW0OFi.ltrans1.ltrans.o
                                                  .build/obj_karlk90_yaemk/lib/chibios/os/hal/src/hal_queues.o (symbol from plugin)
                                                  .build/obj_karlk90_yaemk/lib/chibios/os/hal/src/hal_serial.o (symbol from plugin)
                                                  .build/obj_karlk90_yaemk_moonlanderlike/serial_usart.a(serial_usart.o)
irqDeinit                                         .build/obj_karlk90_yaemk/lib/chibios/os/hal/ports/STM32/STM32F3xx/stm32_isr.o (symbol from plugin)
irqInit                                           .build/obj_karlk90_yaemk/lib/chibios/os/hal/ports/STM32/STM32F3xx/stm32_isr.o (symbol from plugin)
                                                  .build/obj_karlk90_yaemk/lib/chibios/os/hal/ports/STM32/STM32F3xx/hal_lld.o (symbol from plugin)
isLeftHand                                        .build/obj_karlk90_yaemk_moonlanderlike/quantum/split_common/split_util.o (symbol from plugin)
                                                  .build/obj_karlk90_yaemk_moonlanderlike/quantum/encoder.o (symbol from plugin)
                                                  .build/obj_karlk90_yaemk_moonlanderlike/quantum/matrix.o (symbol from plugin)
                                                  .build/obj_karlk90_yaemk_moonlanderlike/keyboards/karlk90/yaemk/yaemk.o (symbol from plugin)
is_key_pressed                                    .build/obj_karlk90_yaemk_moonlanderlike/common/report.o (symbol from plugin)
                                                  .build/obj_karlk90_yaemk_moonlanderlike/quantum/action.o (symbol from plugin)
is_keyboard_left                                  /tmp/karlk90_yaemk_moonlanderlike.elf.XW0OFi.ltrans0.ltrans.o
                                                  .build/obj_karlk90_yaemk_moonlanderlike/quantum/split_common/split_util.o (symbol from plugin)
                                                  .build/obj_karlk90_yaemk_moonlanderlike/quantum/rgb_matrix/rgb_matrix.o (symbol from plugin)
                                                  .build/obj_karlk90_yaemk_moonlanderlike/keyboards/karlk90/yaemk/keymaps/moonlanderlike/keymap.o (symbol from plugin)
is_keyboard_master                                .build/obj_karlk90_yaemk_moonlanderlike/keyboards/karlk90/yaemk/yaemk.o (symbol from plugin)
                                                  .build/obj_karlk90_yaemk_moonlanderlike/common/sync_timer.o (symbol from plugin)
                                                  .build/obj_karlk90_yaemk_moonlanderlike/common/host.o (symbol from plugin)
                                                  .build/obj_karlk90_yaemk_moonlanderlike/quantum/matrix.o (symbol from plugin)
                                                  .build/obj_karlk90_yaemk_moonlanderlike/quantum/keyboard.o (symbol from plugin)
                                                  .build/obj_karlk90_yaemk_moonlanderlike/keyboards/karlk90/yaemk/keymaps/moonlanderlike/keymap.o (symbol from plugin)
is_oled_on                                        .build/obj_karlk90_yaemk_moonlanderlike/ssd1306_sh1106.o (symbol from plugin)
is_oled_scrolling                                 .build/obj_karlk90_yaemk_moonlanderlike/ssd1306_sh1106.o (symbol from plugin)
is_oneshot_enabled                                .build/obj_karlk90_yaemk_moonlanderlike/quantum/action_util.o (symbol from plugin)
is_oneshot_layer_active                           .build/obj_karlk90_yaemk_moonlanderlike/quantum/action_util.o (symbol from plugin)
                                                  .build/obj_karlk90_yaemk_moonlanderlike/quantum/action.o (symbol from plugin)
is_tap_action                                     .build/obj_karlk90_yaemk_moonlanderlike/quantum/action.o (symbol from plugin)
is_tap_key                                        .build/obj_karlk90_yaemk_moonlanderlike/quantum/action.o (symbol from plugin)
is_tap_record                                     .build/obj_karlk90_yaemk_moonlanderlike/quantum/action.o (symbol from plugin)
                                                  .build/obj_karlk90_yaemk_moonlanderlike/quantum/action_tapping.o (symbol from plugin)
is_transport_connected                            .build/obj_karlk90_yaemk_moonlanderlike/quantum/split_common/split_util.o (symbol from plugin)
                                                  .build/obj_karlk90_yaemk_moonlanderlike/quantum/split_common/transactions.o (symbol from plugin)
k_rgb_matrix_center                               .build/obj_karlk90_yaemk_moonlanderlike/quantum/rgb_matrix/rgb_matrix.o (symbol from plugin)
k_rgb_matrix_split                                .build/obj_karlk90_yaemk_moonlanderlike/quantum/rgb_matrix/rgb_matrix.o (symbol from plugin)
kbd_in_cb                                         .build/obj_karlk90_yaemk_moonlanderlike/protocol/chibios/usb_main.o (symbol from plugin)
kbd_sof_cb                                        .build/obj_karlk90_yaemk_moonlanderlike/protocol/chibios/usb_main.o (symbol from plugin)
keyboard.c.6b8a3a84                               /tmp/cc14VErq.debug.temp.o
                                                  /tmp/karlk90_yaemk_moonlanderlike.elf.XW0OFi.ltrans0.ltrans.o
keyboard_idle                                     .build/obj_karlk90_yaemk_moonlanderlike/protocol/chibios/usb_main.o (symbol from plugin)
keyboard_idle_count                               .build/obj_karlk90_yaemk_moonlanderlike/protocol/chibios/usb_main.o (symbol from plugin)
keyboard_idle_timer.lto_priv.0                    /tmp/karlk90_yaemk_moonlanderlike.elf.XW0OFi.ltrans0.ltrans.o
                                                  /tmp/karlk90_yaemk_moonlanderlike.elf.XW0OFi.ltrans1.ltrans.o
keyboard_init                                     .build/obj_karlk90_yaemk_moonlanderlike/quantum/keyboard.o (symbol from plugin)
                                                  .build/obj_karlk90_yaemk_moonlanderlike/protocol/chibios/chibios.o (symbol from plugin)
keyboard_led_state                                .build/obj_karlk90_yaemk_moonlanderlike/protocol/chibios/usb_main.o (symbol from plugin)
keyboard_leds                                     /tmp/karlk90_yaemk_moonlanderlike.elf.XW0OFi.ltrans1.ltrans.o
                                                  .build/obj_karlk90_yaemk_moonlanderlike/protocol/chibios/usb_main.o (symbol from plugin)
                                                  /tmp/karlk90_yaemk_moonlanderlike.elf.XW0OFi.ltrans0.ltrans.o
                                                  .build/obj_karlk90_yaemk_moonlanderlike/protocol/chibios/chibios.o (symbol from plugin)
keyboard_post_init_kb                             .build/obj_karlk90_yaemk_moonlanderlike/quantum/keyboard.o (symbol from plugin)
keyboard_post_init_user                           .build/obj_karlk90_yaemk_moonlanderlike/keyboards/karlk90/yaemk/yaemk.o (symbol from plugin)
keyboard_pre_init_kb                              .build/obj_karlk90_yaemk_moonlanderlike/quantum/keyboard.o (symbol from plugin)
keyboard_pre_init_user                            .build/obj_karlk90_yaemk_moonlanderlike/quantum/keyboard.o (symbol from plugin)
keyboard_protocol                                 /tmp/karlk90_yaemk_moonlanderlike.elf.XW0OFi.ltrans0.ltrans.o
                                                  .build/obj_karlk90_yaemk_moonlanderlike/protocol/chibios/usb_main.o (symbol from plugin)
                                                  /tmp/karlk90_yaemk_moonlanderlike.elf.XW0OFi.ltrans1.ltrans.o
                                                  .build/obj_karlk90_yaemk_moonlanderlike/common/report.o (symbol from plugin)
                                                  .build/obj_karlk90_yaemk_moonlanderlike/common/host.o (symbol from plugin)
keyboard_report                                   /tmp/karlk90_yaemk_moonlanderlike.elf.XW0OFi.ltrans0.ltrans.o
                                                  .build/obj_karlk90_yaemk_moonlanderlike/quantum/action_util.o (symbol from plugin)
                                                  /tmp/karlk90_yaemk_moonlanderlike.elf.XW0OFi.ltrans1.ltrans.o
                                                  .build/obj_karlk90_yaemk_moonlanderlike/common/chibios/suspend.o (symbol from plugin)
                                                  .build/obj_karlk90_yaemk_moonlanderlike/quantum/process_keycode/process_grave_esc.o (symbol from plugin)
                                                  .build/obj_karlk90_yaemk_moonlanderlike/quantum/action.o (symbol from plugin)
keyboard_report_has_deferred_keycodes             .build/obj_karlk90_yaemk_moonlanderlike/quantum/action_util.o (symbol from plugin)
keyboard_report_sent                              .build/obj_karlk90_yaemk_moonlanderlike/protocol/chibios/usb_main.o (symbol from plugin)
keyboard_set_leds                                 .build/obj_karlk90_yaemk_moonlanderlike/quantum/keyboard.o (symbol from plugin)
keyboard_setup                                    .build/obj_karlk90_yaemk_moonlanderlike/quantum/keyboard.o (symbol from plugin)
                                                  .build/obj_karlk90_yaemk_moonlanderlike/protocol/chibios/chibios.o (symbol from plugin)
keyboard_task                                     .build/obj_karlk90_yaemk_moonlanderlike/quantum/keyboard.o (symbol from plugin)
                                                  .build/obj_karlk90_yaemk_moonlanderlike/protocol/chibios/chibios.o (symbol from plugin)
keycode_config                                    .build/obj_karlk90_yaemk_moonlanderlike/quantum/keycode_config.o (symbol from plugin)
                                                  .build/obj_karlk90_yaemk_moonlanderlike/quantum/keymap_common.o (symbol from plugin)
keycode_config.c.3a338e3f                         /tmp/ccs3fqN1.debug.temp.o
                                                  /tmp/karlk90_yaemk_moonlanderlike.elf.XW0OFi.ltrans0.ltrans.o
keymap.c.9ff24497                                 /tmp/cctRlNqi.debug.temp.o
                                                  /tmp/karlk90_yaemk_moonlanderlike.elf.XW0OFi.ltrans1.ltrans.o
                                                  /tmp/karlk90_yaemk_moonlanderlike.elf.XW0OFi.ltrans0.ltrans.o
keymap_common.c.e49aa754                          /tmp/ccJHiYPW.debug.temp.o
                                                  /tmp/karlk90_yaemk_moonlanderlike.elf.XW0OFi.ltrans0.ltrans.o
keymap_config                                     /tmp/karlk90_yaemk_moonlanderlike.elf.XW0OFi.ltrans0.ltrans.o
                                                  .build/obj_karlk90_yaemk_moonlanderlike/quantum/bootmagic/magic.o (symbol from plugin)
                                                  /tmp/karlk90_yaemk_moonlanderlike.elf.XW0OFi.ltrans1.ltrans.o
                                                  .build/obj_karlk90_yaemk_moonlanderlike/protocol/chibios/usb_main.o (symbol from plugin)
                                                  .build/obj_karlk90_yaemk_moonlanderlike/common/report.o (symbol from plugin)
                                                  .build/obj_karlk90_yaemk_moonlanderlike/common/host.o (symbol from plugin)
                                                  .build/obj_karlk90_yaemk_moonlanderlike/quantum/process_keycode/process_magic.o (symbol from plugin)
                                                  .build/obj_karlk90_yaemk_moonlanderlike/quantum/keycode_config.o (symbol from plugin)
                                                  .build/obj_karlk90_yaemk_moonlanderlike/quantum/keyboard.o (symbol from plugin)
                                                  .build/obj_karlk90_yaemk_moonlanderlike/quantum/action_util.o (symbol from plugin)
keymap_function_id_to_action                      .build/obj_karlk90_yaemk_moonlanderlike/quantum/keymap_common.o (symbol from plugin)
keymap_key_to_keycode                             .build/obj_karlk90_yaemk_moonlanderlike/quantum/dynamic_keymap.o (symbol from plugin)
                                                  .build/obj_karlk90_yaemk_moonlanderlike/quantum/keymap_common.o (symbol from plugin)
                                                  .build/obj_karlk90_yaemk_moonlanderlike/quantum/quantum.o (symbol from plugin)
keymaps                                           .build/obj_karlk90_yaemk_moonlanderlike/keyboards/karlk90/yaemk/keymaps/moonlanderlike/keymap.o (symbol from plugin)
                                                  .build/obj_karlk90_yaemk_moonlanderlike/quantum/dynamic_keymap.o (symbol from plugin)
                                                  .build/obj_karlk90_yaemk_moonlanderlike/quantum/keymap_common.o (symbol from plugin)
last_consumer_report.lto_priv.0                   /tmp/karlk90_yaemk_moonlanderlike.elf.XW0OFi.ltrans0.ltrans.o
                                                  /tmp/karlk90_yaemk_moonlanderlike.elf.XW0OFi.ltrans1.ltrans.o
last_encoder_activity_elapsed                     .build/obj_karlk90_yaemk_moonlanderlike/quantum/keyboard.o (symbol from plugin)
last_encoder_activity_time                        .build/obj_karlk90_yaemk_moonlanderlike/quantum/keyboard.o (symbol from plugin)
last_encoder_activity_trigger                     .build/obj_karlk90_yaemk_moonlanderlike/quantum/keyboard.o (symbol from plugin)
                                                  .build/obj_karlk90_yaemk_moonlanderlike/quantum/encoder.o (symbol from plugin)
last_input_activity_elapsed                       .build/obj_karlk90_yaemk_moonlanderlike/quantum/keyboard.o (symbol from plugin)
last_input_activity_time                          .build/obj_karlk90_yaemk_moonlanderlike/quantum/keyboard.o (symbol from plugin)
last_keyboard_report                              .build/obj_karlk90_yaemk_moonlanderlike/quantum/action_util.o (symbol from plugin)
last_matrix_activity_elapsed                      .build/obj_karlk90_yaemk_moonlanderlike/quantum/keyboard.o (symbol from plugin)
last_matrix_activity_time                         .build/obj_karlk90_yaemk_moonlanderlike/quantum/keyboard.o (symbol from plugin)
last_matrix_activity_trigger                      .build/obj_karlk90_yaemk_moonlanderlike/quantum/keyboard.o (symbol from plugin)
last_suspend_state                                /tmp/karlk90_yaemk_moonlanderlike.elf.XW0OFi.ltrans0.ltrans.o
                                                  .build/obj_karlk90_yaemk_moonlanderlike/protocol/chibios/usb_main.o (symbol from plugin)
                                                  /tmp/karlk90_yaemk_moonlanderlike.elf.XW0OFi.ltrans1.ltrans.o
last_system_report.lto_priv.0                     /tmp/karlk90_yaemk_moonlanderlike.elf.XW0OFi.ltrans0.ltrans.o
                                                  /tmp/karlk90_yaemk_moonlanderlike.elf.XW0OFi.ltrans1.ltrans.o
last_systime.lto_priv.0                           /tmp/karlk90_yaemk_moonlanderlike.elf.XW0OFi.ltrans0.ltrans.o
                                                  /tmp/karlk90_yaemk_moonlanderlike.elf.XW0OFi.ltrans1.ltrans.o
layer_and                                         .build/obj_karlk90_yaemk_moonlanderlike/quantum/action_layer.o (symbol from plugin)
                                                  .build/obj_karlk90_yaemk_moonlanderlike/quantum/action.o (symbol from plugin)
layer_clear                                       .build/obj_karlk90_yaemk_moonlanderlike/quantum/action_layer.o (symbol from plugin)
                                                  .build/obj_karlk90_yaemk_moonlanderlike/quantum/action.o (symbol from plugin)
layer_debug                                       .build/obj_karlk90_yaemk_moonlanderlike/quantum/action_layer.o (symbol from plugin)
                                                  .build/obj_karlk90_yaemk_moonlanderlike/quantum/action.o (symbol from plugin)
layer_invert                                      .build/obj_karlk90_yaemk_moonlanderlike/quantum/action_layer.o (symbol from plugin)
                                                  .build/obj_karlk90_yaemk_moonlanderlike/quantum/action.o (symbol from plugin)
layer_move                                        .build/obj_karlk90_yaemk_moonlanderlike/quantum/action_layer.o (symbol from plugin)
                                                  .build/obj_karlk90_yaemk_moonlanderlike/quantum/action.o (symbol from plugin)
layer_off                                         .build/obj_karlk90_yaemk_moonlanderlike/quantum/action_layer.o (symbol from plugin)
                                                  .build/obj_karlk90_yaemk_moonlanderlike/quantum/via.o (symbol from plugin)
                                                  .build/obj_karlk90_yaemk_moonlanderlike/quantum/action_util.o (symbol from plugin)
                                                  .build/obj_karlk90_yaemk_moonlanderlike/quantum/action.o (symbol from plugin)
layer_on                                          .build/obj_karlk90_yaemk_moonlanderlike/quantum/action_layer.o (symbol from plugin)
                                                  .build/obj_karlk90_yaemk_moonlanderlike/quantum/via.o (symbol from plugin)
                                                  .build/obj_karlk90_yaemk_moonlanderlike/quantum/action_util.o (symbol from plugin)
                                                  .build/obj_karlk90_yaemk_moonlanderlike/quantum/action.o (symbol from plugin)
layer_or                                          .build/obj_karlk90_yaemk_moonlanderlike/quantum/action_layer.o (symbol from plugin)
                                                  .build/obj_karlk90_yaemk_moonlanderlike/quantum/action.o (symbol from plugin)
layer_state                                       .build/obj_karlk90_yaemk_moonlanderlike/quantum/action_layer.o (symbol from plugin)
                                                  .build/obj_karlk90_yaemk_moonlanderlike/quantum/split_common/transactions.o (symbol from plugin)
                                                  .build/obj_karlk90_yaemk_moonlanderlike/quantum/bootmagic/magic.o (symbol from plugin)
                                                  .build/obj_karlk90_yaemk_moonlanderlike/quantum/quantum.o (symbol from plugin)
                                                  .build/obj_karlk90_yaemk_moonlanderlike/keyboards/karlk90/yaemk/keymaps/moonlanderlike/keymap.o (symbol from plugin)
layer_state_cmp                                   .build/obj_karlk90_yaemk_moonlanderlike/quantum/action_layer.o (symbol from plugin)
layer_state_is                                    .build/obj_karlk90_yaemk_moonlanderlike/quantum/action_layer.o (symbol from plugin)
layer_state_set                                   .build/obj_karlk90_yaemk_moonlanderlike/quantum/action_layer.o (symbol from plugin)
                                                  .build/obj_karlk90_yaemk_moonlanderlike/quantum/action.o (symbol from plugin)
                                                  .build/obj_karlk90_yaemk_moonlanderlike/quantum/quantum.o (symbol from plugin)
layer_state_set_kb                                .build/obj_karlk90_yaemk_moonlanderlike/quantum/action_layer.o (symbol from plugin)
                                                  .build/obj_karlk90_yaemk_moonlanderlike/quantum/bootmagic/magic.o (symbol from plugin)
layer_state_set_user                              .build/obj_karlk90_yaemk_moonlanderlike/quantum/action_layer.o (symbol from plugin)
layer_switch_get_action                           .build/obj_karlk90_yaemk_moonlanderlike/quantum/action_layer.o (symbol from plugin)
                                                  .build/obj_karlk90_yaemk_moonlanderlike/quantum/action_tapping.o (symbol from plugin)
                                                  .build/obj_karlk90_yaemk_moonlanderlike/quantum/action.o (symbol from plugin)
layer_switch_get_layer                            /tmp/karlk90_yaemk_moonlanderlike.elf.XW0OFi.ltrans0.ltrans.o
                                                  .build/obj_karlk90_yaemk_moonlanderlike/quantum/action_layer.o (symbol from plugin)
                                                  /tmp/karlk90_yaemk_moonlanderlike.elf.XW0OFi.ltrans1.ltrans.o
                                                  .build/obj_karlk90_yaemk_moonlanderlike/quantum/quantum.o (symbol from plugin)
layer_xor                                         .build/obj_karlk90_yaemk_moonlanderlike/quantum/action_layer.o (symbol from plugin)
                                                  .build/obj_karlk90_yaemk_moonlanderlike/quantum/action.o (symbol from plugin)
led.c.920d4487                                    /tmp/ccy2zO6v.debug.temp.o
                                                  /tmp/karlk90_yaemk_moonlanderlike.elf.XW0OFi.ltrans0.ltrans.o
led_config.c.f700350a                             /tmp/ccfnEjuh.debug.temp.o
                                                  /tmp/karlk90_yaemk_moonlanderlike.elf.XW0OFi.ltrans0.ltrans.o
led_init_ports                                    .build/obj_karlk90_yaemk_moonlanderlike/quantum/led.o (symbol from plugin)
                                                  .build/obj_karlk90_yaemk_moonlanderlike/quantum/quantum.o (symbol from plugin)
led_set                                           .build/obj_karlk90_yaemk_moonlanderlike/quantum/led.o (symbol from plugin)
                                                  .build/obj_karlk90_yaemk_moonlanderlike/quantum/keyboard.o (symbol from plugin)
                                                  .build/obj_karlk90_yaemk_moonlanderlike/quantum/action.o (symbol from plugin)
                                                  .build/obj_karlk90_yaemk_moonlanderlike/quantum/quantum.o (symbol from plugin)
led_set_kb                                        .build/obj_karlk90_yaemk_moonlanderlike/quantum/led.o (symbol from plugin)
led_set_user                                      .build/obj_karlk90_yaemk_moonlanderlike/quantum/led.o (symbol from plugin)
led_tables.c.ba9772a6                             /tmp/ccDQrsNj.debug.temp.o
                                                  /tmp/karlk90_yaemk_moonlanderlike.elf.XW0OFi.ltrans0.ltrans.o
led_update_kb                                     .build/obj_karlk90_yaemk_moonlanderlike/quantum/led.o (symbol from plugin)
led_update_user                                   .build/obj_karlk90_yaemk_moonlanderlike/quantum/led.o (symbol from plugin)
lib8tion.c.621e4237                               /tmp/ccNwn336.debug.temp.o
logo                                              .build/obj_karlk90_yaemk_moonlanderlike/keyboards/karlk90/yaemk/yaemk.o (symbol from plugin)
magic                                             .build/obj_karlk90_yaemk_moonlanderlike/quantum/bootmagic/magic.o (symbol from plugin)
                                                  .build/obj_karlk90_yaemk_moonlanderlike/quantum/quantum.o (symbol from plugin)
magic.c.10c91b4f                                  /tmp/cckzIpwo.debug.temp.o
                                                  /tmp/karlk90_yaemk_moonlanderlike.elf.XW0OFi.ltrans0.ltrans.o
main                                              /tmp/karlk90_yaemk_moonlanderlike.elf.XW0OFi.ltrans0.ltrans.o
                                                  .build/obj_karlk90_yaemk_moonlanderlike/quantum/main.o (symbol from plugin)
                                                  .build/obj_karlk90_yaemk_moonlanderlike/./lib/chibios/os/common/startup/ARMCMx/compilers/GCC/crt0_v7m.o
main.c.72672af8                                   /tmp/ccV71jLk.debug.temp.o
                                                  /tmp/karlk90_yaemk_moonlanderlike.elf.XW0OFi.ltrans0.ltrans.o
malloc                                            /usr/lib/gcc/arm-none-eabi/10.3.1/../../../arm-none-eabi/lib/thumb/v7e-m+fp/hard/libg_nano.a(lib_a-malloc.o)
                                                  /tmp/karlk90_yaemk_moonlanderlike.elf.XW0OFi.ltrans0.ltrans.o
                                                  /usr/lib/gcc/arm-none-eabi/10.3.1/../../../arm-none-eabi/lib/thumb/v7e-m+fp/hard/libg_nano.a(lib_a-rand.o)
matrix                                            .build/obj_karlk90_yaemk_moonlanderlike/quantum/matrix_common.o (symbol from plugin)
                                                  .build/obj_karlk90_yaemk_moonlanderlike/quantum/matrix.o (symbol from plugin)
matrix.c.ea9321bf                                 /tmp/ccXB4Az0.debug.temp.o
                                                  /tmp/karlk90_yaemk_moonlanderlike.elf.XW0OFi.ltrans0.ltrans.o
matrix_cols                                       .build/obj_karlk90_yaemk_moonlanderlike/quantum/matrix_common.o (symbol from plugin)
matrix_common.c.422f86c8                          /tmp/ccGzjP0w.debug.temp.o
                                                  /tmp/karlk90_yaemk_moonlanderlike.elf.XW0OFi.ltrans0.ltrans.o
matrix_get_row                                    .build/obj_karlk90_yaemk_moonlanderlike/quantum/matrix_common.o (symbol from plugin)
                                                  .build/obj_karlk90_yaemk_moonlanderlike/common/chibios/suspend.o (symbol from plugin)
                                                  .build/obj_karlk90_yaemk_moonlanderlike/quantum/via.o (symbol from plugin)
                                                  .build/obj_karlk90_yaemk_moonlanderlike/quantum/bootmagic/bootmagic_lite.o (symbol from plugin)
                                                  .build/obj_karlk90_yaemk_moonlanderlike/quantum/keyboard.o (symbol from plugin)
matrix_init                                       .build/obj_karlk90_yaemk_moonlanderlike/quantum/matrix.o (symbol from plugin)
                                                  .build/obj_karlk90_yaemk_moonlanderlike/quantum/matrix_common.o (symbol from plugin)
                                                  .build/obj_karlk90_yaemk_moonlanderlike/quantum/keyboard.o (symbol from plugin)
matrix_init_custom                                .build/obj_karlk90_yaemk_moonlanderlike/quantum/matrix_common.o (symbol from plugin)
matrix_init_kb                                    .build/obj_karlk90_yaemk_moonlanderlike/quantum/matrix_common.o (symbol from plugin)
                                                  .build/obj_karlk90_yaemk_moonlanderlike/quantum/quantum.o (symbol from plugin)
matrix_init_pins                                  .build/obj_karlk90_yaemk_moonlanderlike/keyboards/karlk90/yaemk/yaemk.o (symbol from plugin)
matrix_init_quantum                               .build/obj_karlk90_yaemk_moonlanderlike/quantum/quantum.o (symbol from plugin)
                                                  .build/obj_karlk90_yaemk_moonlanderlike/quantum/matrix.o (symbol from plugin)
                                                  .build/obj_karlk90_yaemk_moonlanderlike/quantum/matrix_common.o (symbol from plugin)
matrix_init_user                                  .build/obj_karlk90_yaemk_moonlanderlike/quantum/matrix_common.o (symbol from plugin)
matrix_io_delay                                   .build/obj_karlk90_yaemk_moonlanderlike/quantum/matrix_common.o (symbol from plugin)
matrix_is_modified                                .build/obj_karlk90_yaemk_moonlanderlike/quantum/matrix_common.o (symbol from plugin)
matrix_is_on                                      .build/obj_karlk90_yaemk_moonlanderlike/quantum/matrix_common.o (symbol from plugin)
matrix_key_count                                  .build/obj_karlk90_yaemk_moonlanderlike/quantum/matrix_common.o (symbol from plugin)
matrix_output_select_delay                        .build/obj_karlk90_yaemk_moonlanderlike/quantum/matrix_common.o (symbol from plugin)
                                                  .build/obj_karlk90_yaemk_moonlanderlike/quantum/matrix.o (symbol from plugin)
matrix_output_unselect_delay                      .build/obj_karlk90_yaemk_moonlanderlike/quantum/matrix_common.o (symbol from plugin)
                                                  .build/obj_karlk90_yaemk_moonlanderlike/quantum/matrix.o (symbol from plugin)
matrix_post_scan                                  .build/obj_karlk90_yaemk_moonlanderlike/quantum/matrix.o (symbol from plugin)
matrix_power_down                                 .build/obj_karlk90_yaemk_moonlanderlike/common/chibios/suspend.o (symbol from plugin)
matrix_power_up                                   .build/obj_karlk90_yaemk_moonlanderlike/common/chibios/suspend.o (symbol from plugin)
matrix_print                                      .build/obj_karlk90_yaemk_moonlanderlike/quantum/matrix_common.o (symbol from plugin)
                                                  .build/obj_karlk90_yaemk_moonlanderlike/quantum/keyboard.o (symbol from plugin)
matrix_read_cols_on_row                           .build/obj_karlk90_yaemk_moonlanderlike/keyboards/karlk90/yaemk/yaemk.o (symbol from plugin)
matrix_rows                                       .build/obj_karlk90_yaemk_moonlanderlike/quantum/matrix_common.o (symbol from plugin)
matrix_scan                                       .build/obj_karlk90_yaemk_moonlanderlike/quantum/matrix.o (symbol from plugin)
                                                  .build/obj_karlk90_yaemk_moonlanderlike/quantum/matrix_common.o (symbol from plugin)
                                                  .build/obj_karlk90_yaemk_moonlanderlike/common/chibios/suspend.o (symbol from plugin)
                                                  .build/obj_karlk90_yaemk_moonlanderlike/quantum/bootmagic/bootmagic_lite.o (symbol from plugin)
                                                  .build/obj_karlk90_yaemk_moonlanderlike/quantum/keyboard.o (symbol from plugin)
matrix_scan_custom                                .build/obj_karlk90_yaemk_moonlanderlike/quantum/matrix_common.o (symbol from plugin)
matrix_scan_kb                                    .build/obj_karlk90_yaemk_moonlanderlike/quantum/matrix_common.o (symbol from plugin)
                                                  .build/obj_karlk90_yaemk_moonlanderlike/quantum/quantum.o (symbol from plugin)
matrix_scan_perf_task                             .build/obj_karlk90_yaemk_moonlanderlike/quantum/keyboard.o (symbol from plugin)
matrix_scan_quantum                               .build/obj_karlk90_yaemk_moonlanderlike/quantum/quantum.o (symbol from plugin)
                                                  .build/obj_karlk90_yaemk_moonlanderlike/quantum/matrix.o (symbol from plugin)
                                                  .build/obj_karlk90_yaemk_moonlanderlike/quantum/matrix_common.o (symbol from plugin)
matrix_scan_user                                  .build/obj_karlk90_yaemk_moonlanderlike/quantum/matrix_common.o (symbol from plugin)
matrix_setup                                      .build/obj_karlk90_yaemk_moonlanderlike/quantum/keyboard.o (symbol from plugin)
matrix_slave_scan_kb                              .build/obj_karlk90_yaemk_moonlanderlike/quantum/matrix.o (symbol from plugin)
matrix_slave_scan_user                            .build/obj_karlk90_yaemk_moonlanderlike/quantum/matrix.o (symbol from plugin)
memchr                                            /usr/lib/gcc/arm-none-eabi/10.3.1/../../../arm-none-eabi/lib/thumb/v7e-m+fp/hard/libg_nano.a(lib_a-memchr.o)
                                                  /usr/lib/gcc/arm-none-eabi/10.3.1/../../../arm-none-eabi/lib/thumb/v7e-m+fp/hard/libg_nano.a(lib_a-fvwrite.o)
                                                  /usr/lib/gcc/arm-none-eabi/10.3.1/../../../arm-none-eabi/lib/thumb/v7e-m+fp/hard/libg_nano.a(lib_a-nano-vfprintf_i.o)
                                                  /usr/lib/gcc/arm-none-eabi/10.3.1/../../../arm-none-eabi/lib/thumb/v7e-m+fp/hard/libg_nano.a(lib_a-nano-vfprintf.o)
memcmp                                            /usr/lib/gcc/arm-none-eabi/10.3.1/../../../arm-none-eabi/lib/thumb/v7e-m+fp/hard/libg_nano.a(lib_a-memcmp.o)
                                                  /tmp/karlk90_yaemk_moonlanderlike.elf.XW0OFi.ltrans1.ltrans.o
                                                  /tmp/karlk90_yaemk_moonlanderlike.elf.XW0OFi.ltrans0.ltrans.o
memcpy                                            /usr/lib/gcc/arm-none-eabi/10.3.1/../../../arm-none-eabi/lib/thumb/v7e-m+fp/hard/libg_nano.a(lib_a-memcpy.o)
                                                  /tmp/karlk90_yaemk_moonlanderlike.elf.XW0OFi.ltrans1.ltrans.o
                                                  /tmp/karlk90_yaemk_moonlanderlike.elf.XW0OFi.ltrans0.ltrans.o
                                                  /usr/lib/gcc/arm-none-eabi/10.3.1/../../../arm-none-eabi/lib/thumb/v7e-m+fp/hard/libg_nano.a(lib_a-nano-reallocr.o)
                                                  /usr/lib/gcc/arm-none-eabi/10.3.1/../../../arm-none-eabi/lib/thumb/v7e-m+fp/hard/libg_nano.a(lib_a-fvwrite.o)
                                                  .build/obj_karlk90_yaemk_moonlanderlike/i2c_master.a(i2c_master.o)
memmove                                           /usr/lib/gcc/arm-none-eabi/10.3.1/../../../arm-none-eabi/lib/thumb/v7e-m+fp/hard/libg_nano.a(lib_a-memmove.o)
                                                  /usr/lib/gcc/arm-none-eabi/10.3.1/../../../arm-none-eabi/lib/thumb/v7e-m+fp/hard/libg_nano.a(lib_a-fvwrite.o)
memset                                            /usr/lib/gcc/arm-none-eabi/10.3.1/../../../arm-none-eabi/lib/thumb/v7e-m+fp/hard/libg_nano.a(lib_a-memset.o)
                                                  /tmp/karlk90_yaemk_moonlanderlike.elf.XW0OFi.ltrans1.ltrans.o
                                                  /tmp/karlk90_yaemk_moonlanderlike.elf.XW0OFi.ltrans0.ltrans.o
                                                  /usr/lib/gcc/arm-none-eabi/10.3.1/../../../arm-none-eabi/lib/thumb/v7e-m+fp/hard/libg_nano.a(lib_a-findfp.o)
memstreams.c.5e3e39fd                             /tmp/ccznQ73N.debug.temp.o
mk_delay                                          .build/obj_karlk90_yaemk_moonlanderlike/quantum/mousekey.o (symbol from plugin)
mk_interval                                       .build/obj_karlk90_yaemk_moonlanderlike/quantum/mousekey.o (symbol from plugin)
mk_max_speed                                      .build/obj_karlk90_yaemk_moonlanderlike/quantum/mousekey.o (symbol from plugin)
mk_time_to_max                                    .build/obj_karlk90_yaemk_moonlanderlike/quantum/mousekey.o (symbol from plugin)
mk_wheel_delay                                    .build/obj_karlk90_yaemk_moonlanderlike/quantum/mousekey.o (symbol from plugin)
mk_wheel_interval                                 .build/obj_karlk90_yaemk_moonlanderlike/quantum/mousekey.o (symbol from plugin)
mk_wheel_max_speed                                .build/obj_karlk90_yaemk_moonlanderlike/quantum/mousekey.o (symbol from plugin)
mk_wheel_time_to_max                              .build/obj_karlk90_yaemk_moonlanderlike/quantum/mousekey.o (symbol from plugin)
mod_config                                        .build/obj_karlk90_yaemk_moonlanderlike/quantum/keycode_config.o (symbol from plugin)
                                                  .build/obj_karlk90_yaemk_moonlanderlike/quantum/keymap_common.o (symbol from plugin)
mod_state                                         .build/obj_karlk90_yaemk_moonlanderlike/keyboards/karlk90/yaemk/keymaps/moonlanderlike/keymap.o (symbol from plugin)
mouse_report_blank                                .build/obj_karlk90_yaemk_moonlanderlike/protocol/chibios/usb_main.o (symbol from plugin)
mousekey.c.f85c371c                               /tmp/ccLgSN5x.debug.temp.o
                                                  /tmp/karlk90_yaemk_moonlanderlike.elf.XW0OFi.ltrans1.ltrans.o
                                                  /tmp/karlk90_yaemk_moonlanderlike.elf.XW0OFi.ltrans0.ltrans.o
mousekey_clear                                    .build/obj_karlk90_yaemk_moonlanderlike/quantum/mousekey.o (symbol from plugin)
                                                  .build/obj_karlk90_yaemk_moonlanderlike/common/chibios/suspend.o (symbol from plugin)
                                                  .build/obj_karlk90_yaemk_moonlanderlike/quantum/action.o (symbol from plugin)
mousekey_get_report                               .build/obj_karlk90_yaemk_moonlanderlike/quantum/mousekey.o (symbol from plugin)
mousekey_off                                      /tmp/karlk90_yaemk_moonlanderlike.elf.XW0OFi.ltrans0.ltrans.o
                                                  .build/obj_karlk90_yaemk_moonlanderlike/quantum/mousekey.o (symbol from plugin)
                                                  /tmp/karlk90_yaemk_moonlanderlike.elf.XW0OFi.ltrans1.ltrans.o
                                                  .build/obj_karlk90_yaemk_moonlanderlike/quantum/action.o (symbol from plugin)
mousekey_on                                       /tmp/karlk90_yaemk_moonlanderlike.elf.XW0OFi.ltrans0.ltrans.o
                                                  .build/obj_karlk90_yaemk_moonlanderlike/quantum/mousekey.o (symbol from plugin)
                                                  /tmp/karlk90_yaemk_moonlanderlike.elf.XW0OFi.ltrans1.ltrans.o
                                                  .build/obj_karlk90_yaemk_moonlanderlike/quantum/action.o (symbol from plugin)
mousekey_send                                     /tmp/karlk90_yaemk_moonlanderlike.elf.XW0OFi.ltrans0.ltrans.o
                                                  .build/obj_karlk90_yaemk_moonlanderlike/quantum/mousekey.o (symbol from plugin)
                                                  /tmp/karlk90_yaemk_moonlanderlike.elf.XW0OFi.ltrans1.ltrans.o
                                                  .build/obj_karlk90_yaemk_moonlanderlike/protocol/chibios/chibios.o (symbol from plugin)
                                                  .build/obj_karlk90_yaemk_moonlanderlike/quantum/action.o (symbol from plugin)
mousekey_task                                     .build/obj_karlk90_yaemk_moonlanderlike/quantum/mousekey.o (symbol from plugin)
                                                  .build/obj_karlk90_yaemk_moonlanderlike/quantum/keyboard.o (symbol from plugin)
msObjectInit                                      .build/obj_karlk90_yaemk/lib/chibios/os/hal/lib/streams/memstreams.o (symbol from plugin)
                                                  .build/obj_karlk90_yaemk/lib/chibios/os/hal/lib/streams/chprintf.o (symbol from plugin)
notify3.lto_priv.0                                /tmp/karlk90_yaemk_moonlanderlike.elf.XW0OFi.ltrans1.ltrans.o
                                                  /tmp/karlk90_yaemk_moonlanderlike.elf.XW0OFi.ltrans0.ltrans.o
notify_usb_device_state_change_kb                 .build/obj_karlk90_yaemk_moonlanderlike/quantum/usb_device_state.o (symbol from plugin)
notify_usb_device_state_change_user               .build/obj_karlk90_yaemk_moonlanderlike/quantum/usb_device_state.o (symbol from plugin)
nullObjectInit                                    .build/obj_karlk90_yaemk/lib/chibios/os/hal/lib/streams/nullstreams.o (symbol from plugin)
nullstreams.c.70ab3cb4                            /tmp/ccFcObJC.debug.temp.o
nvic.c.e1293086                                   /tmp/cc8lT2nY.debug.temp.o
                                                  /tmp/karlk90_yaemk_moonlanderlike.elf.XW0OFi.ltrans1.ltrans.o
                                                  /tmp/karlk90_yaemk_moonlanderlike.elf.XW0OFi.ltrans0.ltrans.o
nvicClearPending                                  .build/obj_karlk90_yaemk/lib/chibios/os/hal/ports/common/ARMCMx/nvic.o (symbol from plugin)
nvicDisableVector                                 .build/obj_karlk90_yaemk/lib/chibios/os/hal/ports/common/ARMCMx/nvic.o (symbol from plugin)
                                                  .build/obj_karlk90_yaemk/lib/chibios/os/hal/ports/STM32/LLD/USBv1/hal_usb_lld.o (symbol from plugin)
                                                  .build/obj_karlk90_yaemk/lib/chibios/os/hal/ports/STM32/LLD/I2Cv2/hal_i2c_lld.o (symbol from plugin)
                                                  .build/obj_karlk90_yaemk/lib/chibios/os/hal/ports/STM32/LLD/DMAv1/stm32_dma.o (symbol from plugin)
                                                  .build/obj_karlk90_yaemk/lib/chibios/os/hal/ports/STM32/STM32F3xx/stm32_isr.o (symbol from plugin)
nvicEnableVector                                  .build/obj_karlk90_yaemk/lib/chibios/os/hal/ports/common/ARMCMx/nvic.o (symbol from plugin)
                                                  .build/obj_karlk90_yaemk/lib/chibios/os/hal/ports/STM32/LLD/USBv1/hal_usb_lld.o (symbol from plugin)
                                                  .build/obj_karlk90_yaemk/lib/chibios/os/hal/ports/STM32/LLD/USARTv2/hal_serial_lld.o (symbol from plugin)
                                                  .build/obj_karlk90_yaemk/lib/chibios/os/hal/ports/STM32/LLD/TIMv1/hal_st_lld.o (symbol from plugin)
                                                  .build/obj_karlk90_yaemk/lib/chibios/os/hal/ports/STM32/LLD/I2Cv2/hal_i2c_lld.o (symbol from plugin)
                                                  .build/obj_karlk90_yaemk/lib/chibios/os/hal/ports/STM32/LLD/DMAv1/stm32_dma.o (symbol from plugin)
                                                  .build/obj_karlk90_yaemk/lib/chibios/os/hal/ports/STM32/STM32F3xx/stm32_isr.o (symbol from plugin)
nvicSetSystemHandlerPriority                      .build/obj_karlk90_yaemk/lib/chibios/os/hal/ports/common/ARMCMx/nvic.o (symbol from plugin)
obnotify.lto_priv.0                               /tmp/karlk90_yaemk_moonlanderlike.elf.XW0OFi.ltrans1.ltrans.o
                                                  /tmp/karlk90_yaemk_moonlanderlike.elf.XW0OFi.ltrans0.ltrans.o
obqFlush                                          .build/obj_karlk90_yaemk/lib/chibios/os/hal/src/hal_buffers.o (symbol from plugin)
obqGetEmptyBufferTimeout                          .build/obj_karlk90_yaemk/lib/chibios/os/hal/src/hal_buffers.o (symbol from plugin)
obqGetEmptyBufferTimeoutS                         .build/obj_karlk90_yaemk/lib/chibios/os/hal/src/hal_buffers.o (symbol from plugin)
obqGetFullBufferI                                 .build/obj_karlk90_yaemk/lib/chibios/os/hal/src/hal_buffers.o (symbol from plugin)
                                                  .build/obj_karlk90_yaemk_moonlanderlike/protocol/chibios/usb_driver.o (symbol from plugin)
obqObjectInit                                     .build/obj_karlk90_yaemk/lib/chibios/os/hal/src/hal_buffers.o (symbol from plugin)
                                                  .build/obj_karlk90_yaemk_moonlanderlike/protocol/chibios/usb_driver.o (symbol from plugin)
obqPostFullBuffer                                 .build/obj_karlk90_yaemk/lib/chibios/os/hal/src/hal_buffers.o (symbol from plugin)
obqPostFullBufferS                                .build/obj_karlk90_yaemk/lib/chibios/os/hal/src/hal_buffers.o (symbol from plugin)
obqPutTimeout                                     .build/obj_karlk90_yaemk/lib/chibios/os/hal/src/hal_buffers.o (symbol from plugin)
                                                  .build/obj_karlk90_yaemk_moonlanderlike/protocol/chibios/usb_driver.o (symbol from plugin)
obqReleaseEmptyBufferI                            .build/obj_karlk90_yaemk/lib/chibios/os/hal/src/hal_buffers.o (symbol from plugin)
                                                  .build/obj_karlk90_yaemk_moonlanderlike/protocol/chibios/usb_driver.o (symbol from plugin)
obqResetI                                         .build/obj_karlk90_yaemk/lib/chibios/os/hal/src/hal_buffers.o (symbol from plugin)
                                                  .build/obj_karlk90_yaemk_moonlanderlike/protocol/chibios/usb_driver.o (symbol from plugin)
obqTryFlushI                                      .build/obj_karlk90_yaemk/lib/chibios/os/hal/src/hal_buffers.o (symbol from plugin)
                                                  .build/obj_karlk90_yaemk_moonlanderlike/protocol/chibios/usb_driver.o (symbol from plugin)
obqWriteTimeout                                   .build/obj_karlk90_yaemk/lib/chibios/os/hal/src/hal_buffers.o (symbol from plugin)
                                                  .build/obj_karlk90_yaemk_moonlanderlike/protocol/chibios/usb_driver.o (symbol from plugin)
oled_active                                       /tmp/karlk90_yaemk_moonlanderlike.elf.XW0OFi.ltrans0.ltrans.o
                                                  .build/obj_karlk90_yaemk_moonlanderlike/ssd1306_sh1106.o (symbol from plugin)
                                                  /tmp/karlk90_yaemk_moonlanderlike.elf.XW0OFi.ltrans1.ltrans.o
oled_advance_char                                 .build/obj_karlk90_yaemk_moonlanderlike/ssd1306_sh1106.o (symbol from plugin)
oled_advance_page                                 .build/obj_karlk90_yaemk_moonlanderlike/ssd1306_sh1106.o (symbol from plugin)
oled_brightness                                   .build/obj_karlk90_yaemk_moonlanderlike/ssd1306_sh1106.o (symbol from plugin)
oled_buffer                                       /tmp/karlk90_yaemk_moonlanderlike.elf.XW0OFi.ltrans0.ltrans.o
                                                  .build/obj_karlk90_yaemk_moonlanderlike/ssd1306_sh1106.o (symbol from plugin)
                                                  /tmp/karlk90_yaemk_moonlanderlike.elf.XW0OFi.ltrans1.ltrans.o
oled_clear                                        .build/obj_karlk90_yaemk_moonlanderlike/ssd1306_sh1106.o (symbol from plugin)
                                                  .build/obj_karlk90_yaemk_moonlanderlike/keyboards/karlk90/yaemk/keymaps/moonlanderlike/keymap.o (symbol from plugin)
                                                  .build/obj_karlk90_yaemk_moonlanderlike/keyboards/karlk90/yaemk/yaemk.o (symbol from plugin)
oled_cursor                                       /tmp/karlk90_yaemk_moonlanderlike.elf.XW0OFi.ltrans0.ltrans.o
                                                  .build/obj_karlk90_yaemk_moonlanderlike/ssd1306_sh1106.o (symbol from plugin)
                                                  /tmp/karlk90_yaemk_moonlanderlike.elf.XW0OFi.ltrans1.ltrans.o
oled_dirty                                        /tmp/karlk90_yaemk_moonlanderlike.elf.XW0OFi.ltrans0.ltrans.o
                                                  .build/obj_karlk90_yaemk_moonlanderlike/ssd1306_sh1106.o (symbol from plugin)
                                                  /tmp/karlk90_yaemk_moonlanderlike.elf.XW0OFi.ltrans1.ltrans.o
oled_get_brightness                               .build/obj_karlk90_yaemk_moonlanderlike/ssd1306_sh1106.o (symbol from plugin)
oled_init                                         .build/obj_karlk90_yaemk_moonlanderlike/ssd1306_sh1106.o (symbol from plugin)
                                                  .build/obj_karlk90_yaemk_moonlanderlike/quantum/keyboard.o (symbol from plugin)
oled_init_user                                    .build/obj_karlk90_yaemk_moonlanderlike/ssd1306_sh1106.o (symbol from plugin)
oled_initialized                                  /tmp/karlk90_yaemk_moonlanderlike.elf.XW0OFi.ltrans0.ltrans.o
                                                  .build/obj_karlk90_yaemk_moonlanderlike/ssd1306_sh1106.o (symbol from plugin)
                                                  /tmp/karlk90_yaemk_moonlanderlike.elf.XW0OFi.ltrans1.ltrans.o
oled_invert                                       .build/obj_karlk90_yaemk_moonlanderlike/ssd1306_sh1106.o (symbol from plugin)
oled_inverted                                     .build/obj_karlk90_yaemk_moonlanderlike/ssd1306_sh1106.o (symbol from plugin)
oled_max_chars                                    .build/obj_karlk90_yaemk_moonlanderlike/ssd1306_sh1106.o (symbol from plugin)
oled_max_lines                                    .build/obj_karlk90_yaemk_moonlanderlike/ssd1306_sh1106.o (symbol from plugin)
oled_off                                          .build/obj_karlk90_yaemk_moonlanderlike/ssd1306_sh1106.o (symbol from plugin)
                                                  .build/obj_karlk90_yaemk_moonlanderlike/quantum/quantum.o (symbol from plugin)
oled_on                                           .build/obj_karlk90_yaemk_moonlanderlike/ssd1306_sh1106.o (symbol from plugin)
                                                  .build/obj_karlk90_yaemk_moonlanderlike/quantum/keyboard.o (symbol from plugin)
oled_pan                                          .build/obj_karlk90_yaemk_moonlanderlike/ssd1306_sh1106.o (symbol from plugin)
oled_read_raw                                     .build/obj_karlk90_yaemk_moonlanderlike/ssd1306_sh1106.o (symbol from plugin)
oled_render                                       .build/obj_karlk90_yaemk_moonlanderlike/ssd1306_sh1106.o (symbol from plugin)
                                                  .build/obj_karlk90_yaemk_moonlanderlike/keyboards/karlk90/yaemk/yaemk.o (symbol from plugin)
oled_render.part.0                                /tmp/karlk90_yaemk_moonlanderlike.elf.XW0OFi.ltrans1.ltrans.o
                                                  /tmp/karlk90_yaemk_moonlanderlike.elf.XW0OFi.ltrans0.ltrans.o
oled_rotation                                     /tmp/karlk90_yaemk_moonlanderlike.elf.XW0OFi.ltrans0.ltrans.o
                                                  .build/obj_karlk90_yaemk_moonlanderlike/ssd1306_sh1106.o (symbol from plugin)
                                                  /tmp/karlk90_yaemk_moonlanderlike.elf.XW0OFi.ltrans1.ltrans.o
oled_rotation_width                               /tmp/karlk90_yaemk_moonlanderlike.elf.XW0OFi.ltrans0.ltrans.o
                                                  .build/obj_karlk90_yaemk_moonlanderlike/ssd1306_sh1106.o (symbol from plugin)
                                                  /tmp/karlk90_yaemk_moonlanderlike.elf.XW0OFi.ltrans1.ltrans.o
oled_scroll_end                                   .build/obj_karlk90_yaemk_moonlanderlike/ssd1306_sh1106.o (symbol from plugin)
oled_scroll_left                                  .build/obj_karlk90_yaemk_moonlanderlike/ssd1306_sh1106.o (symbol from plugin)
oled_scroll_off                                   .build/obj_karlk90_yaemk_moonlanderlike/ssd1306_sh1106.o (symbol from plugin)
oled_scroll_right                                 .build/obj_karlk90_yaemk_moonlanderlike/ssd1306_sh1106.o (symbol from plugin)
oled_scroll_set_area                              .build/obj_karlk90_yaemk_moonlanderlike/ssd1306_sh1106.o (symbol from plugin)
oled_scroll_set_speed                             .build/obj_karlk90_yaemk_moonlanderlike/ssd1306_sh1106.o (symbol from plugin)
oled_scroll_speed                                 .build/obj_karlk90_yaemk_moonlanderlike/ssd1306_sh1106.o (symbol from plugin)
oled_scroll_start                                 .build/obj_karlk90_yaemk_moonlanderlike/ssd1306_sh1106.o (symbol from plugin)
oled_scrolling                                    /tmp/karlk90_yaemk_moonlanderlike.elf.XW0OFi.ltrans0.ltrans.o
                                                  .build/obj_karlk90_yaemk_moonlanderlike/ssd1306_sh1106.o (symbol from plugin)
                                                  /tmp/karlk90_yaemk_moonlanderlike.elf.XW0OFi.ltrans1.ltrans.o
oled_set_brightness                               .build/obj_karlk90_yaemk_moonlanderlike/ssd1306_sh1106.o (symbol from plugin)
oled_set_cursor                                   .build/obj_karlk90_yaemk_moonlanderlike/ssd1306_sh1106.o (symbol from plugin)
oled_task                                         .build/obj_karlk90_yaemk_moonlanderlike/ssd1306_sh1106.o (symbol from plugin)
                                                  .build/obj_karlk90_yaemk_moonlanderlike/quantum/keyboard.o (symbol from plugin)
oled_task_user                                    .build/obj_karlk90_yaemk_moonlanderlike/keyboards/karlk90/yaemk/yaemk.o (symbol from plugin)
oled_timeout                                      /tmp/karlk90_yaemk_moonlanderlike.elf.XW0OFi.ltrans0.ltrans.o
                                                  .build/obj_karlk90_yaemk_moonlanderlike/ssd1306_sh1106.o (symbol from plugin)
                                                  /tmp/karlk90_yaemk_moonlanderlike.elf.XW0OFi.ltrans1.ltrans.o
oled_update_timeout                               .build/obj_karlk90_yaemk_moonlanderlike/ssd1306_sh1106.o (symbol from plugin)
oled_write                                        .build/obj_karlk90_yaemk_moonlanderlike/ssd1306_sh1106.o (symbol from plugin)
oled_write_char                                   .build/obj_karlk90_yaemk_moonlanderlike/ssd1306_sh1106.o (symbol from plugin)
oled_write_ln                                     .build/obj_karlk90_yaemk_moonlanderlike/ssd1306_sh1106.o (symbol from plugin)
                                                  .build/obj_karlk90_yaemk_moonlanderlike/keyboards/karlk90/yaemk/keymaps/moonlanderlike/keymap.o (symbol from plugin)
oled_write_ln.constprop.0                         /tmp/karlk90_yaemk_moonlanderlike.elf.XW0OFi.ltrans1.ltrans.o
                                                  /tmp/karlk90_yaemk_moonlanderlike.elf.XW0OFi.ltrans0.ltrans.o
oled_write_pixel                                  .build/obj_karlk90_yaemk_moonlanderlike/ssd1306_sh1106.o (symbol from plugin)
oled_write_raw                                    .build/obj_karlk90_yaemk_moonlanderlike/ssd1306_sh1106.o (symbol from plugin)
                                                  .build/obj_karlk90_yaemk_moonlanderlike/keyboards/karlk90/yaemk/yaemk.o (symbol from plugin)
oled_write_raw_byte                               .build/obj_karlk90_yaemk_moonlanderlike/ssd1306_sh1106.o (symbol from plugin)
oneshot_disable                                   .build/obj_karlk90_yaemk_moonlanderlike/quantum/action_util.o (symbol from plugin)
                                                  .build/obj_karlk90_yaemk_moonlanderlike/quantum/quantum.o (symbol from plugin)
oneshot_enable                                    .build/obj_karlk90_yaemk_moonlanderlike/quantum/action_util.o (symbol from plugin)
                                                  .build/obj_karlk90_yaemk_moonlanderlike/quantum/quantum.o (symbol from plugin)
oneshot_layer_changed_kb                          .build/obj_karlk90_yaemk_moonlanderlike/quantum/action_util.o (symbol from plugin)
oneshot_layer_changed_user                        .build/obj_karlk90_yaemk_moonlanderlike/quantum/action_util.o (symbol from plugin)
oneshot_locked_mods_changed_kb                    .build/obj_karlk90_yaemk_moonlanderlike/quantum/action_util.o (symbol from plugin)
oneshot_locked_mods_changed_user                  .build/obj_karlk90_yaemk_moonlanderlike/quantum/action_util.o (symbol from plugin)
oneshot_mods_changed_kb                           .build/obj_karlk90_yaemk_moonlanderlike/quantum/action_util.o (symbol from plugin)
oneshot_mods_changed_user                         .build/obj_karlk90_yaemk_moonlanderlike/quantum/action_util.o (symbol from plugin)
oneshot_set                                       .build/obj_karlk90_yaemk_moonlanderlike/quantum/action_util.o (symbol from plugin)
oneshot_toggle                                    .build/obj_karlk90_yaemk_moonlanderlike/quantum/action_util.o (symbol from plugin)
                                                  .build/obj_karlk90_yaemk_moonlanderlike/quantum/quantum.o (symbol from plugin)
oqGetI                                            .build/obj_karlk90_yaemk/lib/chibios/os/hal/src/hal_queues.o (symbol from plugin)
                                                  .build/obj_karlk90_yaemk/lib/chibios/os/hal/ports/STM32/LLD/USARTv2/hal_serial_lld.o (symbol from plugin)
                                                  .build/obj_karlk90_yaemk/lib/chibios/os/hal/src/hal_serial.o (symbol from plugin)
oqObjectInit                                      .build/obj_karlk90_yaemk/lib/chibios/os/hal/src/hal_queues.o (symbol from plugin)
                                                  .build/obj_karlk90_yaemk/lib/chibios/os/hal/ports/STM32/LLD/USARTv2/hal_serial_lld.o (symbol from plugin)
oqPutI                                            .build/obj_karlk90_yaemk/lib/chibios/os/hal/src/hal_queues.o (symbol from plugin)
oqPutTimeout                                      .build/obj_karlk90_yaemk/lib/chibios/os/hal/src/hal_queues.o (symbol from plugin)
                                                  .build/obj_karlk90_yaemk/lib/chibios/os/hal/src/hal_serial.o (symbol from plugin)
oqResetI                                          .build/obj_karlk90_yaemk/lib/chibios/os/hal/src/hal_queues.o (symbol from plugin)
                                                  .build/obj_karlk90_yaemk/lib/chibios/os/hal/src/hal_serial.o (symbol from plugin)
oqWriteI                                          .build/obj_karlk90_yaemk/lib/chibios/os/hal/src/hal_queues.o (symbol from plugin)
oqWriteTimeout                                    /tmp/karlk90_yaemk_moonlanderlike.elf.XW0OFi.ltrans1.ltrans.o
                                                  .build/obj_karlk90_yaemk/lib/chibios/os/hal/src/hal_queues.o (symbol from plugin)
                                                  .build/obj_karlk90_yaemk/lib/chibios/os/hal/src/hal_serial.o (symbol from plugin)
                                                  .build/obj_karlk90_yaemk_moonlanderlike/serial_usart.a(serial_usart.o)
osal.c.898d1c1e                                   /tmp/ccUQnoNd.debug.temp.o
overflow.lto_priv.0                               /tmp/karlk90_yaemk_moonlanderlike.elf.XW0OFi.ltrans0.ltrans.o
                                                  /tmp/karlk90_yaemk_moonlanderlike.elf.XW0OFi.ltrans1.ltrans.o
palReadBus                                        .build/obj_karlk90_yaemk/lib/chibios/os/hal/src/hal_pal.o (symbol from plugin)
palSetBusMode                                     .build/obj_karlk90_yaemk/lib/chibios/os/hal/src/hal_pal.o (symbol from plugin)
palWriteBus                                       .build/obj_karlk90_yaemk/lib/chibios/os/hal/src/hal_pal.o (symbol from plugin)
peek_matrix                                       .build/obj_karlk90_yaemk_moonlanderlike/quantum/matrix_common.o (symbol from plugin)
perform_space_cadet                               .build/obj_karlk90_yaemk_moonlanderlike/quantum/process_keycode/process_space_cadet.o (symbol from plugin)
perform_space_cadet.constprop.0.isra.0            /tmp/karlk90_yaemk_moonlanderlike.elf.XW0OFi.ltrans1.ltrans.o
                                                  /tmp/karlk90_yaemk_moonlanderlike.elf.XW0OFi.ltrans0.ltrans.o
platform.c.0e37f174                               /tmp/ccu1coHQ.debug.temp.o
                                                  /tmp/karlk90_yaemk_moonlanderlike.elf.XW0OFi.ltrans0.ltrans.o
platform_setup                                    .build/obj_karlk90_yaemk_moonlanderlike/common/chibios/platform.o (symbol from plugin)
                                                  .build/obj_karlk90_yaemk_moonlanderlike/quantum/main.o (symbol from plugin)
port_init                                         .build/obj_karlk90_yaemk/lib/chibios/os/common/ports/ARMCMx/chcore_v7m.o (symbol from plugin)
                                                  .build/obj_karlk90_yaemk/lib/chibios/os/rt/src/chsys.o (symbol from plugin)
post_process_record_kb                            .build/obj_karlk90_yaemk_moonlanderlike/quantum/quantum.o (symbol from plugin)
post_process_record_quantum                       .build/obj_karlk90_yaemk_moonlanderlike/quantum/quantum.o (symbol from plugin)
post_process_record_user                          .build/obj_karlk90_yaemk_moonlanderlike/quantum/quantum.o (symbol from plugin)
pre_process_record_quantum                        .build/obj_karlk90_yaemk_moonlanderlike/quantum/quantum.o (symbol from plugin)
print.c.7d04cfd6                                  /tmp/ccKbKh4E.debug.temp.o
                                                  /tmp/karlk90_yaemk_moonlanderlike.elf.XW0OFi.ltrans0.ltrans.o
print_set_sendchar                                .build/obj_karlk90_yaemk_moonlanderlike/quantum/logging/print.o (symbol from plugin)
                                                  .build/obj_karlk90_yaemk_moonlanderlike/quantum/keyboard.o (symbol from plugin)
printf.c.7b41b9fb                                 /tmp/ccSb3YlV.debug.temp.o
                                                  /tmp/karlk90_yaemk_moonlanderlike.elf.XW0OFi.ltrans1.ltrans.o
                                                  /tmp/karlk90_yaemk_moonlanderlike.elf.XW0OFi.ltrans0.ltrans.o
printf_                                           /tmp/karlk90_yaemk_moonlanderlike.elf.XW0OFi.ltrans0.ltrans.o
                                                  .build/obj_karlk90_yaemk_moonlanderlike/lib/printf/printf.o (symbol from plugin)
                                                  /tmp/karlk90_yaemk_moonlanderlike.elf.XW0OFi.ltrans1.ltrans.o
                                                  .build/obj_karlk90_yaemk_moonlanderlike/protocol/chibios/chibios.o (symbol from plugin)
                                                  .build/obj_karlk90_yaemk_moonlanderlike/common/report.o (symbol from plugin)
                                                  .build/obj_karlk90_yaemk_moonlanderlike/common/host.o (symbol from plugin)
                                                  .build/obj_karlk90_yaemk_moonlanderlike/serial_usart.a(serial_usart.o)
                                                  .build/obj_karlk90_yaemk_moonlanderlike/ssd1306_sh1106.o (symbol from plugin)
                                                  .build/obj_karlk90_yaemk_moonlanderlike/quantum/rgb_matrix/rgb_matrix.o (symbol from plugin)
                                                  .build/obj_karlk90_yaemk_moonlanderlike/quantum/mousekey.o (symbol from plugin)
                                                  .build/obj_karlk90_yaemk_moonlanderlike/quantum/split_common/transactions.o (symbol from plugin)
                                                  .build/obj_karlk90_yaemk_moonlanderlike/quantum/split_common/split_util.o (symbol from plugin)
                                                  .build/obj_karlk90_yaemk_moonlanderlike/quantum/matrix_common.o (symbol from plugin)
                                                  .build/obj_karlk90_yaemk_moonlanderlike/quantum/keyboard.o (symbol from plugin)
                                                  .build/obj_karlk90_yaemk_moonlanderlike/quantum/action_util.o (symbol from plugin)
                                                  .build/obj_karlk90_yaemk_moonlanderlike/quantum/quantum.o (symbol from plugin)
process_action                                    .build/obj_karlk90_yaemk_moonlanderlike/quantum/action.o (symbol from plugin)
process_action_kb                                 .build/obj_karlk90_yaemk_moonlanderlike/quantum/quantum.o (symbol from plugin)
process_grave_esc                                 .build/obj_karlk90_yaemk_moonlanderlike/quantum/process_keycode/process_grave_esc.o (symbol from plugin)
                                                  .build/obj_karlk90_yaemk_moonlanderlike/quantum/quantum.o (symbol from plugin)
process_grave_esc.c.cf5f436c                      /tmp/ccN3fR2P.debug.temp.o
                                                  /tmp/karlk90_yaemk_moonlanderlike.elf.XW0OFi.ltrans0.ltrans.o
process_magic                                     .build/obj_karlk90_yaemk_moonlanderlike/quantum/process_keycode/process_magic.o (symbol from plugin)
                                                  .build/obj_karlk90_yaemk_moonlanderlike/quantum/quantum.o (symbol from plugin)
process_magic.c.e4911d64                          /tmp/ccm3qksS.debug.temp.o
                                                  /tmp/karlk90_yaemk_moonlanderlike.elf.XW0OFi.ltrans0.ltrans.o
process_record                                    .build/obj_karlk90_yaemk_moonlanderlike/quantum/action.o (symbol from plugin)
                                                  .build/obj_karlk90_yaemk_moonlanderlike/quantum/action_tapping.o (symbol from plugin)
process_record_handler                            .build/obj_karlk90_yaemk_moonlanderlike/quantum/action.o (symbol from plugin)
process_record_kb                                 .build/obj_karlk90_yaemk_moonlanderlike/keyboards/karlk90/yaemk/yaemk.o (symbol from plugin)
process_record_nocache                            .build/obj_karlk90_yaemk_moonlanderlike/quantum/action.o (symbol from plugin)
process_record_quantum                            .build/obj_karlk90_yaemk_moonlanderlike/quantum/quantum.o (symbol from plugin)
process_record_tap_hint                           .build/obj_karlk90_yaemk_moonlanderlike/quantum/action.o (symbol from plugin)
                                                  .build/obj_karlk90_yaemk_moonlanderlike/quantum/action_tapping.o (symbol from plugin)
process_record_user                               .build/obj_karlk90_yaemk_moonlanderlike/keyboards/karlk90/yaemk/keymaps/moonlanderlike/keymap.o (symbol from plugin)
                                                  .build/obj_karlk90_yaemk_moonlanderlike/keyboards/karlk90/yaemk/yaemk.o (symbol from plugin)
process_record_via                                .build/obj_karlk90_yaemk_moonlanderlike/quantum/via.o (symbol from plugin)
                                                  .build/obj_karlk90_yaemk_moonlanderlike/quantum/quantum.o (symbol from plugin)
process_rgb                                       .build/obj_karlk90_yaemk_moonlanderlike/quantum/process_keycode/process_rgb.o (symbol from plugin)
                                                  .build/obj_karlk90_yaemk_moonlanderlike/quantum/quantum.o (symbol from plugin)
process_rgb.c.c71ca151                            /tmp/ccS4oibQ.debug.temp.o
                                                  /tmp/karlk90_yaemk_moonlanderlike.elf.XW0OFi.ltrans1.ltrans.o
                                                  /tmp/karlk90_yaemk_moonlanderlike.elf.XW0OFi.ltrans0.ltrans.o
process_rgb_matrix                                .build/obj_karlk90_yaemk_moonlanderlike/quantum/rgb_matrix/rgb_matrix.o (symbol from plugin)
                                                  .build/obj_karlk90_yaemk_moonlanderlike/quantum/keyboard.o (symbol from plugin)
process_rgb_matrix_typing_heatmap                 .build/obj_karlk90_yaemk_moonlanderlike/quantum/rgb_matrix/rgb_matrix.o (symbol from plugin)
process_space_cadet                               .build/obj_karlk90_yaemk_moonlanderlike/quantum/process_keycode/process_space_cadet.o (symbol from plugin)
                                                  .build/obj_karlk90_yaemk_moonlanderlike/quantum/quantum.o (symbol from plugin)
process_space_cadet.c.f56fe32b                    /tmp/ccEP9BKn.debug.temp.o
                                                  /tmp/karlk90_yaemk_moonlanderlike.elf.XW0OFi.ltrans1.ltrans.o
                                                  /tmp/karlk90_yaemk_moonlanderlike.elf.XW0OFi.ltrans0.ltrans.o
protocol_init                                     .build/obj_karlk90_yaemk_moonlanderlike/protocol/chibios/chibios.o (symbol from plugin)
                                                  .build/obj_karlk90_yaemk_moonlanderlike/quantum/main.o (symbol from plugin)
protocol_setup                                    .build/obj_karlk90_yaemk_moonlanderlike/protocol/chibios/chibios.o (symbol from plugin)
                                                  .build/obj_karlk90_yaemk_moonlanderlike/quantum/main.o (symbol from plugin)
protocol_task                                     .build/obj_karlk90_yaemk_moonlanderlike/protocol/chibios/chibios.o (symbol from plugin)
                                                  .build/obj_karlk90_yaemk_moonlanderlike/quantum/main.o (symbol from plugin)
pwmChangePeriod                                   .build/obj_karlk90_yaemk/lib/chibios/os/hal/src/hal_pwm.o (symbol from plugin)
pwmDisableChannel                                 .build/obj_karlk90_yaemk/lib/chibios/os/hal/src/hal_pwm.o (symbol from plugin)
pwmDisableChannelNotification                     .build/obj_karlk90_yaemk/lib/chibios/os/hal/src/hal_pwm.o (symbol from plugin)
pwmDisablePeriodicNotification                    .build/obj_karlk90_yaemk/lib/chibios/os/hal/src/hal_pwm.o (symbol from plugin)
pwmEnableChannel                                  .build/obj_karlk90_yaemk/lib/chibios/os/hal/src/hal_pwm.o (symbol from plugin)
                                                  .build/obj_karlk90_yaemk_moonlanderlike/ws2812_pwm.o (symbol from plugin)
pwmEnableChannelNotification                      .build/obj_karlk90_yaemk/lib/chibios/os/hal/src/hal_pwm.o (symbol from plugin)
pwmEnablePeriodicNotification                     .build/obj_karlk90_yaemk/lib/chibios/os/hal/src/hal_pwm.o (symbol from plugin)
pwmInit                                           .build/obj_karlk90_yaemk/lib/chibios/os/hal/src/hal_pwm.o (symbol from plugin)
                                                  .build/obj_karlk90_yaemk/lib/chibios/os/hal/src/hal.o (symbol from plugin)
pwmObjectInit                                     .build/obj_karlk90_yaemk/lib/chibios/os/hal/src/hal_pwm.o (symbol from plugin)
                                                  .build/obj_karlk90_yaemk/lib/chibios/os/hal/ports/STM32/LLD/TIMv1/hal_pwm_lld.o (symbol from plugin)
pwmStart                                          .build/obj_karlk90_yaemk/lib/chibios/os/hal/src/hal_pwm.o (symbol from plugin)
                                                  .build/obj_karlk90_yaemk_moonlanderlike/ws2812_pwm.o (symbol from plugin)
pwmStop                                           .build/obj_karlk90_yaemk/lib/chibios/os/hal/src/hal_pwm.o (symbol from plugin)
pwm_lld_disable_channel                           .build/obj_karlk90_yaemk/lib/chibios/os/hal/ports/STM32/LLD/TIMv1/hal_pwm_lld.o (symbol from plugin)
                                                  .build/obj_karlk90_yaemk/lib/chibios/os/hal/src/hal_pwm.o (symbol from plugin)
pwm_lld_disable_channel_notification              .build/obj_karlk90_yaemk/lib/chibios/os/hal/ports/STM32/LLD/TIMv1/hal_pwm_lld.o (symbol from plugin)
                                                  .build/obj_karlk90_yaemk/lib/chibios/os/hal/src/hal_pwm.o (symbol from plugin)
pwm_lld_disable_periodic_notification             .build/obj_karlk90_yaemk/lib/chibios/os/hal/ports/STM32/LLD/TIMv1/hal_pwm_lld.o (symbol from plugin)
                                                  .build/obj_karlk90_yaemk/lib/chibios/os/hal/src/hal_pwm.o (symbol from plugin)
pwm_lld_enable_channel                            .build/obj_karlk90_yaemk/lib/chibios/os/hal/ports/STM32/LLD/TIMv1/hal_pwm_lld.o (symbol from plugin)
                                                  .build/obj_karlk90_yaemk/lib/chibios/os/hal/src/hal_pwm.o (symbol from plugin)
pwm_lld_enable_channel_notification               .build/obj_karlk90_yaemk/lib/chibios/os/hal/ports/STM32/LLD/TIMv1/hal_pwm_lld.o (symbol from plugin)
                                                  .build/obj_karlk90_yaemk/lib/chibios/os/hal/src/hal_pwm.o (symbol from plugin)
pwm_lld_enable_periodic_notification              .build/obj_karlk90_yaemk/lib/chibios/os/hal/ports/STM32/LLD/TIMv1/hal_pwm_lld.o (symbol from plugin)
                                                  .build/obj_karlk90_yaemk/lib/chibios/os/hal/src/hal_pwm.o (symbol from plugin)
pwm_lld_init                                      .build/obj_karlk90_yaemk/lib/chibios/os/hal/ports/STM32/LLD/TIMv1/hal_pwm_lld.o (symbol from plugin)
                                                  .build/obj_karlk90_yaemk/lib/chibios/os/hal/src/hal_pwm.o (symbol from plugin)
pwm_lld_serve_interrupt                           .build/obj_karlk90_yaemk/lib/chibios/os/hal/ports/STM32/LLD/TIMv1/hal_pwm_lld.o (symbol from plugin)
                                                  .build/obj_karlk90_yaemk/lib/chibios/os/hal/ports/STM32/STM32F3xx/stm32_isr.o (symbol from plugin)
pwm_lld_start                                     .build/obj_karlk90_yaemk/lib/chibios/os/hal/ports/STM32/LLD/TIMv1/hal_pwm_lld.o (symbol from plugin)
                                                  .build/obj_karlk90_yaemk/lib/chibios/os/hal/src/hal_pwm.o (symbol from plugin)
pwm_lld_stop                                      .build/obj_karlk90_yaemk/lib/chibios/os/hal/ports/STM32/LLD/TIMv1/hal_pwm_lld.o (symbol from plugin)
                                                  .build/obj_karlk90_yaemk/lib/chibios/os/hal/src/hal_pwm.o (symbol from plugin)
qmkusbConfigureHookI                              .build/obj_karlk90_yaemk_moonlanderlike/protocol/chibios/usb_driver.o (symbol from plugin)
                                                  .build/obj_karlk90_yaemk_moonlanderlike/protocol/chibios/usb_main.o (symbol from plugin)
qmkusbDataReceived                                /tmp/karlk90_yaemk_moonlanderlike.elf.XW0OFi.ltrans1.ltrans.o
                                                  .build/obj_karlk90_yaemk_moonlanderlike/protocol/chibios/usb_driver.o (symbol from plugin)
                                                  /tmp/karlk90_yaemk_moonlanderlike.elf.XW0OFi.ltrans0.ltrans.o
                                                  .build/obj_karlk90_yaemk_moonlanderlike/protocol/chibios/usb_main.o (symbol from plugin)
qmkusbDataTransmitted                             /tmp/karlk90_yaemk_moonlanderlike.elf.XW0OFi.ltrans1.ltrans.o
                                                  .build/obj_karlk90_yaemk_moonlanderlike/protocol/chibios/usb_driver.o (symbol from plugin)
                                                  /tmp/karlk90_yaemk_moonlanderlike.elf.XW0OFi.ltrans0.ltrans.o
                                                  .build/obj_karlk90_yaemk_moonlanderlike/protocol/chibios/usb_main.o (symbol from plugin)
qmkusbInit                                        .build/obj_karlk90_yaemk_moonlanderlike/protocol/chibios/usb_driver.o (symbol from plugin)
qmkusbInterruptTransmitted                        /tmp/karlk90_yaemk_moonlanderlike.elf.XW0OFi.ltrans1.ltrans.o
                                                  .build/obj_karlk90_yaemk_moonlanderlike/protocol/chibios/usb_driver.o (symbol from plugin)
                                                  /tmp/karlk90_yaemk_moonlanderlike.elf.XW0OFi.ltrans0.ltrans.o
                                                  .build/obj_karlk90_yaemk_moonlanderlike/protocol/chibios/usb_main.o (symbol from plugin)
qmkusbObjectInit                                  .build/obj_karlk90_yaemk_moonlanderlike/protocol/chibios/usb_driver.o (symbol from plugin)
                                                  .build/obj_karlk90_yaemk_moonlanderlike/protocol/chibios/usb_main.o (symbol from plugin)
qmkusbRequestsHook                                .build/obj_karlk90_yaemk_moonlanderlike/protocol/chibios/usb_driver.o (symbol from plugin)
                                                  .build/obj_karlk90_yaemk_moonlanderlike/protocol/chibios/usb_main.o (symbol from plugin)
qmkusbSOFHookI                                    .build/obj_karlk90_yaemk_moonlanderlike/protocol/chibios/usb_driver.o (symbol from plugin)
                                                  .build/obj_karlk90_yaemk_moonlanderlike/protocol/chibios/usb_main.o (symbol from plugin)
qmkusbStart                                       .build/obj_karlk90_yaemk_moonlanderlike/protocol/chibios/usb_driver.o (symbol from plugin)
                                                  .build/obj_karlk90_yaemk_moonlanderlike/protocol/chibios/usb_main.o (symbol from plugin)
qmkusbStop                                        .build/obj_karlk90_yaemk_moonlanderlike/protocol/chibios/usb_driver.o (symbol from plugin)
qmkusbSuspendHookI                                .build/obj_karlk90_yaemk_moonlanderlike/protocol/chibios/usb_driver.o (symbol from plugin)
                                                  .build/obj_karlk90_yaemk_moonlanderlike/protocol/chibios/usb_main.o (symbol from plugin)
qmkusbWakeupHookI                                 .build/obj_karlk90_yaemk_moonlanderlike/protocol/chibios/usb_driver.o (symbol from plugin)
                                                  .build/obj_karlk90_yaemk_moonlanderlike/protocol/chibios/usb_main.o (symbol from plugin)
quantum.c.9481e5d3                                /tmp/ccW91Jhp.debug.temp.o
                                                  /tmp/karlk90_yaemk_moonlanderlike.elf.XW0OFi.ltrans1.ltrans.o
                                                  /tmp/karlk90_yaemk_moonlanderlike.elf.XW0OFi.ltrans0.ltrans.o
raise                                             /usr/lib/gcc/arm-none-eabi/10.3.1/../../../arm-none-eabi/lib/thumb/v7e-m+fp/hard/libg_nano.a(lib_a-signal.o)
                                                  /usr/lib/gcc/arm-none-eabi/10.3.1/../../../arm-none-eabi/lib/thumb/v7e-m+fp/hard/libg_nano.a(lib_a-abort.o)
rand                                              /usr/lib/gcc/arm-none-eabi/10.3.1/../../../arm-none-eabi/lib/thumb/v7e-m+fp/hard/libg_nano.a(lib_a-rand.o)
                                                  /tmp/karlk90_yaemk_moonlanderlike.elf.XW0OFi.ltrans0.ltrans.o
                                                  .build/obj_karlk90_yaemk_moonlanderlike/quantum/rgb_matrix/rgb_matrix.o (symbol from plugin)
                                                  .build/obj_karlk90_yaemk_moonlanderlike/quantum/send_string.o (symbol from plugin)
rand16seed                                        .build/obj_karlk90_yaemk_moonlanderlike/lib/lib8tion/lib8tion.o (symbol from plugin)
raw_hid_receive                                   .build/obj_karlk90_yaemk_moonlanderlike/quantum/via.o (symbol from plugin)
raw_hid_receive_kb                                .build/obj_karlk90_yaemk_moonlanderlike/quantum/via.o (symbol from plugin)
raw_hid_send                                      .build/obj_karlk90_yaemk_moonlanderlike/protocol/chibios/usb_main.o (symbol from plugin)
                                                  .build/obj_karlk90_yaemk_moonlanderlike/quantum/via.o (symbol from plugin)
raw_hid_task                                      .build/obj_karlk90_yaemk_moonlanderlike/protocol/chibios/usb_main.o (symbol from plugin)
                                                  .build/obj_karlk90_yaemk_moonlanderlike/protocol/chibios/chibios.o (symbol from plugin)
raw_matrix                                        .build/obj_karlk90_yaemk_moonlanderlike/quantum/matrix_common.o (symbol from plugin)
                                                  .build/obj_karlk90_yaemk_moonlanderlike/quantum/matrix.o (symbol from plugin)
read_source_layers_cache                          .build/obj_karlk90_yaemk_moonlanderlike/quantum/action_layer.o (symbol from plugin)
                                                  .build/obj_karlk90_yaemk_moonlanderlike/quantum/quantum.o (symbol from plugin)
real_mods.lto_priv.0                              /tmp/karlk90_yaemk_moonlanderlike.elf.XW0OFi.ltrans0.ltrans.o
                                                  /tmp/karlk90_yaemk_moonlanderlike.elf.XW0OFi.ltrans1.ltrans.o
register_code                                     .build/obj_karlk90_yaemk_moonlanderlike/quantum/action.o (symbol from plugin)
                                                  .build/obj_karlk90_yaemk_moonlanderlike/quantum/send_string.o (symbol from plugin)
                                                  .build/obj_karlk90_yaemk_moonlanderlike/quantum/quantum.o (symbol from plugin)
register_code16                                   .build/obj_karlk90_yaemk_moonlanderlike/quantum/quantum.o (symbol from plugin)
register_code_P.constprop.0                       /tmp/karlk90_yaemk_moonlanderlike.elf.XW0OFi.ltrans1.ltrans.o
                                                  /tmp/karlk90_yaemk_moonlanderlike.elf.XW0OFi.ltrans0.ltrans.o
register_code_deferred                            .build/obj_karlk90_yaemk_moonlanderlike/quantum/action.o (symbol from plugin)
register_mods                                     .build/obj_karlk90_yaemk_moonlanderlike/quantum/action.o (symbol from plugin)
                                                  .build/obj_karlk90_yaemk_moonlanderlike/quantum/process_keycode/process_space_cadet.o (symbol from plugin)
                                                  .build/obj_karlk90_yaemk_moonlanderlike/quantum/quantum.o (symbol from plugin)
register_weak_mods                                .build/obj_karlk90_yaemk_moonlanderlike/quantum/action.o (symbol from plugin)
                                                  .build/obj_karlk90_yaemk_moonlanderlike/quantum/quantum.o (symbol from plugin)
render_display                                    .build/obj_karlk90_yaemk_moonlanderlike/keyboards/karlk90/yaemk/keymaps/moonlanderlike/keymap.o (symbol from plugin)
                                                  .build/obj_karlk90_yaemk_moonlanderlike/keyboards/karlk90/yaemk/yaemk.o (symbol from plugin)
report.c.db18f922                                 /tmp/ccam8VBf.debug.temp.o
                                                  /tmp/karlk90_yaemk_moonlanderlike.elf.XW0OFi.ltrans1.ltrans.o
                                                  /tmp/karlk90_yaemk_moonlanderlike.elf.XW0OFi.ltrans0.ltrans.o
reset_keyboard                                    .build/obj_karlk90_yaemk_moonlanderlike/quantum/quantum.o (symbol from plugin)
reset_oneshot_layer                               .build/obj_karlk90_yaemk_moonlanderlike/quantum/action_util.o (symbol from plugin)
reset_point.lto_priv.0                            /tmp/karlk90_yaemk_moonlanderlike.elf.XW0OFi.ltrans0.ltrans.o
                                                  /tmp/karlk90_yaemk_moonlanderlike.elf.XW0OFi.ltrans1.ltrans.o
restart_usb_driver                                .build/obj_karlk90_yaemk_moonlanderlike/protocol/chibios/usb_main.o (symbol from plugin)
                                                  .build/obj_karlk90_yaemk_moonlanderlike/protocol/chibios/chibios.o (symbol from plugin)
rgb_effect_params.lto_priv.0                      /tmp/karlk90_yaemk_moonlanderlike.elf.XW0OFi.ltrans0.ltrans.o
                                                  /tmp/karlk90_yaemk_moonlanderlike.elf.XW0OFi.ltrans1.ltrans.o
rgb_matrix.c.a758d829                             /tmp/ccvrKOHP.debug.temp.o
                                                  /tmp/karlk90_yaemk_moonlanderlike.elf.XW0OFi.ltrans1.ltrans.o
                                                  /tmp/karlk90_yaemk_moonlanderlike.elf.XW0OFi.ltrans0.ltrans.o
rgb_matrix_config                                 /tmp/karlk90_yaemk_moonlanderlike.elf.XW0OFi.ltrans0.ltrans.o
                                                  .build/obj_karlk90_yaemk_moonlanderlike/quantum/rgb_matrix/rgb_matrix.o (symbol from plugin)
                                                  /tmp/karlk90_yaemk_moonlanderlike.elf.XW0OFi.ltrans1.ltrans.o
                                                  .build/obj_karlk90_yaemk_moonlanderlike/quantum/split_common/transactions.o (symbol from plugin)
                                                  .build/obj_karlk90_yaemk_moonlanderlike/keyboards/karlk90/yaemk/keymaps/moonlanderlike/keymap.o (symbol from plugin)
rgb_matrix_decrease_hue                           /tmp/karlk90_yaemk_moonlanderlike.elf.XW0OFi.ltrans1.ltrans.o
                                                  .build/obj_karlk90_yaemk_moonlanderlike/quantum/rgb_matrix/rgb_matrix.o (symbol from plugin)
                                                  /tmp/karlk90_yaemk_moonlanderlike.elf.XW0OFi.ltrans0.ltrans.o
                                                  .build/obj_karlk90_yaemk_moonlanderlike/quantum/process_keycode/process_rgb.o (symbol from plugin)
rgb_matrix_decrease_hue_helper                    .build/obj_karlk90_yaemk_moonlanderlike/quantum/rgb_matrix/rgb_matrix.o (symbol from plugin)
rgb_matrix_decrease_hue_noeeprom                  .build/obj_karlk90_yaemk_moonlanderlike/quantum/rgb_matrix/rgb_matrix.o (symbol from plugin)
rgb_matrix_decrease_sat                           /tmp/karlk90_yaemk_moonlanderlike.elf.XW0OFi.ltrans1.ltrans.o
                                                  .build/obj_karlk90_yaemk_moonlanderlike/quantum/rgb_matrix/rgb_matrix.o (symbol from plugin)
                                                  /tmp/karlk90_yaemk_moonlanderlike.elf.XW0OFi.ltrans0.ltrans.o
                                                  .build/obj_karlk90_yaemk_moonlanderlike/quantum/process_keycode/process_rgb.o (symbol from plugin)
rgb_matrix_decrease_sat_helper                    .build/obj_karlk90_yaemk_moonlanderlike/quantum/rgb_matrix/rgb_matrix.o (symbol from plugin)
rgb_matrix_decrease_sat_noeeprom                  .build/obj_karlk90_yaemk_moonlanderlike/quantum/rgb_matrix/rgb_matrix.o (symbol from plugin)
rgb_matrix_decrease_speed                         /tmp/karlk90_yaemk_moonlanderlike.elf.XW0OFi.ltrans1.ltrans.o
                                                  .build/obj_karlk90_yaemk_moonlanderlike/quantum/rgb_matrix/rgb_matrix.o (symbol from plugin)
                                                  /tmp/karlk90_yaemk_moonlanderlike.elf.XW0OFi.ltrans0.ltrans.o
                                                  .build/obj_karlk90_yaemk_moonlanderlike/quantum/process_keycode/process_rgb.o (symbol from plugin)
rgb_matrix_decrease_speed_helper                  .build/obj_karlk90_yaemk_moonlanderlike/quantum/rgb_matrix/rgb_matrix.o (symbol from plugin)
rgb_matrix_decrease_speed_noeeprom                .build/obj_karlk90_yaemk_moonlanderlike/quantum/rgb_matrix/rgb_matrix.o (symbol from plugin)
rgb_matrix_decrease_val                           /tmp/karlk90_yaemk_moonlanderlike.elf.XW0OFi.ltrans1.ltrans.o
                                                  .build/obj_karlk90_yaemk_moonlanderlike/quantum/rgb_matrix/rgb_matrix.o (symbol from plugin)
                                                  /tmp/karlk90_yaemk_moonlanderlike.elf.XW0OFi.ltrans0.ltrans.o
                                                  .build/obj_karlk90_yaemk_moonlanderlike/quantum/process_keycode/process_rgb.o (symbol from plugin)
                                                  .build/obj_karlk90_yaemk_moonlanderlike/keyboards/karlk90/yaemk/keymaps/moonlanderlike/keymap.o (symbol from plugin)
rgb_matrix_decrease_val_helper                    .build/obj_karlk90_yaemk_moonlanderlike/quantum/rgb_matrix/rgb_matrix.o (symbol from plugin)
rgb_matrix_decrease_val_noeeprom                  .build/obj_karlk90_yaemk_moonlanderlike/quantum/rgb_matrix/rgb_matrix.o (symbol from plugin)
rgb_matrix_disable                                .build/obj_karlk90_yaemk_moonlanderlike/quantum/rgb_matrix/rgb_matrix.o (symbol from plugin)
                                                  .build/obj_karlk90_yaemk_moonlanderlike/keyboards/karlk90/yaemk/yaemk.o (symbol from plugin)
rgb_matrix_disable_noeeprom                       .build/obj_karlk90_yaemk_moonlanderlike/quantum/rgb_matrix/rgb_matrix.o (symbol from plugin)
rgb_matrix_driver                                 /tmp/karlk90_yaemk_moonlanderlike.elf.XW0OFi.ltrans0.ltrans.o
                                                  .build/obj_karlk90_yaemk_moonlanderlike/quantum/rgb_matrix/rgb_matrix_drivers.o (symbol from plugin)
                                                  .build/obj_karlk90_yaemk_moonlanderlike/quantum/rgb_matrix/rgb_matrix.o (symbol from plugin)
rgb_matrix_drivers.c.899dc6b1                     /tmp/ccvsftI7.debug.temp.o
                                                  /tmp/karlk90_yaemk_moonlanderlike.elf.XW0OFi.ltrans1.ltrans.o
                                                  /tmp/karlk90_yaemk_moonlanderlike.elf.XW0OFi.ltrans0.ltrans.o
rgb_matrix_enable                                 .build/obj_karlk90_yaemk_moonlanderlike/quantum/rgb_matrix/rgb_matrix.o (symbol from plugin)
                                                  .build/obj_karlk90_yaemk_moonlanderlike/keyboards/karlk90/yaemk/yaemk.o (symbol from plugin)
rgb_matrix_enable_noeeprom                        .build/obj_karlk90_yaemk_moonlanderlike/quantum/rgb_matrix/rgb_matrix.o (symbol from plugin)
rgb_matrix_get_flags                              .build/obj_karlk90_yaemk_moonlanderlike/quantum/rgb_matrix/rgb_matrix.o (symbol from plugin)
                                                  .build/obj_karlk90_yaemk_moonlanderlike/keyboards/karlk90/yaemk/yaemk.o (symbol from plugin)
rgb_matrix_get_hsv                                .build/obj_karlk90_yaemk_moonlanderlike/quantum/rgb_matrix/rgb_matrix.o (symbol from plugin)
rgb_matrix_get_hue                                .build/obj_karlk90_yaemk_moonlanderlike/quantum/rgb_matrix/rgb_matrix.o (symbol from plugin)
rgb_matrix_get_mode                               .build/obj_karlk90_yaemk_moonlanderlike/quantum/rgb_matrix/rgb_matrix.o (symbol from plugin)
rgb_matrix_get_sat                                .build/obj_karlk90_yaemk_moonlanderlike/quantum/rgb_matrix/rgb_matrix.o (symbol from plugin)
rgb_matrix_get_speed                              .build/obj_karlk90_yaemk_moonlanderlike/quantum/rgb_matrix/rgb_matrix.o (symbol from plugin)
rgb_matrix_get_suspend_state                      .build/obj_karlk90_yaemk_moonlanderlike/quantum/rgb_matrix/rgb_matrix.o (symbol from plugin)
                                                  .build/obj_karlk90_yaemk_moonlanderlike/quantum/split_common/transactions.o (symbol from plugin)
rgb_matrix_get_val                                .build/obj_karlk90_yaemk_moonlanderlike/quantum/rgb_matrix/rgb_matrix.o (symbol from plugin)
rgb_matrix_hsv_to_rgb                             /tmp/karlk90_yaemk_moonlanderlike.elf.XW0OFi.ltrans0.ltrans.o
                                                  .build/obj_karlk90_yaemk_moonlanderlike/custom_color.o (symbol from plugin)
                                                  /tmp/karlk90_yaemk_moonlanderlike.elf.XW0OFi.ltrans1.ltrans.o
rgb_matrix_increase_hue                           /tmp/karlk90_yaemk_moonlanderlike.elf.XW0OFi.ltrans1.ltrans.o
                                                  .build/obj_karlk90_yaemk_moonlanderlike/quantum/rgb_matrix/rgb_matrix.o (symbol from plugin)
                                                  /tmp/karlk90_yaemk_moonlanderlike.elf.XW0OFi.ltrans0.ltrans.o
                                                  .build/obj_karlk90_yaemk_moonlanderlike/quantum/process_keycode/process_rgb.o (symbol from plugin)
rgb_matrix_increase_hue_helper                    .build/obj_karlk90_yaemk_moonlanderlike/quantum/rgb_matrix/rgb_matrix.o (symbol from plugin)
rgb_matrix_increase_hue_noeeprom                  .build/obj_karlk90_yaemk_moonlanderlike/quantum/rgb_matrix/rgb_matrix.o (symbol from plugin)
rgb_matrix_increase_sat                           /tmp/karlk90_yaemk_moonlanderlike.elf.XW0OFi.ltrans1.ltrans.o
                                                  .build/obj_karlk90_yaemk_moonlanderlike/quantum/rgb_matrix/rgb_matrix.o (symbol from plugin)
                                                  /tmp/karlk90_yaemk_moonlanderlike.elf.XW0OFi.ltrans0.ltrans.o
                                                  .build/obj_karlk90_yaemk_moonlanderlike/quantum/process_keycode/process_rgb.o (symbol from plugin)
rgb_matrix_increase_sat_helper                    .build/obj_karlk90_yaemk_moonlanderlike/quantum/rgb_matrix/rgb_matrix.o (symbol from plugin)
rgb_matrix_increase_sat_noeeprom                  .build/obj_karlk90_yaemk_moonlanderlike/quantum/rgb_matrix/rgb_matrix.o (symbol from plugin)
rgb_matrix_increase_speed                         /tmp/karlk90_yaemk_moonlanderlike.elf.XW0OFi.ltrans1.ltrans.o
                                                  .build/obj_karlk90_yaemk_moonlanderlike/quantum/rgb_matrix/rgb_matrix.o (symbol from plugin)
                                                  /tmp/karlk90_yaemk_moonlanderlike.elf.XW0OFi.ltrans0.ltrans.o
                                                  .build/obj_karlk90_yaemk_moonlanderlike/quantum/process_keycode/process_rgb.o (symbol from plugin)
rgb_matrix_increase_speed_helper                  .build/obj_karlk90_yaemk_moonlanderlike/quantum/rgb_matrix/rgb_matrix.o (symbol from plugin)
rgb_matrix_increase_speed_noeeprom                .build/obj_karlk90_yaemk_moonlanderlike/quantum/rgb_matrix/rgb_matrix.o (symbol from plugin)
rgb_matrix_increase_val                           /tmp/karlk90_yaemk_moonlanderlike.elf.XW0OFi.ltrans1.ltrans.o
                                                  .build/obj_karlk90_yaemk_moonlanderlike/quantum/rgb_matrix/rgb_matrix.o (symbol from plugin)
                                                  /tmp/karlk90_yaemk_moonlanderlike.elf.XW0OFi.ltrans0.ltrans.o
                                                  .build/obj_karlk90_yaemk_moonlanderlike/quantum/process_keycode/process_rgb.o (symbol from plugin)
                                                  .build/obj_karlk90_yaemk_moonlanderlike/keyboards/karlk90/yaemk/keymaps/moonlanderlike/keymap.o (symbol from plugin)
rgb_matrix_increase_val_helper                    .build/obj_karlk90_yaemk_moonlanderlike/quantum/rgb_matrix/rgb_matrix.o (symbol from plugin)
rgb_matrix_increase_val_noeeprom                  .build/obj_karlk90_yaemk_moonlanderlike/quantum/rgb_matrix/rgb_matrix.o (symbol from plugin)
rgb_matrix_indicators                             .build/obj_karlk90_yaemk_moonlanderlike/quantum/rgb_matrix/rgb_matrix.o (symbol from plugin)
rgb_matrix_indicators_advanced                    .build/obj_karlk90_yaemk_moonlanderlike/quantum/rgb_matrix/rgb_matrix.o (symbol from plugin)
rgb_matrix_indicators_advanced_kb                 .build/obj_karlk90_yaemk_moonlanderlike/quantum/rgb_matrix/rgb_matrix.o (symbol from plugin)
rgb_matrix_indicators_advanced_user               .build/obj_karlk90_yaemk_moonlanderlike/quantum/rgb_matrix/rgb_matrix.o (symbol from plugin)
rgb_matrix_indicators_kb                          .build/obj_karlk90_yaemk_moonlanderlike/quantum/rgb_matrix/rgb_matrix.o (symbol from plugin)
rgb_matrix_indicators_user                        .build/obj_karlk90_yaemk_moonlanderlike/quantum/rgb_matrix/rgb_matrix.o (symbol from plugin)
rgb_matrix_init                                   .build/obj_karlk90_yaemk_moonlanderlike/quantum/rgb_matrix/rgb_matrix.o (symbol from plugin)
                                                  .build/obj_karlk90_yaemk_moonlanderlike/quantum/quantum.o (symbol from plugin)
rgb_matrix_is_enabled                             .build/obj_karlk90_yaemk_moonlanderlike/quantum/rgb_matrix/rgb_matrix.o (symbol from plugin)
rgb_matrix_map_row_column_to_led                  .build/obj_karlk90_yaemk_moonlanderlike/quantum/rgb_matrix/rgb_matrix.o (symbol from plugin)
rgb_matrix_map_row_column_to_led_kb               .build/obj_karlk90_yaemk_moonlanderlike/quantum/rgb_matrix/rgb_matrix.o (symbol from plugin)
rgb_matrix_mode                                   .build/obj_karlk90_yaemk_moonlanderlike/quantum/rgb_matrix/rgb_matrix.o (symbol from plugin)
                                                  .build/obj_karlk90_yaemk_moonlanderlike/quantum/process_keycode/process_rgb.o (symbol from plugin)
rgb_matrix_mode_eeprom_helper                     .build/obj_karlk90_yaemk_moonlanderlike/quantum/rgb_matrix/rgb_matrix.o (symbol from plugin)
rgb_matrix_mode_eeprom_helper.constprop.0         /tmp/karlk90_yaemk_moonlanderlike.elf.XW0OFi.ltrans1.ltrans.o
                                                  /tmp/karlk90_yaemk_moonlanderlike.elf.XW0OFi.ltrans0.ltrans.o
rgb_matrix_mode_noeeprom                          .build/obj_karlk90_yaemk_moonlanderlike/quantum/rgb_matrix/rgb_matrix.o (symbol from plugin)
rgb_matrix_set_color                              /tmp/karlk90_yaemk_moonlanderlike.elf.XW0OFi.ltrans0.ltrans.o
                                                  .build/obj_karlk90_yaemk_moonlanderlike/quantum/rgb_matrix/rgb_matrix.o (symbol from plugin)
                                                  /tmp/karlk90_yaemk_moonlanderlike.elf.XW0OFi.ltrans1.ltrans.o
rgb_matrix_set_color.constprop.0                  /tmp/karlk90_yaemk_moonlanderlike.elf.XW0OFi.ltrans1.ltrans.o
                                                  /tmp/karlk90_yaemk_moonlanderlike.elf.XW0OFi.ltrans0.ltrans.o
rgb_matrix_set_color_all                          .build/obj_karlk90_yaemk_moonlanderlike/quantum/rgb_matrix/rgb_matrix.o (symbol from plugin)
rgb_matrix_set_flags                              .build/obj_karlk90_yaemk_moonlanderlike/quantum/rgb_matrix/rgb_matrix.o (symbol from plugin)
                                                  .build/obj_karlk90_yaemk_moonlanderlike/keyboards/karlk90/yaemk/yaemk.o (symbol from plugin)
rgb_matrix_set_speed                              .build/obj_karlk90_yaemk_moonlanderlike/quantum/rgb_matrix/rgb_matrix.o (symbol from plugin)
rgb_matrix_set_speed_eeprom_helper                .build/obj_karlk90_yaemk_moonlanderlike/quantum/rgb_matrix/rgb_matrix.o (symbol from plugin)
rgb_matrix_set_speed_noeeprom                     .build/obj_karlk90_yaemk_moonlanderlike/quantum/rgb_matrix/rgb_matrix.o (symbol from plugin)
rgb_matrix_set_suspend_state                      .build/obj_karlk90_yaemk_moonlanderlike/quantum/rgb_matrix/rgb_matrix.o (symbol from plugin)
                                                  .build/obj_karlk90_yaemk_moonlanderlike/quantum/split_common/transactions.o (symbol from plugin)
                                                  .build/obj_karlk90_yaemk_moonlanderlike/quantum/quantum.o (symbol from plugin)
rgb_matrix_sethsv                                 .build/obj_karlk90_yaemk_moonlanderlike/quantum/rgb_matrix/rgb_matrix.o (symbol from plugin)
rgb_matrix_sethsv_eeprom_helper                   .build/obj_karlk90_yaemk_moonlanderlike/quantum/rgb_matrix/rgb_matrix.o (symbol from plugin)
rgb_matrix_sethsv_noeeprom                        .build/obj_karlk90_yaemk_moonlanderlike/quantum/rgb_matrix/rgb_matrix.o (symbol from plugin)
rgb_matrix_step                                   /tmp/karlk90_yaemk_moonlanderlike.elf.XW0OFi.ltrans1.ltrans.o
                                                  .build/obj_karlk90_yaemk_moonlanderlike/quantum/rgb_matrix/rgb_matrix.o (symbol from plugin)
                                                  /tmp/karlk90_yaemk_moonlanderlike.elf.XW0OFi.ltrans0.ltrans.o
                                                  .build/obj_karlk90_yaemk_moonlanderlike/quantum/process_keycode/process_rgb.o (symbol from plugin)
rgb_matrix_step_helper                            .build/obj_karlk90_yaemk_moonlanderlike/quantum/rgb_matrix/rgb_matrix.o (symbol from plugin)
rgb_matrix_step_noeeprom                          .build/obj_karlk90_yaemk_moonlanderlike/quantum/rgb_matrix/rgb_matrix.o (symbol from plugin)
rgb_matrix_step_reverse                           /tmp/karlk90_yaemk_moonlanderlike.elf.XW0OFi.ltrans1.ltrans.o
                                                  .build/obj_karlk90_yaemk_moonlanderlike/quantum/rgb_matrix/rgb_matrix.o (symbol from plugin)
                                                  /tmp/karlk90_yaemk_moonlanderlike.elf.XW0OFi.ltrans0.ltrans.o
                                                  .build/obj_karlk90_yaemk_moonlanderlike/quantum/process_keycode/process_rgb.o (symbol from plugin)
rgb_matrix_step_reverse_helper                    .build/obj_karlk90_yaemk_moonlanderlike/quantum/rgb_matrix/rgb_matrix.o (symbol from plugin)
rgb_matrix_step_reverse_noeeprom                  .build/obj_karlk90_yaemk_moonlanderlike/quantum/rgb_matrix/rgb_matrix.o (symbol from plugin)
rgb_matrix_task                                   .build/obj_karlk90_yaemk_moonlanderlike/quantum/rgb_matrix/rgb_matrix.o (symbol from plugin)
                                                  .build/obj_karlk90_yaemk_moonlanderlike/quantum/keyboard.o (symbol from plugin)
                                                  .build/obj_karlk90_yaemk_moonlanderlike/quantum/quantum.o (symbol from plugin)
rgb_matrix_test                                   .build/obj_karlk90_yaemk_moonlanderlike/quantum/rgb_matrix/rgb_matrix.o (symbol from plugin)
rgb_matrix_toggle                                 .build/obj_karlk90_yaemk_moonlanderlike/quantum/rgb_matrix/rgb_matrix.o (symbol from plugin)
                                                  .build/obj_karlk90_yaemk_moonlanderlike/quantum/process_keycode/process_rgb.o (symbol from plugin)
rgb_matrix_toggle_eeprom_helper                   .build/obj_karlk90_yaemk_moonlanderlike/quantum/rgb_matrix/rgb_matrix.o (symbol from plugin)
rgb_matrix_toggle_noeeprom                        .build/obj_karlk90_yaemk_moonlanderlike/quantum/rgb_matrix/rgb_matrix.o (symbol from plugin)
rgb_matrix_update_pwm_buffers                     .build/obj_karlk90_yaemk_moonlanderlike/quantum/rgb_matrix/rgb_matrix.o (symbol from plugin)
rgb_matrix_ws2812_array                           .build/obj_karlk90_yaemk_moonlanderlike/quantum/rgb_matrix/rgb_matrix_drivers.o (symbol from plugin)
rgb_task_state.lto_priv.0                         /tmp/karlk90_yaemk_moonlanderlike.elf.XW0OFi.ltrans0.ltrans.o
                                                  /tmp/karlk90_yaemk_moonlanderlike.elf.XW0OFi.ltrans1.ltrans.o
sc_last.lto_priv.0                                /tmp/karlk90_yaemk_moonlanderlike.elf.XW0OFi.ltrans0.ltrans.o
                                                  /tmp/karlk90_yaemk_moonlanderlike.elf.XW0OFi.ltrans1.ltrans.o
sdControl                                         .build/obj_karlk90_yaemk/lib/chibios/os/hal/src/hal_serial.o (symbol from plugin)
sdGetWouldBlock                                   .build/obj_karlk90_yaemk/lib/chibios/os/hal/src/hal_serial.o (symbol from plugin)
sdIncomingDataI                                   .build/obj_karlk90_yaemk/lib/chibios/os/hal/src/hal_serial.o (symbol from plugin)
                                                  .build/obj_karlk90_yaemk/lib/chibios/os/hal/ports/STM32/LLD/USARTv2/hal_serial_lld.o (symbol from plugin)
sdInit                                            .build/obj_karlk90_yaemk/lib/chibios/os/hal/src/hal_serial.o (symbol from plugin)
                                                  .build/obj_karlk90_yaemk/lib/chibios/os/hal/src/hal.o (symbol from plugin)
sdObjectInit                                      .build/obj_karlk90_yaemk/lib/chibios/os/hal/src/hal_serial.o (symbol from plugin)
                                                  .build/obj_karlk90_yaemk/lib/chibios/os/hal/ports/STM32/LLD/USARTv2/hal_serial_lld.o (symbol from plugin)
sdPutWouldBlock                                   .build/obj_karlk90_yaemk/lib/chibios/os/hal/src/hal_serial.o (symbol from plugin)
sdRequestDataI                                    .build/obj_karlk90_yaemk/lib/chibios/os/hal/src/hal_serial.o (symbol from plugin)
sdStart                                           /tmp/karlk90_yaemk_moonlanderlike.elf.XW0OFi.ltrans1.ltrans.o
                                                  .build/obj_karlk90_yaemk/lib/chibios/os/hal/src/hal_serial.o (symbol from plugin)
                                                  .build/obj_karlk90_yaemk_moonlanderlike/serial_usart.a(serial_usart.o)
sdStop                                            .build/obj_karlk90_yaemk/lib/chibios/os/hal/src/hal_serial.o (symbol from plugin)
sd_lld_init                                       .build/obj_karlk90_yaemk/lib/chibios/os/hal/ports/STM32/LLD/USARTv2/hal_serial_lld.o (symbol from plugin)
                                                  .build/obj_karlk90_yaemk/lib/chibios/os/hal/src/hal_serial.o (symbol from plugin)
sd_lld_serve_interrupt                            .build/obj_karlk90_yaemk/lib/chibios/os/hal/ports/STM32/LLD/USARTv2/hal_serial_lld.o (symbol from plugin)
sd_lld_start                                      .build/obj_karlk90_yaemk/lib/chibios/os/hal/ports/STM32/LLD/USARTv2/hal_serial_lld.o (symbol from plugin)
                                                  .build/obj_karlk90_yaemk/lib/chibios/os/hal/src/hal_serial.o (symbol from plugin)
sd_lld_stop                                       .build/obj_karlk90_yaemk/lib/chibios/os/hal/ports/STM32/LLD/USARTv2/hal_serial_lld.o (symbol from plugin)
                                                  .build/obj_karlk90_yaemk/lib/chibios/os/hal/src/hal_serial.o (symbol from plugin)
send_byte                                         .build/obj_karlk90_yaemk_moonlanderlike/quantum/send_string.o (symbol from plugin)
send_char                                         .build/obj_karlk90_yaemk_moonlanderlike/quantum/send_string.o (symbol from plugin)
send_consumer                                     /tmp/karlk90_yaemk_moonlanderlike.elf.XW0OFi.ltrans1.ltrans.o
                                                  .build/obj_karlk90_yaemk_moonlanderlike/protocol/chibios/usb_main.o (symbol from plugin)
                                                  /tmp/karlk90_yaemk_moonlanderlike.elf.XW0OFi.ltrans0.ltrans.o
                                                  .build/obj_karlk90_yaemk_moonlanderlike/protocol/chibios/chibios.o (symbol from plugin)
send_digitizer                                    .build/obj_karlk90_yaemk_moonlanderlike/protocol/chibios/usb_main.o (symbol from plugin)
                                                  .build/obj_karlk90_yaemk_moonlanderlike/common/host.o (symbol from plugin)
send_dword                                        .build/obj_karlk90_yaemk_moonlanderlike/quantum/send_string.o (symbol from plugin)
send_keyboard                                     /tmp/karlk90_yaemk_moonlanderlike.elf.XW0OFi.ltrans1.ltrans.o
                                                  .build/obj_karlk90_yaemk_moonlanderlike/protocol/chibios/usb_main.o (symbol from plugin)
                                                  /tmp/karlk90_yaemk_moonlanderlike.elf.XW0OFi.ltrans0.ltrans.o
                                                  .build/obj_karlk90_yaemk_moonlanderlike/protocol/chibios/chibios.o (symbol from plugin)
send_keyboard_report                              /tmp/karlk90_yaemk_moonlanderlike.elf.XW0OFi.ltrans0.ltrans.o
                                                  .build/obj_karlk90_yaemk_moonlanderlike/quantum/action_util.o (symbol from plugin)
                                                  /tmp/karlk90_yaemk_moonlanderlike.elf.XW0OFi.ltrans1.ltrans.o
                                                  .build/obj_karlk90_yaemk_moonlanderlike/protocol/chibios/chibios.o (symbol from plugin)
                                                  .build/obj_karlk90_yaemk_moonlanderlike/quantum/process_keycode/process_grave_esc.o (symbol from plugin)
                                                  .build/obj_karlk90_yaemk_moonlanderlike/quantum/action.o (symbol from plugin)
send_keyboard_report_buffered_unregister_keys     .build/obj_karlk90_yaemk_moonlanderlike/quantum/action_util.o (symbol from plugin)
                                                  .build/obj_karlk90_yaemk_moonlanderlike/quantum/keyboard.o (symbol from plugin)
send_keyboard_report_deferred                     .build/obj_karlk90_yaemk_moonlanderlike/quantum/action_util.o (symbol from plugin)
                                                  .build/obj_karlk90_yaemk_moonlanderlike/quantum/action.o (symbol from plugin)
send_keyboard_report_immediate                    .build/obj_karlk90_yaemk_moonlanderlike/quantum/action_util.o (symbol from plugin)
                                                  .build/obj_karlk90_yaemk_moonlanderlike/quantum/keyboard.o (symbol from plugin)
send_mouse                                        /tmp/karlk90_yaemk_moonlanderlike.elf.XW0OFi.ltrans1.ltrans.o
                                                  .build/obj_karlk90_yaemk_moonlanderlike/protocol/chibios/usb_main.o (symbol from plugin)
                                                  /tmp/karlk90_yaemk_moonlanderlike.elf.XW0OFi.ltrans0.ltrans.o
                                                  .build/obj_karlk90_yaemk_moonlanderlike/protocol/chibios/chibios.o (symbol from plugin)
send_nibble                                       .build/obj_karlk90_yaemk_moonlanderlike/quantum/send_string.o (symbol from plugin)
send_string                                       .build/obj_karlk90_yaemk_moonlanderlike/quantum/send_string.o (symbol from plugin)
                                                  .build/obj_karlk90_yaemk_moonlanderlike/quantum/dynamic_keymap.o (symbol from plugin)
send_string.c.84c44033                            /tmp/cc1n2tj8.debug.temp.o
                                                  /tmp/karlk90_yaemk_moonlanderlike.elf.XW0OFi.ltrans0.ltrans.o
send_string_P                                     .build/obj_karlk90_yaemk_moonlanderlike/quantum/send_string.o (symbol from plugin)
send_string_with_delay                            .build/obj_karlk90_yaemk_moonlanderlike/quantum/send_string.o (symbol from plugin)
send_string_with_delay_P                          .build/obj_karlk90_yaemk_moonlanderlike/quantum/send_string.o (symbol from plugin)
send_system                                       /tmp/karlk90_yaemk_moonlanderlike.elf.XW0OFi.ltrans1.ltrans.o
                                                  .build/obj_karlk90_yaemk_moonlanderlike/protocol/chibios/usb_main.o (symbol from plugin)
                                                  /tmp/karlk90_yaemk_moonlanderlike.elf.XW0OFi.ltrans0.ltrans.o
                                                  .build/obj_karlk90_yaemk_moonlanderlike/protocol/chibios/chibios.o (symbol from plugin)
send_word                                         .build/obj_karlk90_yaemk_moonlanderlike/quantum/send_string.o (symbol from plugin)
sendchar                                          /tmp/karlk90_yaemk_moonlanderlike.elf.XW0OFi.ltrans1.ltrans.o
                                                  .build/obj_karlk90_yaemk_moonlanderlike/protocol/chibios/usb_main.o (symbol from plugin)
                                                  .build/obj_karlk90_yaemk_moonlanderlike/quantum/logging/sendchar.o (symbol from plugin)
                                                  /tmp/karlk90_yaemk_moonlanderlike.elf.XW0OFi.ltrans0.ltrans.o
                                                  .build/obj_karlk90_yaemk_moonlanderlike/quantum/keyboard.o (symbol from plugin)
sendchar.c.de545915                               /tmp/ccDHRplC.debug.temp.o
set_macro_mods                                    .build/obj_karlk90_yaemk_moonlanderlike/quantum/action_util.o (symbol from plugin)
set_mods                                          .build/obj_karlk90_yaemk_moonlanderlike/quantum/action_util.o (symbol from plugin)
                                                  .build/obj_karlk90_yaemk_moonlanderlike/keyboards/karlk90/yaemk/keymaps/moonlanderlike/keymap.o (symbol from plugin)
set_oneshot_layer                                 .build/obj_karlk90_yaemk_moonlanderlike/quantum/action_util.o (symbol from plugin)
                                                  .build/obj_karlk90_yaemk_moonlanderlike/quantum/action.o (symbol from plugin)
set_oneshot_locked_mods                           .build/obj_karlk90_yaemk_moonlanderlike/quantum/action_util.o (symbol from plugin)
set_oneshot_mods                                  .build/obj_karlk90_yaemk_moonlanderlike/quantum/action_util.o (symbol from plugin)
                                                  .build/obj_karlk90_yaemk_moonlanderlike/quantum/action.o (symbol from plugin)
set_single_persistent_default_layer               .build/obj_karlk90_yaemk_moonlanderlike/quantum/quantum.o (symbol from plugin)
set_split_host_keyboard_leds                      .build/obj_karlk90_yaemk_moonlanderlike/common/host.o (symbol from plugin)
                                                  .build/obj_karlk90_yaemk_moonlanderlike/quantum/split_common/transactions.o (symbol from plugin)
set_weak_mods                                     .build/obj_karlk90_yaemk_moonlanderlike/quantum/action_util.o (symbol from plugin)
setled.lto_priv.0                                 /tmp/karlk90_yaemk_moonlanderlike.elf.XW0OFi.ltrans1.ltrans.o
                                                  /tmp/karlk90_yaemk_moonlanderlike.elf.XW0OFi.ltrans0.ltrans.o
setled_all.lto_priv.0                             /tmp/karlk90_yaemk_moonlanderlike.elf.XW0OFi.ltrans1.ltrans.o
                                                  /tmp/karlk90_yaemk_moonlanderlike.elf.XW0OFi.ltrans0.ltrans.o
shared_in_cb                                      .build/obj_karlk90_yaemk_moonlanderlike/protocol/chibios/usb_main.o (symbol from plugin)
should_process_keypress                           .build/obj_karlk90_yaemk_moonlanderlike/quantum/keyboard.o (symbol from plugin)
shutdown_user                                     /tmp/karlk90_yaemk_moonlanderlike.elf.XW0OFi.ltrans0.ltrans.o
                                                  .build/obj_karlk90_yaemk_moonlanderlike/quantum/quantum.o (symbol from plugin)
signal                                            /usr/lib/gcc/arm-none-eabi/10.3.1/../../../arm-none-eabi/lib/thumb/v7e-m+fp/hard/libg_nano.a(lib_a-signal.o)
sin8_C.lto_priv.0                                 /tmp/karlk90_yaemk_moonlanderlike.elf.XW0OFi.ltrans0.ltrans.o
snprintf_                                         .build/obj_karlk90_yaemk_moonlanderlike/lib/printf/printf.o (symbol from plugin)
                                                  .build/obj_karlk90_yaemk_moonlanderlike/keyboards/karlk90/yaemk/keymaps/moonlanderlike/keymap.o (symbol from plugin)
snprintf_.constprop.0                             /tmp/karlk90_yaemk_moonlanderlike.elf.XW0OFi.ltrans1.ltrans.o
                                                  /tmp/karlk90_yaemk_moonlanderlike.elf.XW0OFi.ltrans0.ltrans.o
soft_serial_initiator_init                        .build/obj_karlk90_yaemk_moonlanderlike/serial_usart.a(serial_usart.o)
                                                  /tmp/karlk90_yaemk_moonlanderlike.elf.XW0OFi.ltrans0.ltrans.o
                                                  .build/obj_karlk90_yaemk_moonlanderlike/quantum/split_common/transport.o (symbol from plugin)
soft_serial_target_init                           .build/obj_karlk90_yaemk_moonlanderlike/serial_usart.a(serial_usart.o)
                                                  /tmp/karlk90_yaemk_moonlanderlike.elf.XW0OFi.ltrans0.ltrans.o
                                                  .build/obj_karlk90_yaemk_moonlanderlike/quantum/split_common/transport.o (symbol from plugin)
soft_serial_transaction                           .build/obj_karlk90_yaemk_moonlanderlike/serial_usart.a(serial_usart.o)
                                                  /tmp/karlk90_yaemk_moonlanderlike.elf.XW0OFi.ltrans0.ltrans.o
                                                  .build/obj_karlk90_yaemk_moonlanderlike/quantum/split_common/transport.o (symbol from plugin)
source_layers_cache                               /tmp/karlk90_yaemk_moonlanderlike.elf.XW0OFi.ltrans0.ltrans.o
                                                  .build/obj_karlk90_yaemk_moonlanderlike/quantum/action_layer.o (symbol from plugin)
                                                  /tmp/karlk90_yaemk_moonlanderlike.elf.XW0OFi.ltrans1.ltrans.o
split_led_state                                   .build/obj_karlk90_yaemk_moonlanderlike/common/host.o (symbol from plugin)
split_post_init                                   .build/obj_karlk90_yaemk_moonlanderlike/quantum/split_common/split_util.o (symbol from plugin)
                                                  .build/obj_karlk90_yaemk_moonlanderlike/quantum/matrix.o (symbol from plugin)
split_pre_init                                    .build/obj_karlk90_yaemk_moonlanderlike/quantum/split_common/split_util.o (symbol from plugin)
                                                  .build/obj_karlk90_yaemk_moonlanderlike/quantum/matrix.o (symbol from plugin)
split_shmem                                       /tmp/karlk90_yaemk_moonlanderlike.elf.XW0OFi.ltrans0.ltrans.o
                                                  .build/obj_karlk90_yaemk_moonlanderlike/quantum/split_common/transport.o (symbol from plugin)
                                                  .build/obj_karlk90_yaemk_moonlanderlike/serial_usart.a(serial_usart.o)
                                                  .build/obj_karlk90_yaemk_moonlanderlike/quantum/split_common/transactions.o (symbol from plugin)
split_transaction_table                           /tmp/karlk90_yaemk_moonlanderlike.elf.XW0OFi.ltrans0.ltrans.o
                                                  .build/obj_karlk90_yaemk_moonlanderlike/quantum/split_common/transactions.o (symbol from plugin)
                                                  .build/obj_karlk90_yaemk_moonlanderlike/serial_usart.a(serial_usart.o)
                                                  .build/obj_karlk90_yaemk_moonlanderlike/quantum/split_common/transport.o (symbol from plugin)
split_util.c.83ca5e1a                             /tmp/cc7Z7BLY.debug.temp.o
                                                  /tmp/karlk90_yaemk_moonlanderlike.elf.XW0OFi.ltrans1.ltrans.o
                                                  /tmp/karlk90_yaemk_moonlanderlike.elf.XW0OFi.ltrans0.ltrans.o
sprintf_                                          .build/obj_karlk90_yaemk_moonlanderlike/lib/printf/printf.o (symbol from plugin)
srand                                             /usr/lib/gcc/arm-none-eabi/10.3.1/../../../arm-none-eabi/lib/thumb/v7e-m+fp/hard/libg_nano.a(lib_a-rand.o)
ssd1306_sh1106.c.632d8ca2                         /tmp/ccf7tNaY.debug.temp.o
                                                  /tmp/karlk90_yaemk_moonlanderlike.elf.XW0OFi.ltrans1.ltrans.o
                                                  /tmp/karlk90_yaemk_moonlanderlike.elf.XW0OFi.ltrans0.ltrans.o
stGetAlarm                                        .build/obj_karlk90_yaemk/lib/chibios/os/hal/src/hal_st.o (symbol from plugin)
stGetCounter                                      .build/obj_karlk90_yaemk/lib/chibios/os/hal/src/hal_st.o (symbol from plugin)
                                                  .build/obj_karlk90_yaemk/lib/chibios/os/hal/ports/STM32/LLD/I2Cv2/hal_i2c_lld.o (symbol from plugin)
                                                  .build/obj_karlk90_yaemk/lib/chibios/os/rt/src/chthreads.o (symbol from plugin)
                                                  .build/obj_karlk90_yaemk/lib/chibios/os/rt/src/chvt.o (symbol from plugin)
                                                  .build/obj_karlk90_yaemk_moonlanderlike/common/chibios/timer.o (symbol from plugin)
stInit                                            .build/obj_karlk90_yaemk/lib/chibios/os/hal/src/hal_st.o (symbol from plugin)
                                                  .build/obj_karlk90_yaemk/lib/chibios/os/hal/src/hal.o (symbol from plugin)
stIsAlarmActive                                   .build/obj_karlk90_yaemk/lib/chibios/os/hal/src/hal_st.o (symbol from plugin)
stSetAlarm                                        .build/obj_karlk90_yaemk/lib/chibios/os/hal/src/hal_st.o (symbol from plugin)
                                                  .build/obj_karlk90_yaemk/lib/chibios/os/rt/src/chvt.o (symbol from plugin)
stStartAlarm                                      .build/obj_karlk90_yaemk/lib/chibios/os/hal/src/hal_st.o (symbol from plugin)
                                                  .build/obj_karlk90_yaemk/lib/chibios/os/rt/src/chvt.o (symbol from plugin)
stStopAlarm                                       .build/obj_karlk90_yaemk/lib/chibios/os/hal/src/hal_st.o (symbol from plugin)
                                                  .build/obj_karlk90_yaemk/lib/chibios/os/rt/src/chvt.o (symbol from plugin)
st_lld_init                                       .build/obj_karlk90_yaemk/lib/chibios/os/hal/ports/STM32/LLD/TIMv1/hal_st_lld.o (symbol from plugin)
                                                  .build/obj_karlk90_yaemk/lib/chibios/os/hal/src/hal_st.o (symbol from plugin)
st_lld_serve_interrupt                            .build/obj_karlk90_yaemk/lib/chibios/os/hal/ports/STM32/LLD/TIMv1/hal_st_lld.o (symbol from plugin)
startup_user                                      .build/obj_karlk90_yaemk_moonlanderlike/quantum/quantum.o (symbol from plugin)
stm32_clock_init                                  .build/obj_karlk90_yaemk/lib/chibios/os/hal/ports/STM32/STM32F3xx/hal_lld.o (symbol from plugin)
                                                  .build/obj_karlk90_yaemk/lib/chibios/os/hal/boards/ST_STM32F3_DISCOVERY/board.o (symbol from plugin)
stm32_dma.c.2af44791                              /tmp/ccVjpK5C.debug.temp.o
                                                  /tmp/karlk90_yaemk_moonlanderlike.elf.XW0OFi.ltrans1.ltrans.o
                                                  /tmp/karlk90_yaemk_moonlanderlike.elf.XW0OFi.ltrans0.ltrans.o
stm32_exti.c.4d00b28c                             /tmp/cclQDPvW.debug.temp.o
stm32_isr.c.0f3dad5d                              /tmp/ccLjXG4Y.debug.temp.o
                                                  /tmp/karlk90_yaemk_moonlanderlike.elf.XW0OFi.ltrans1.ltrans.o
                                                  /tmp/karlk90_yaemk_moonlanderlike.elf.XW0OFi.ltrans0.ltrans.o
store_or_get_action                               .build/obj_karlk90_yaemk_moonlanderlike/quantum/action_layer.o (symbol from plugin)
                                                  .build/obj_karlk90_yaemk_moonlanderlike/quantum/action.o (symbol from plugin)
strlen                                            /usr/lib/gcc/arm-none-eabi/10.3.1/../../../arm-none-eabi/lib/thumb/v7e-m+fp/hard/libg_nano.a(lib_a-strlen.o)
                                                  /tmp/karlk90_yaemk_moonlanderlike.elf.XW0OFi.ltrans1.ltrans.o
suspend.c.86a662df                                /tmp/cczSDEhq.debug.temp.o
                                                  /tmp/karlk90_yaemk_moonlanderlike.elf.XW0OFi.ltrans0.ltrans.o
suspend_idle                                      .build/obj_karlk90_yaemk_moonlanderlike/common/chibios/suspend.o (symbol from plugin)
suspend_power_down                                .build/obj_karlk90_yaemk_moonlanderlike/common/chibios/suspend.o (symbol from plugin)
                                                  .build/obj_karlk90_yaemk_moonlanderlike/protocol/chibios/chibios.o (symbol from plugin)
suspend_power_down_kb                             .build/obj_karlk90_yaemk_moonlanderlike/quantum/quantum.o (symbol from plugin)
suspend_power_down_quantum                        .build/obj_karlk90_yaemk_moonlanderlike/quantum/quantum.o (symbol from plugin)
                                                  .build/obj_karlk90_yaemk_moonlanderlike/common/chibios/suspend.o (symbol from plugin)
suspend_power_down_user                           .build/obj_karlk90_yaemk_moonlanderlike/quantum/quantum.o (symbol from plugin)
suspend_wakeup_condition                          .build/obj_karlk90_yaemk_moonlanderlike/common/chibios/suspend.o (symbol from plugin)
                                                  .build/obj_karlk90_yaemk_moonlanderlike/protocol/chibios/chibios.o (symbol from plugin)
suspend_wakeup_init                               .build/obj_karlk90_yaemk_moonlanderlike/common/chibios/suspend.o (symbol from plugin)
                                                  .build/obj_karlk90_yaemk_moonlanderlike/protocol/chibios/usb_main.o (symbol from plugin)
suspend_wakeup_init_kb                            .build/obj_karlk90_yaemk_moonlanderlike/quantum/quantum.o (symbol from plugin)
suspend_wakeup_init_quantum                       .build/obj_karlk90_yaemk_moonlanderlike/quantum/quantum.o (symbol from plugin)
                                                  .build/obj_karlk90_yaemk_moonlanderlike/common/chibios/suspend.o (symbol from plugin)
suspend_wakeup_init_user                          .build/obj_karlk90_yaemk_moonlanderlike/quantum/quantum.o (symbol from plugin)
switch_events                                     .build/obj_karlk90_yaemk_moonlanderlike/quantum/keyboard.o (symbol from plugin)
sync_timer.c.2f097f37                             /tmp/ccNdgF9w.debug.temp.o
                                                  /tmp/karlk90_yaemk_moonlanderlike.elf.XW0OFi.ltrans0.ltrans.o
sync_timer_elapsed                                .build/obj_karlk90_yaemk_moonlanderlike/common/sync_timer.o (symbol from plugin)
sync_timer_elapsed32                              .build/obj_karlk90_yaemk_moonlanderlike/common/sync_timer.o (symbol from plugin)
                                                  .build/obj_karlk90_yaemk_moonlanderlike/quantum/rgb_matrix/rgb_matrix.o (symbol from plugin)
sync_timer_init                                   .build/obj_karlk90_yaemk_moonlanderlike/common/sync_timer.o (symbol from plugin)
                                                  .build/obj_karlk90_yaemk_moonlanderlike/quantum/keyboard.o (symbol from plugin)
sync_timer_ms                                     .build/obj_karlk90_yaemk_moonlanderlike/common/sync_timer.o (symbol from plugin)
sync_timer_read                                   .build/obj_karlk90_yaemk_moonlanderlike/common/sync_timer.o (symbol from plugin)
sync_timer_read32                                 .build/obj_karlk90_yaemk_moonlanderlike/common/sync_timer.o (symbol from plugin)
                                                  .build/obj_karlk90_yaemk_moonlanderlike/quantum/rgb_matrix/rgb_matrix.o (symbol from plugin)
                                                  .build/obj_karlk90_yaemk_moonlanderlike/quantum/split_common/transactions.o (symbol from plugin)
sync_timer_update                                 .build/obj_karlk90_yaemk_moonlanderlike/common/sync_timer.o (symbol from plugin)
                                                  .build/obj_karlk90_yaemk_moonlanderlike/quantum/split_common/transactions.o (symbol from plugin)
syscall_fallbacks.c.e3d5965a                      /tmp/cciJ5IA3.debug.temp.o
                                                  /tmp/karlk90_yaemk_moonlanderlike.elf.XW0OFi.ltrans1.ltrans.o
syscalls.c.8a178e8a                               /tmp/ccu3Li40.debug.temp.o
                                                  /tmp/karlk90_yaemk_moonlanderlike.elf.XW0OFi.ltrans1.ltrans.o
tap_code                                          /tmp/karlk90_yaemk_moonlanderlike.elf.XW0OFi.ltrans0.ltrans.o
                                                  .build/obj_karlk90_yaemk_moonlanderlike/quantum/action.o (symbol from plugin)
                                                  /tmp/karlk90_yaemk_moonlanderlike.elf.XW0OFi.ltrans1.ltrans.o
                                                  .build/obj_karlk90_yaemk_moonlanderlike/quantum/process_keycode/process_space_cadet.o (symbol from plugin)
                                                  .build/obj_karlk90_yaemk_moonlanderlike/quantum/send_string.o (symbol from plugin)
                                                  .build/obj_karlk90_yaemk_moonlanderlike/keyboards/karlk90/yaemk/keymaps/moonlanderlike/keymap.o (symbol from plugin)
tap_code16                                        .build/obj_karlk90_yaemk_moonlanderlike/quantum/quantum.o (symbol from plugin)
tap_code_delay                                    .build/obj_karlk90_yaemk_moonlanderlike/quantum/action.o (symbol from plugin)
tap_random_base64                                 .build/obj_karlk90_yaemk_moonlanderlike/quantum/send_string.o (symbol from plugin)
thatHand                                          .build/obj_karlk90_yaemk_moonlanderlike/quantum/matrix.o (symbol from plugin)
thisHand                                          .build/obj_karlk90_yaemk_moonlanderlike/quantum/matrix.o (symbol from plugin)
timer.c.e97d8982                                  /tmp/ccEcDonF.debug.temp.o
                                                  /tmp/karlk90_yaemk_moonlanderlike.elf.XW0OFi.ltrans1.ltrans.o
                                                  /tmp/karlk90_yaemk_moonlanderlike.elf.XW0OFi.ltrans0.ltrans.o
timer_clear                                       .build/obj_karlk90_yaemk_moonlanderlike/common/chibios/timer.o (symbol from plugin)
timer_elapsed                                     .build/obj_karlk90_yaemk_moonlanderlike/common/chibios/timer.o (symbol from plugin)
                                                  .build/obj_karlk90_yaemk_moonlanderlike/common/sync_timer.o (symbol from plugin)
                                                  .build/obj_karlk90_yaemk_moonlanderlike/quantum/process_keycode/process_space_cadet.o (symbol from plugin)
                                                  .build/obj_karlk90_yaemk_moonlanderlike/ssd1306_sh1106.o (symbol from plugin)
                                                  .build/obj_karlk90_yaemk_moonlanderlike/quantum/rgb_matrix/rgb_matrix.o (symbol from plugin)
                                                  .build/obj_karlk90_yaemk_moonlanderlike/quantum/mousekey.o (symbol from plugin)
                                                  .build/obj_karlk90_yaemk_moonlanderlike/quantum/split_common/split_util.o (symbol from plugin)
timer_elapsed32                                   .build/obj_karlk90_yaemk_moonlanderlike/common/chibios/timer.o (symbol from plugin)
                                                  .build/obj_karlk90_yaemk_moonlanderlike/common/sync_timer.o (symbol from plugin)
                                                  .build/obj_karlk90_yaemk_moonlanderlike/quantum/split_common/transactions.o (symbol from plugin)
                                                  .build/obj_karlk90_yaemk_moonlanderlike/quantum/keyboard.o (symbol from plugin)
                                                  .build/obj_karlk90_yaemk_moonlanderlike/keyboards/karlk90/yaemk/yaemk.o (symbol from plugin)
timer_init                                        .build/obj_karlk90_yaemk_moonlanderlike/common/chibios/timer.o (symbol from plugin)
                                                  .build/obj_karlk90_yaemk_moonlanderlike/quantum/keyboard.o (symbol from plugin)
timer_read                                        .build/obj_karlk90_yaemk_moonlanderlike/common/chibios/timer.o (symbol from plugin)
                                                  .build/obj_karlk90_yaemk_moonlanderlike/common/sync_timer.o (symbol from plugin)
                                                  .build/obj_karlk90_yaemk_moonlanderlike/quantum/process_keycode/process_space_cadet.o (symbol from plugin)
                                                  .build/obj_karlk90_yaemk_moonlanderlike/ssd1306_sh1106.o (symbol from plugin)
                                                  .build/obj_karlk90_yaemk_moonlanderlike/quantum/rgb_matrix/rgb_matrix.o (symbol from plugin)
                                                  .build/obj_karlk90_yaemk_moonlanderlike/quantum/mousekey.o (symbol from plugin)
                                                  .build/obj_karlk90_yaemk_moonlanderlike/quantum/split_common/split_util.o (symbol from plugin)
                                                  .build/obj_karlk90_yaemk_moonlanderlike/quantum/keyboard.o (symbol from plugin)
timer_read32                                      /tmp/karlk90_yaemk_moonlanderlike.elf.XW0OFi.ltrans1.ltrans.o
                                                  .build/obj_karlk90_yaemk_moonlanderlike/common/chibios/timer.o (symbol from plugin)
                                                  /tmp/karlk90_yaemk_moonlanderlike.elf.XW0OFi.ltrans0.ltrans.o
                                                  .build/obj_karlk90_yaemk_moonlanderlike/common/sync_timer.o (symbol from plugin)
                                                  .build/obj_karlk90_yaemk_moonlanderlike/ssd1306_sh1106.o (symbol from plugin)
                                                  .build/obj_karlk90_yaemk_moonlanderlike/quantum/via.o (symbol from plugin)
                                                  .build/obj_karlk90_yaemk_moonlanderlike/quantum/split_common/transactions.o (symbol from plugin)
                                                  .build/obj_karlk90_yaemk_moonlanderlike/quantum/debounce/asym_eager_defer_pk.o (symbol from plugin)
                                                  .build/obj_karlk90_yaemk_moonlanderlike/quantum/keyboard.o (symbol from plugin)
tp_buttons                                        .build/obj_karlk90_yaemk_moonlanderlike/quantum/action.o (symbol from plugin)
transactions.c.986870f9                           /tmp/cclqFKnx.debug.temp.o
                                                  /tmp/karlk90_yaemk_moonlanderlike.elf.XW0OFi.ltrans0.ltrans.o
transactions_master                               .build/obj_karlk90_yaemk_moonlanderlike/quantum/split_common/transactions.o (symbol from plugin)
                                                  .build/obj_karlk90_yaemk_moonlanderlike/quantum/split_common/transport.o (symbol from plugin)
transactions_slave                                .build/obj_karlk90_yaemk_moonlanderlike/quantum/split_common/transactions.o (symbol from plugin)
                                                  .build/obj_karlk90_yaemk_moonlanderlike/quantum/split_common/transport.o (symbol from plugin)
transport.c.16fb7002                              /tmp/cc1oeOTg.debug.temp.o
                                                  /tmp/karlk90_yaemk_moonlanderlike.elf.XW0OFi.ltrans0.ltrans.o
transport_execute_transaction                     .build/obj_karlk90_yaemk_moonlanderlike/quantum/split_common/transport.o (symbol from plugin)
                                                  .build/obj_karlk90_yaemk_moonlanderlike/quantum/split_common/transactions.o (symbol from plugin)
transport_master                                  .build/obj_karlk90_yaemk_moonlanderlike/quantum/split_common/transport.o (symbol from plugin)
                                                  .build/obj_karlk90_yaemk_moonlanderlike/quantum/split_common/split_util.o (symbol from plugin)
                                                  .build/obj_karlk90_yaemk_moonlanderlike/quantum/matrix.o (symbol from plugin)
transport_master_if_connected                     .build/obj_karlk90_yaemk_moonlanderlike/quantum/split_common/split_util.o (symbol from plugin)
                                                  .build/obj_karlk90_yaemk_moonlanderlike/quantum/matrix.o (symbol from plugin)
transport_master_init                             .build/obj_karlk90_yaemk_moonlanderlike/quantum/split_common/transport.o (symbol from plugin)
                                                  .build/obj_karlk90_yaemk_moonlanderlike/quantum/split_common/split_util.o (symbol from plugin)
transport_slave                                   .build/obj_karlk90_yaemk_moonlanderlike/quantum/split_common/transport.o (symbol from plugin)
                                                  .build/obj_karlk90_yaemk_moonlanderlike/quantum/matrix.o (symbol from plugin)
transport_slave_init                              .build/obj_karlk90_yaemk_moonlanderlike/quantum/split_common/transport.o (symbol from plugin)
                                                  .build/obj_karlk90_yaemk_moonlanderlike/quantum/split_common/split_util.o (symbol from plugin)
unregister_code                                   .build/obj_karlk90_yaemk_moonlanderlike/quantum/action.o (symbol from plugin)
                                                  .build/obj_karlk90_yaemk_moonlanderlike/quantum/send_string.o (symbol from plugin)
                                                  .build/obj_karlk90_yaemk_moonlanderlike/quantum/quantum.o (symbol from plugin)
unregister_code16                                 .build/obj_karlk90_yaemk_moonlanderlike/quantum/quantum.o (symbol from plugin)
unregister_code_P.constprop.0                     /tmp/karlk90_yaemk_moonlanderlike.elf.XW0OFi.ltrans1.ltrans.o
                                                  /tmp/karlk90_yaemk_moonlanderlike.elf.XW0OFi.ltrans0.ltrans.o
unregister_code_buffered                          .build/obj_karlk90_yaemk_moonlanderlike/quantum/action.o (symbol from plugin)
unregister_code_deferred                          .build/obj_karlk90_yaemk_moonlanderlike/quantum/action.o (symbol from plugin)
                                                  .build/obj_karlk90_yaemk_moonlanderlike/quantum/action_util.o (symbol from plugin)
unregister_keycodes                               .build/obj_karlk90_yaemk_moonlanderlike/quantum/action_util.o (symbol from plugin)
                                                  .build/obj_karlk90_yaemk_moonlanderlike/quantum/action.o (symbol from plugin)
unregister_mods                                   .build/obj_karlk90_yaemk_moonlanderlike/quantum/action.o (symbol from plugin)
                                                  .build/obj_karlk90_yaemk_moonlanderlike/quantum/process_keycode/process_space_cadet.o (symbol from plugin)
                                                  .build/obj_karlk90_yaemk_moonlanderlike/quantum/quantum.o (symbol from plugin)
unregister_weak_mods                              .build/obj_karlk90_yaemk_moonlanderlike/quantum/action.o (symbol from plugin)
                                                  .build/obj_karlk90_yaemk_moonlanderlike/quantum/quantum.o (symbol from plugin)
update_source_layers_cache                        .build/obj_karlk90_yaemk_moonlanderlike/quantum/action_layer.o (symbol from plugin)
                                                  .build/obj_karlk90_yaemk_moonlanderlike/quantum/quantum.o (symbol from plugin)
update_tri_layer                                  .build/obj_karlk90_yaemk_moonlanderlike/quantum/quantum.o (symbol from plugin)
                                                  .build/obj_karlk90_yaemk_moonlanderlike/quantum/via.o (symbol from plugin)
update_tri_layer_state                            .build/obj_karlk90_yaemk_moonlanderlike/quantum/quantum.o (symbol from plugin)
usart_init                                        .build/obj_karlk90_yaemk_moonlanderlike/serial_usart.a(serial_usart.o)
usart_master_init                                 .build/obj_karlk90_yaemk_moonlanderlike/serial_usart.a(serial_usart.o)
usart_slave_init                                  .build/obj_karlk90_yaemk_moonlanderlike/serial_usart.a(serial_usart.o)
usbDisableEndpointsI                              .build/obj_karlk90_yaemk/lib/chibios/os/hal/src/hal_usb.o (symbol from plugin)
usbInit                                           .build/obj_karlk90_yaemk/lib/chibios/os/hal/src/hal_usb.o (symbol from plugin)
                                                  .build/obj_karlk90_yaemk/lib/chibios/os/hal/src/hal.o (symbol from plugin)
usbInitEndpointI                                  .build/obj_karlk90_yaemk/lib/chibios/os/hal/src/hal_usb.o (symbol from plugin)
                                                  .build/obj_karlk90_yaemk_moonlanderlike/protocol/chibios/usb_main.o (symbol from plugin)
usbObjectInit                                     .build/obj_karlk90_yaemk/lib/chibios/os/hal/src/hal_usb.o (symbol from plugin)
                                                  .build/obj_karlk90_yaemk/lib/chibios/os/hal/ports/STM32/LLD/USBv1/hal_usb_lld.o (symbol from plugin)
usbReceive                                        .build/obj_karlk90_yaemk/lib/chibios/os/hal/src/hal_usb.o (symbol from plugin)
usbStallReceiveI                                  .build/obj_karlk90_yaemk/lib/chibios/os/hal/src/hal_usb.o (symbol from plugin)
usbStallTransmitI                                 .build/obj_karlk90_yaemk/lib/chibios/os/hal/src/hal_usb.o (symbol from plugin)
usbStart                                          .build/obj_karlk90_yaemk/lib/chibios/os/hal/src/hal_usb.o (symbol from plugin)
                                                  .build/obj_karlk90_yaemk_moonlanderlike/protocol/chibios/usb_main.o (symbol from plugin)
usbStartReceiveI                                  .build/obj_karlk90_yaemk/lib/chibios/os/hal/src/hal_usb.o (symbol from plugin)
                                                  .build/obj_karlk90_yaemk_moonlanderlike/protocol/chibios/usb_driver.o (symbol from plugin)
usbStartTransmitI                                 .build/obj_karlk90_yaemk/lib/chibios/os/hal/src/hal_usb.o (symbol from plugin)
                                                  .build/obj_karlk90_yaemk_moonlanderlike/protocol/chibios/usb_driver.o (symbol from plugin)
                                                  .build/obj_karlk90_yaemk_moonlanderlike/protocol/chibios/usb_main.o (symbol from plugin)
usbStop                                           .build/obj_karlk90_yaemk/lib/chibios/os/hal/src/hal_usb.o (symbol from plugin)
                                                  .build/obj_karlk90_yaemk_moonlanderlike/protocol/chibios/usb_util.o (symbol from plugin)
                                                  .build/obj_karlk90_yaemk_moonlanderlike/protocol/chibios/usb_main.o (symbol from plugin)
                                                  .build/obj_karlk90_yaemk_moonlanderlike/keyboards/karlk90/yaemk/yaemk.o (symbol from plugin)
usbStop.constprop.0                               /tmp/karlk90_yaemk_moonlanderlike.elf.XW0OFi.ltrans1.ltrans.o
                                                  /tmp/karlk90_yaemk_moonlanderlike.elf.XW0OFi.ltrans0.ltrans.o
usbTransmit                                       .build/obj_karlk90_yaemk/lib/chibios/os/hal/src/hal_usb.o (symbol from plugin)
usbWakeupHost                                     .build/obj_karlk90_yaemk/lib/chibios/os/hal/src/hal_usb.o (symbol from plugin)
                                                  .build/obj_karlk90_yaemk_moonlanderlike/protocol/chibios/chibios.o (symbol from plugin)
usb_connected_state                               .build/obj_karlk90_yaemk_moonlanderlike/protocol/chibios/usb_util.o (symbol from plugin)
                                                  .build/obj_karlk90_yaemk_moonlanderlike/common/usb_util.o (symbol from plugin)
                                                  .build/obj_karlk90_yaemk_moonlanderlike/quantum/split_common/split_util.o (symbol from plugin)
usb_descriptor.c.7eb00694                         /tmp/ccJefRjC.debug.temp.o
                                                  /tmp/karlk90_yaemk_moonlanderlike.elf.XW0OFi.ltrans1.ltrans.o
usb_device_state                                  .build/obj_karlk90_yaemk_moonlanderlike/quantum/usb_device_state.o (symbol from plugin)
usb_device_state.c.5d0e8db5                       /tmp/ccQRN3Wo.debug.temp.o
                                                  /tmp/karlk90_yaemk_moonlanderlike.elf.XW0OFi.ltrans0.ltrans.o
usb_device_state_init                             .build/obj_karlk90_yaemk_moonlanderlike/quantum/usb_device_state.o (symbol from plugin)
                                                  .build/obj_karlk90_yaemk_moonlanderlike/protocol/chibios/chibios.o (symbol from plugin)
usb_device_state_set_configuration                .build/obj_karlk90_yaemk_moonlanderlike/quantum/usb_device_state.o (symbol from plugin)
                                                  .build/obj_karlk90_yaemk_moonlanderlike/protocol/chibios/usb_main.o (symbol from plugin)
usb_device_state_set_reset                        .build/obj_karlk90_yaemk_moonlanderlike/quantum/usb_device_state.o (symbol from plugin)
                                                  .build/obj_karlk90_yaemk_moonlanderlike/protocol/chibios/usb_main.o (symbol from plugin)
usb_device_state_set_resume                       .build/obj_karlk90_yaemk_moonlanderlike/quantum/usb_device_state.o (symbol from plugin)
                                                  .build/obj_karlk90_yaemk_moonlanderlike/protocol/chibios/usb_main.o (symbol from plugin)
usb_device_state_set_suspend                      .build/obj_karlk90_yaemk_moonlanderlike/quantum/usb_device_state.o (symbol from plugin)
                                                  .build/obj_karlk90_yaemk_moonlanderlike/protocol/chibios/usb_main.o (symbol from plugin)
usb_disconnect                                    .build/obj_karlk90_yaemk_moonlanderlike/protocol/chibios/usb_util.o (symbol from plugin)
                                                  .build/obj_karlk90_yaemk_moonlanderlike/common/usb_util.o (symbol from plugin)
                                                  .build/obj_karlk90_yaemk_moonlanderlike/quantum/split_common/split_util.o (symbol from plugin)
usb_driver.c.420341f3                             /tmp/ccfphpFF.debug.temp.o
                                                  /tmp/karlk90_yaemk_moonlanderlike.elf.XW0OFi.ltrans1.ltrans.o
                                                  /tmp/karlk90_yaemk_moonlanderlike.elf.XW0OFi.ltrans0.ltrans.o
usb_event_cb.lto_priv.0                           /tmp/karlk90_yaemk_moonlanderlike.elf.XW0OFi.ltrans1.ltrans.o
                                                  /tmp/karlk90_yaemk_moonlanderlike.elf.XW0OFi.ltrans0.ltrans.o
usb_event_queue_init                              .build/obj_karlk90_yaemk_moonlanderlike/protocol/chibios/usb_main.o (symbol from plugin)
                                                  .build/obj_karlk90_yaemk_moonlanderlike/protocol/chibios/chibios.o (symbol from plugin)
usb_event_queue_task                              .build/obj_karlk90_yaemk_moonlanderlike/protocol/chibios/usb_main.o (symbol from plugin)
                                                  .build/obj_karlk90_yaemk_moonlanderlike/protocol/chibios/chibios.o (symbol from plugin)
usb_get_descriptor_cb.lto_priv.0                  /tmp/karlk90_yaemk_moonlanderlike.elf.XW0OFi.ltrans1.ltrans.o
                                                  /tmp/karlk90_yaemk_moonlanderlike.elf.XW0OFi.ltrans0.ltrans.o
usb_lld_clear_in                                  .build/obj_karlk90_yaemk/lib/chibios/os/hal/ports/STM32/LLD/USBv1/hal_usb_lld.o (symbol from plugin)
                                                  .build/obj_karlk90_yaemk/lib/chibios/os/hal/src/hal_usb.o (symbol from plugin)
usb_lld_clear_out                                 .build/obj_karlk90_yaemk/lib/chibios/os/hal/ports/STM32/LLD/USBv1/hal_usb_lld.o (symbol from plugin)
                                                  .build/obj_karlk90_yaemk/lib/chibios/os/hal/src/hal_usb.o (symbol from plugin)
usb_lld_disable_endpoints                         .build/obj_karlk90_yaemk/lib/chibios/os/hal/ports/STM32/LLD/USBv1/hal_usb_lld.o (symbol from plugin)
                                                  .build/obj_karlk90_yaemk/lib/chibios/os/hal/src/hal_usb.o (symbol from plugin)
usb_lld_get_status_in                             .build/obj_karlk90_yaemk/lib/chibios/os/hal/ports/STM32/LLD/USBv1/hal_usb_lld.o (symbol from plugin)
                                                  .build/obj_karlk90_yaemk/lib/chibios/os/hal/src/hal_usb.o (symbol from plugin)
usb_lld_get_status_out                            .build/obj_karlk90_yaemk/lib/chibios/os/hal/ports/STM32/LLD/USBv1/hal_usb_lld.o (symbol from plugin)
                                                  .build/obj_karlk90_yaemk/lib/chibios/os/hal/src/hal_usb.o (symbol from plugin)
usb_lld_init                                      .build/obj_karlk90_yaemk/lib/chibios/os/hal/ports/STM32/LLD/USBv1/hal_usb_lld.o (symbol from plugin)
                                                  .build/obj_karlk90_yaemk/lib/chibios/os/hal/src/hal_usb.o (symbol from plugin)
usb_lld_init_endpoint                             /tmp/karlk90_yaemk_moonlanderlike.elf.XW0OFi.ltrans1.ltrans.o
                                                  .build/obj_karlk90_yaemk/lib/chibios/os/hal/ports/STM32/LLD/USBv1/hal_usb_lld.o (symbol from plugin)
                                                  /tmp/karlk90_yaemk_moonlanderlike.elf.XW0OFi.ltrans0.ltrans.o
                                                  .build/obj_karlk90_yaemk/lib/chibios/os/hal/src/hal_usb.o (symbol from plugin)
usb_lld_read_setup                                .build/obj_karlk90_yaemk/lib/chibios/os/hal/ports/STM32/LLD/USBv1/hal_usb_lld.o (symbol from plugin)
                                                  .build/obj_karlk90_yaemk/lib/chibios/os/hal/src/hal_usb.o (symbol from plugin)
usb_lld_reset                                     .build/obj_karlk90_yaemk/lib/chibios/os/hal/ports/STM32/LLD/USBv1/hal_usb_lld.o (symbol from plugin)
                                                  .build/obj_karlk90_yaemk/lib/chibios/os/hal/src/hal_usb.o (symbol from plugin)
usb_lld_set_address                               .build/obj_karlk90_yaemk/lib/chibios/os/hal/ports/STM32/LLD/USBv1/hal_usb_lld.o (symbol from plugin)
                                                  .build/obj_karlk90_yaemk/lib/chibios/os/hal/src/hal_usb.o (symbol from plugin)
usb_lld_stall_in                                  .build/obj_karlk90_yaemk/lib/chibios/os/hal/ports/STM32/LLD/USBv1/hal_usb_lld.o (symbol from plugin)
                                                  .build/obj_karlk90_yaemk/lib/chibios/os/hal/src/hal_usb.o (symbol from plugin)
usb_lld_stall_out                                 .build/obj_karlk90_yaemk/lib/chibios/os/hal/ports/STM32/LLD/USBv1/hal_usb_lld.o (symbol from plugin)
                                                  .build/obj_karlk90_yaemk/lib/chibios/os/hal/src/hal_usb.o (symbol from plugin)
usb_lld_start                                     .build/obj_karlk90_yaemk/lib/chibios/os/hal/ports/STM32/LLD/USBv1/hal_usb_lld.o (symbol from plugin)
                                                  .build/obj_karlk90_yaemk/lib/chibios/os/hal/src/hal_usb.o (symbol from plugin)
usb_lld_start_in                                  .build/obj_karlk90_yaemk/lib/chibios/os/hal/ports/STM32/LLD/USBv1/hal_usb_lld.o (symbol from plugin)
                                                  .build/obj_karlk90_yaemk/lib/chibios/os/hal/src/hal_usb.o (symbol from plugin)
usb_lld_start_out                                 .build/obj_karlk90_yaemk/lib/chibios/os/hal/ports/STM32/LLD/USBv1/hal_usb_lld.o (symbol from plugin)
                                                  .build/obj_karlk90_yaemk/lib/chibios/os/hal/src/hal_usb.o (symbol from plugin)
usb_lld_stop                                      .build/obj_karlk90_yaemk/lib/chibios/os/hal/ports/STM32/LLD/USBv1/hal_usb_lld.o (symbol from plugin)
                                                  .build/obj_karlk90_yaemk/lib/chibios/os/hal/src/hal_usb.o (symbol from plugin)
usb_main.c.2c2e8300                               /tmp/ccZjDjB6.debug.temp.o
                                                  /tmp/karlk90_yaemk_moonlanderlike.elf.XW0OFi.ltrans1.ltrans.o
                                                  /tmp/karlk90_yaemk_moonlanderlike.elf.XW0OFi.ltrans0.ltrans.o
usb_request_hook_cb.lto_priv.0                    /tmp/karlk90_yaemk_moonlanderlike.elf.XW0OFi.ltrans1.ltrans.o
                                                  /tmp/karlk90_yaemk_moonlanderlike.elf.XW0OFi.ltrans0.ltrans.o
usb_sof_cb.lto_priv.0                             /tmp/karlk90_yaemk_moonlanderlike.elf.XW0OFi.ltrans1.ltrans.o
                                                  /tmp/karlk90_yaemk_moonlanderlike.elf.XW0OFi.ltrans0.ltrans.o
usb_util.c.434b448c                               /tmp/ccVttbpz.debug.temp.o
usb_util.c.e075433c                               /tmp/ccqNl00u.debug.temp.o
usb_vbus_state                                    .build/obj_karlk90_yaemk_moonlanderlike/common/usb_util.o (symbol from plugin)
vfiprintf                                         /usr/lib/gcc/arm-none-eabi/10.3.1/../../../arm-none-eabi/lib/thumb/v7e-m+fp/hard/libg_nano.a(lib_a-nano-vfprintf.o)
vfprintf                                          /usr/lib/gcc/arm-none-eabi/10.3.1/../../../arm-none-eabi/lib/thumb/v7e-m+fp/hard/libg_nano.a(lib_a-nano-vfprintf.o)
via.c.3d895214                                    /tmp/ccnqM8Lz.debug.temp.o
                                                  /tmp/karlk90_yaemk_moonlanderlike.elf.XW0OFi.ltrans1.ltrans.o
                                                  /tmp/karlk90_yaemk_moonlanderlike.elf.XW0OFi.ltrans0.ltrans.o
via_eeprom_is_valid                               /tmp/karlk90_yaemk_moonlanderlike.elf.XW0OFi.ltrans1.ltrans.o
                                                  .build/obj_karlk90_yaemk_moonlanderlike/quantum/via.o (symbol from plugin)
                                                  /tmp/karlk90_yaemk_moonlanderlike.elf.XW0OFi.ltrans0.ltrans.o
                                                  .build/obj_karlk90_yaemk_moonlanderlike/quantum/eeconfig.o (symbol from plugin)
via_eeprom_set_valid                              .build/obj_karlk90_yaemk_moonlanderlike/quantum/via.o (symbol from plugin)
                                                  .build/obj_karlk90_yaemk_moonlanderlike/quantum/eeconfig.o (symbol from plugin)
via_get_layout_options                            .build/obj_karlk90_yaemk_moonlanderlike/quantum/via.o (symbol from plugin)
via_init                                          .build/obj_karlk90_yaemk_moonlanderlike/quantum/via.o (symbol from plugin)
                                                  .build/obj_karlk90_yaemk_moonlanderlike/quantum/keyboard.o (symbol from plugin)
via_init_kb                                       .build/obj_karlk90_yaemk_moonlanderlike/quantum/via.o (symbol from plugin)
via_set_layout_options                            .build/obj_karlk90_yaemk_moonlanderlike/quantum/via.o (symbol from plugin)
vprintf_                                          .build/obj_karlk90_yaemk_moonlanderlike/lib/printf/printf.o (symbol from plugin)
vsnprintf_                                        .build/obj_karlk90_yaemk_moonlanderlike/lib/printf/printf.o (symbol from plugin)
wait.c.a2ead5e7                                   /tmp/ccrnNp7Z.debug.temp.o
wakeup.lto_priv.0                                 /tmp/karlk90_yaemk_moonlanderlike.elf.XW0OFi.ltrans1.ltrans.o
                                                  /tmp/karlk90_yaemk_moonlanderlike.elf.XW0OFi.ltrans0.ltrans.o
ws2812_init                                       .build/obj_karlk90_yaemk_moonlanderlike/ws2812_pwm.o (symbol from plugin)
ws2812_pwm.c.beea14dd                             /tmp/cc9usVWf.debug.temp.o
                                                  /tmp/karlk90_yaemk_moonlanderlike.elf.XW0OFi.ltrans1.ltrans.o
ws2812_setleds                                    .build/obj_karlk90_yaemk_moonlanderlike/ws2812_pwm.o (symbol from plugin)
                                                  .build/obj_karlk90_yaemk_moonlanderlike/quantum/rgb_matrix/rgb_matrix_drivers.o (symbol from plugin)
ws2812_write_led                                  .build/obj_karlk90_yaemk_moonlanderlike/ws2812_pwm.o (symbol from plugin)
ws2812_write_led_rgbw                             .build/obj_karlk90_yaemk_moonlanderlike/ws2812_pwm.o (symbol from plugin)
yaemk.c.30016a56                                  /tmp/cclModur.debug.temp.o
                                                  /tmp/karlk90_yaemk_moonlanderlike.elf.XW0OFi.ltrans0.ltrans.o
